
main.elf:     file format elf32-avr

Sections:
Idx Name          Size      VMA       LMA       File off  Algn
  0 .text         000002ca  00000000  00000000  00000054  2**1
                  CONTENTS, ALLOC, LOAD, READONLY, CODE
  1 .debug_aranges 00000020  00000000  00000000  0000031e  2**0
                  CONTENTS, READONLY, DEBUGGING
  2 .debug_pubnames 00000065  00000000  00000000  0000033e  2**0
                  CONTENTS, READONLY, DEBUGGING
  3 .debug_info   00000740  00000000  00000000  000003a3  2**0
                  CONTENTS, READONLY, DEBUGGING
  4 .debug_abbrev 00000179  00000000  00000000  00000ae3  2**0
                  CONTENTS, READONLY, DEBUGGING
  5 .debug_line   0000046b  00000000  00000000  00000c5c  2**0
                  CONTENTS, READONLY, DEBUGGING
  6 .debug_frame  00000080  00000000  00000000  000010c8  2**2
                  CONTENTS, READONLY, DEBUGGING
  7 .debug_str    0000010a  00000000  00000000  00001148  2**0
                  CONTENTS, READONLY, DEBUGGING
  8 .debug_loc    000001ee  00000000  00000000  00001252  2**0
                  CONTENTS, READONLY, DEBUGGING
  9 .debug_ranges 000000a8  00000000  00000000  00001440  2**0
                  CONTENTS, READONLY, DEBUGGING

Disassembly of section .text:

00000000 <__vectors>:
   0:	0c 94 2a 00 	jmp	0x54	; 0x54 <__ctors_end>
   4:	0c 94 34 00 	jmp	0x68	; 0x68 <__bad_interrupt>
   8:	0c 94 34 00 	jmp	0x68	; 0x68 <__bad_interrupt>
   c:	0c 94 34 00 	jmp	0x68	; 0x68 <__bad_interrupt>
  10:	0c 94 34 00 	jmp	0x68	; 0x68 <__bad_interrupt>
  14:	0c 94 34 00 	jmp	0x68	; 0x68 <__bad_interrupt>
  18:	0c 94 34 00 	jmp	0x68	; 0x68 <__bad_interrupt>
  1c:	0c 94 34 00 	jmp	0x68	; 0x68 <__bad_interrupt>
  20:	0c 94 34 00 	jmp	0x68	; 0x68 <__bad_interrupt>
  24:	0c 94 34 00 	jmp	0x68	; 0x68 <__bad_interrupt>
  28:	0c 94 34 00 	jmp	0x68	; 0x68 <__bad_interrupt>
  2c:	0c 94 34 00 	jmp	0x68	; 0x68 <__bad_interrupt>
  30:	0c 94 34 00 	jmp	0x68	; 0x68 <__bad_interrupt>
  34:	0c 94 34 00 	jmp	0x68	; 0x68 <__bad_interrupt>
  38:	0c 94 34 00 	jmp	0x68	; 0x68 <__bad_interrupt>
  3c:	0c 94 34 00 	jmp	0x68	; 0x68 <__bad_interrupt>
  40:	0c 94 34 00 	jmp	0x68	; 0x68 <__bad_interrupt>
  44:	0c 94 34 00 	jmp	0x68	; 0x68 <__bad_interrupt>
  48:	0c 94 34 00 	jmp	0x68	; 0x68 <__bad_interrupt>
  4c:	0c 94 34 00 	jmp	0x68	; 0x68 <__bad_interrupt>
  50:	0c 94 34 00 	jmp	0x68	; 0x68 <__bad_interrupt>

00000054 <__ctors_end>:
  54:	11 24       	eor	r1, r1
  56:	1f be       	out	0x3f, r1	; 63
  58:	cf e5       	ldi	r28, 0x5F	; 95
  5a:	d4 e0       	ldi	r29, 0x04	; 4
  5c:	de bf       	out	0x3e, r29	; 62
  5e:	cd bf       	out	0x3d, r28	; 61
  60:	0e 94 e5 00 	call	0x1ca	; 0x1ca <main>
  64:	0c 94 63 01 	jmp	0x2c6	; 0x2c6 <_exit>

00000068 <__bad_interrupt>:
  68:	0c 94 00 00 	jmp	0	; 0x0 <__vectors>

0000006c <lcd_reset>:
#define LCD_RW      0x02
#define LCD_EN      0x04

void lcd_reset(void)
{
        lcd_port = 0xFF;
  6c:	8f ef       	ldi	r24, 0xFF	; 255
  6e:	88 bb       	out	0x18, r24	; 24
    milliseconds can be achieved.
 */
void
_delay_loop_2(uint16_t __count)
{
	__asm__ volatile (
  70:	80 e4       	ldi	r24, 0x40	; 64
  72:	9c e9       	ldi	r25, 0x9C	; 156
  74:	01 97       	sbiw	r24, 0x01	; 1
  76:	f1 f7       	brne	.-4      	; 0x74 <lcd_reset+0x8>
        _delay_ms(20);
        lcd_port = 0x30+LCD_EN;
  78:	94 e3       	ldi	r25, 0x34	; 52
  7a:	98 bb       	out	0x18, r25	; 24
        lcd_port = 0x30;
  7c:	80 e3       	ldi	r24, 0x30	; 48
  7e:	88 bb       	out	0x18, r24	; 24
  80:	e0 e2       	ldi	r30, 0x20	; 32
  82:	fe e4       	ldi	r31, 0x4E	; 78
  84:	31 97       	sbiw	r30, 0x01	; 1
  86:	f1 f7       	brne	.-4      	; 0x84 <lcd_reset+0x18>
        _delay_ms(10);
        lcd_port = 0x30+LCD_EN;
  88:	98 bb       	out	0x18, r25	; 24
        lcd_port = 0x30;
  8a:	88 bb       	out	0x18, r24	; 24
  8c:	20 ed       	ldi	r18, 0xD0	; 208
  8e:	37 e0       	ldi	r19, 0x07	; 7
  90:	f9 01       	movw	r30, r18
  92:	31 97       	sbiw	r30, 0x01	; 1
  94:	f1 f7       	brne	.-4      	; 0x92 <lcd_reset+0x26>
        _delay_ms(1);
        lcd_port = 0x30+LCD_EN;
  96:	98 bb       	out	0x18, r25	; 24
        lcd_port = 0x30;
  98:	88 bb       	out	0x18, r24	; 24
  9a:	c9 01       	movw	r24, r18
  9c:	01 97       	sbiw	r24, 0x01	; 1
  9e:	f1 f7       	brne	.-4      	; 0x9c <lcd_reset+0x30>
        _delay_ms(1);
        lcd_port = 0x20+LCD_EN;
  a0:	84 e2       	ldi	r24, 0x24	; 36
  a2:	88 bb       	out	0x18, r24	; 24
        lcd_port = 0x20;
  a4:	80 e2       	ldi	r24, 0x20	; 32
  a6:	88 bb       	out	0x18, r24	; 24
  a8:	c9 01       	movw	r24, r18
  aa:	01 97       	sbiw	r24, 0x01	; 1
  ac:	f1 f7       	brne	.-4      	; 0xaa <lcd_reset+0x3e>
        _delay_ms(1);
}
  ae:	08 95       	ret

000000b0 <lcd_cmd>:
void lcd_cmd (char cmd)
{
        lcd_port = (cmd & 0xF0)|LCD_EN;
  b0:	38 2f       	mov	r19, r24
  b2:	30 7f       	andi	r19, 0xF0	; 240
  b4:	23 2f       	mov	r18, r19
  b6:	24 60       	ori	r18, 0x04	; 4
  b8:	28 bb       	out	0x18, r18	; 24
        lcd_port = (cmd & 0xF0);
  ba:	38 bb       	out	0x18, r19	; 24
		
        lcd_port = ((cmd << 4) & 0xF0)|LCD_EN;
  bc:	90 e0       	ldi	r25, 0x00	; 0
  be:	24 e0       	ldi	r18, 0x04	; 4
  c0:	88 0f       	add	r24, r24
  c2:	99 1f       	adc	r25, r25
  c4:	2a 95       	dec	r18
  c6:	e1 f7       	brne	.-8      	; 0xc0 <lcd_cmd+0x10>
  c8:	28 2f       	mov	r18, r24
  ca:	24 60       	ori	r18, 0x04	; 4
  cc:	28 bb       	out	0x18, r18	; 24
        lcd_port = ((cmd << 4) & 0xF0);
  ce:	88 bb       	out	0x18, r24	; 24
  d0:	80 ea       	ldi	r24, 0xA0	; 160
  d2:	9f e0       	ldi	r25, 0x0F	; 15
  d4:	fc 01       	movw	r30, r24
  d6:	31 97       	sbiw	r30, 0x01	; 1
  d8:	f1 f7       	brne	.-4      	; 0xd6 <lcd_cmd+0x26>

      

        _delay_ms(2);
        _delay_ms(2);
}
  da:	01 97       	sbiw	r24, 0x01	; 1
  dc:	f1 f7       	brne	.-4      	; 0xda <lcd_cmd+0x2a>
  de:	08 95       	ret

000000e0 <lcd_init>:

void lcd_init (void)
{       DDRB=0xFF;
  e0:	8f ef       	ldi	r24, 0xFF	; 255
  e2:	87 bb       	out	0x17, r24	; 23
        PORTB=0x00; 
  e4:	18 ba       	out	0x18, r1	; 24
        lcd_reset();         // Call LCD reset
  e6:	0e 94 36 00 	call	0x6c	; 0x6c <lcd_reset>
        lcd_port = 0x20;
        _delay_ms(1);
}
void lcd_cmd (char cmd)
{
        lcd_port = (cmd & 0xF0)|LCD_EN;
  ea:	84 e2       	ldi	r24, 0x24	; 36
  ec:	88 bb       	out	0x18, r24	; 24
        lcd_port = (cmd & 0xF0);
  ee:	80 e2       	ldi	r24, 0x20	; 32
  f0:	88 bb       	out	0x18, r24	; 24
		
        lcd_port = ((cmd << 4) & 0xF0)|LCD_EN;
  f2:	54 e8       	ldi	r21, 0x84	; 132
  f4:	58 bb       	out	0x18, r21	; 24
        lcd_port = ((cmd << 4) & 0xF0);
  f6:	40 e8       	ldi	r20, 0x80	; 128
  f8:	48 bb       	out	0x18, r20	; 24
  fa:	20 ea       	ldi	r18, 0xA0	; 160
  fc:	3f e0       	ldi	r19, 0x0F	; 15
  fe:	c9 01       	movw	r24, r18
 100:	01 97       	sbiw	r24, 0x01	; 1
 102:	f1 f7       	brne	.-4      	; 0x100 <lcd_init+0x20>
        lcd_port = 0x20;
        _delay_ms(1);
}
void lcd_cmd (char cmd)
{
        lcd_port = (cmd & 0xF0)|LCD_EN;
 104:	c9 01       	movw	r24, r18
 106:	01 97       	sbiw	r24, 0x01	; 1
 108:	f1 f7       	brne	.-4      	; 0x106 <lcd_init+0x26>
 10a:	94 e0       	ldi	r25, 0x04	; 4
 10c:	98 bb       	out	0x18, r25	; 24
        lcd_port = (cmd & 0xF0);
 10e:	18 ba       	out	0x18, r1	; 24
		
        lcd_port = ((cmd << 4) & 0xF0)|LCD_EN;
 110:	84 ec       	ldi	r24, 0xC4	; 196
 112:	88 bb       	out	0x18, r24	; 24
        lcd_port = ((cmd << 4) & 0xF0);
 114:	80 ec       	ldi	r24, 0xC0	; 192
 116:	88 bb       	out	0x18, r24	; 24
 118:	f9 01       	movw	r30, r18
 11a:	31 97       	sbiw	r30, 0x01	; 1
 11c:	f1 f7       	brne	.-4      	; 0x11a <lcd_init+0x3a>
        lcd_port = 0x20;
        _delay_ms(1);
}
void lcd_cmd (char cmd)
{
        lcd_port = (cmd & 0xF0)|LCD_EN;
 11e:	f9 01       	movw	r30, r18
 120:	31 97       	sbiw	r30, 0x01	; 1
 122:	f1 f7       	brne	.-4      	; 0x120 <lcd_init+0x40>
 124:	98 bb       	out	0x18, r25	; 24
        lcd_port = (cmd & 0xF0);
 126:	18 ba       	out	0x18, r1	; 24
		
        lcd_port = ((cmd << 4) & 0xF0)|LCD_EN;
 128:	84 e6       	ldi	r24, 0x64	; 100
 12a:	88 bb       	out	0x18, r24	; 24
        lcd_port = ((cmd << 4) & 0xF0);
 12c:	80 e6       	ldi	r24, 0x60	; 96
 12e:	88 bb       	out	0x18, r24	; 24
 130:	f9 01       	movw	r30, r18
 132:	31 97       	sbiw	r30, 0x01	; 1
 134:	f1 f7       	brne	.-4      	; 0x132 <lcd_init+0x52>
        lcd_port = 0x20;
        _delay_ms(1);
}
void lcd_cmd (char cmd)
{
        lcd_port = (cmd & 0xF0)|LCD_EN;
 136:	f9 01       	movw	r30, r18
 138:	31 97       	sbiw	r30, 0x01	; 1
 13a:	f1 f7       	brne	.-4      	; 0x138 <lcd_init+0x58>
 13c:	58 bb       	out	0x18, r21	; 24
        lcd_port = (cmd & 0xF0);
 13e:	48 bb       	out	0x18, r20	; 24
		
        lcd_port = ((cmd << 4) & 0xF0)|LCD_EN;
 140:	98 bb       	out	0x18, r25	; 24
        lcd_port = ((cmd << 4) & 0xF0);
 142:	18 ba       	out	0x18, r1	; 24
 144:	c9 01       	movw	r24, r18
 146:	01 97       	sbiw	r24, 0x01	; 1
 148:	f1 f7       	brne	.-4      	; 0x146 <lcd_init+0x66>
        lcd_reset();         // Call LCD reset
        lcd_cmd(0x28);       // 4-bit mode - 2 line - 5x7 font.
        lcd_cmd(0x0C);       // Display on cursor - off .
        lcd_cmd(0x06);       // Automatic Increment - No Display shift.
        lcd_cmd(0x80);       // Address DDRAM with 0 offset 80h.
 }
 14a:	c9 01       	movw	r24, r18
 14c:	01 97       	sbiw	r24, 0x01	; 1
 14e:	f1 f7       	brne	.-4      	; 0x14c <lcd_init+0x6c>
 150:	08 95       	ret

00000152 <lcd_data>:


void lcd_data (unsigned char dat)
{
        lcd_port = ((dat & 0xF0)|LCD_EN|LCD_RS);
 152:	98 2f       	mov	r25, r24
 154:	90 7f       	andi	r25, 0xF0	; 240
 156:	29 2f       	mov	r18, r25
 158:	25 60       	ori	r18, 0x05	; 5
 15a:	28 bb       	out	0x18, r18	; 24
        lcd_port = ((dat & 0xF0)|LCD_RS);
 15c:	91 60       	ori	r25, 0x01	; 1
 15e:	98 bb       	out	0x18, r25	; 24
		
		lcd_port = (((dat << 4) & 0xF0)|LCD_EN|LCD_RS);
 160:	82 95       	swap	r24
 162:	80 7f       	andi	r24, 0xF0	; 240
 164:	98 2f       	mov	r25, r24
 166:	95 60       	ori	r25, 0x05	; 5
 168:	98 bb       	out	0x18, r25	; 24
        lcd_port = (((dat << 4) & 0xF0)|LCD_RS);
 16a:	81 60       	ori	r24, 0x01	; 1
 16c:	88 bb       	out	0x18, r24	; 24
 16e:	80 ea       	ldi	r24, 0xA0	; 160
 170:	9f e0       	ldi	r25, 0x0F	; 15
 172:	fc 01       	movw	r30, r24
 174:	31 97       	sbiw	r30, 0x01	; 1
 176:	f1 f7       	brne	.-4      	; 0x174 <lcd_data+0x22>
       
      

       _delay_ms(2);
       _delay_ms(2);
}
 178:	01 97       	sbiw	r24, 0x01	; 1
 17a:	f1 f7       	brne	.-4      	; 0x178 <lcd_data+0x26>
 17c:	08 95       	ret

0000017e <lcd_puts>:
void lcd_puts(char *aaa)
{
 17e:	cf 93       	push	r28
 180:	df 93       	push	r29
 182:	ec 01       	movw	r28, r24
 184:	02 c0       	rjmp	.+4      	; 0x18a <lcd_puts+0xc>
unsigned int i;
for(i=0;aaa[i]!=0;i++)
lcd_data(aaa[i]);
 186:	0e 94 a9 00 	call	0x152	; 0x152 <lcd_data>
       _delay_ms(2);
}
void lcd_puts(char *aaa)
{
unsigned int i;
for(i=0;aaa[i]!=0;i++)
 18a:	89 91       	ld	r24, Y+
 18c:	88 23       	and	r24, r24
 18e:	d9 f7       	brne	.-10     	; 0x186 <lcd_puts+0x8>
lcd_data(aaa[i]);

}
 190:	df 91       	pop	r29
 192:	cf 91       	pop	r28
 194:	08 95       	ret

00000196 <itoa>:
void itoa(uint16_t num)
{
 196:	0f 93       	push	r16
 198:	1f 93       	push	r17
 19a:	8c 01       	movw	r16, r24
 num=num/10;
 b=num%10;
 num=num/10;

 
 lcd_data(0x30+b); 
 19c:	6a e0       	ldi	r22, 0x0A	; 10
 19e:	70 e0       	ldi	r23, 0x00	; 0
 1a0:	0e 94 4f 01 	call	0x29e	; 0x29e <__udivmodhi4>
 1a4:	cb 01       	movw	r24, r22
 1a6:	6a e0       	ldi	r22, 0x0A	; 10
 1a8:	70 e0       	ldi	r23, 0x00	; 0
 1aa:	0e 94 4f 01 	call	0x29e	; 0x29e <__udivmodhi4>
 1ae:	80 5d       	subi	r24, 0xD0	; 208
 1b0:	0e 94 a9 00 	call	0x152	; 0x152 <lcd_data>
 lcd_data(0x30+a); 
 1b4:	c8 01       	movw	r24, r16
 1b6:	6a e0       	ldi	r22, 0x0A	; 10
 1b8:	70 e0       	ldi	r23, 0x00	; 0
 1ba:	0e 94 4f 01 	call	0x29e	; 0x29e <__udivmodhi4>
 1be:	80 5d       	subi	r24, 0xD0	; 208
 1c0:	0e 94 a9 00 	call	0x152	; 0x152 <lcd_data>
 1c4:	1f 91       	pop	r17
 1c6:	0f 91       	pop	r16
 1c8:	08 95       	ret

000001ca <main>:
#include<avr/io.h>
#include<util/delay.h>
#include<lcd.h>

int main (void)
{
 1ca:	8f 92       	push	r8
 1cc:	9f 92       	push	r9
 1ce:	af 92       	push	r10
 1d0:	bf 92       	push	r11
 1d2:	cf 92       	push	r12
 1d4:	df 92       	push	r13
 1d6:	ef 92       	push	r14
 1d8:	ff 92       	push	r15
 1da:	0f 93       	push	r16
 1dc:	1f 93       	push	r17
 1de:	cf 93       	push	r28
 1e0:	df 93       	push	r29
int m=0,s=0;
DDRD=0x00;
 1e2:	11 ba       	out	0x11, r1	; 17
PORTD=0xFF;
 1e4:	8f ef       	ldi	r24, 0xFF	; 255
 1e6:	82 bb       	out	0x12, r24	; 18
 1e8:	00 e0       	ldi	r16, 0x00	; 0
 1ea:	10 e0       	ldi	r17, 0x00	; 0
 1ec:	c0 e0       	ldi	r28, 0x00	; 0
 1ee:	d0 e0       	ldi	r29, 0x00	; 0
        lcd_port = 0x20;
        _delay_ms(1);
}
void lcd_cmd (char cmd)
{
        lcd_port = (cmd & 0xF0)|LCD_EN;
 1f0:	e4 e8       	ldi	r30, 0x84	; 132
 1f2:	8e 2e       	mov	r8, r30
        lcd_port = (cmd & 0xF0);
 1f4:	70 e8       	ldi	r23, 0x80	; 128
 1f6:	97 2e       	mov	r9, r23
		
        lcd_port = ((cmd << 4) & 0xF0)|LCD_EN;
 1f8:	64 e2       	ldi	r22, 0x24	; 36
 1fa:	a6 2e       	mov	r10, r22
        lcd_port = ((cmd << 4) & 0xF0);
 1fc:	50 e2       	ldi	r21, 0x20	; 32
 1fe:	b5 2e       	mov	r11, r21
 200:	40 ea       	ldi	r20, 0xA0	; 160
 202:	e4 2e       	mov	r14, r20
 204:	4f e0       	ldi	r20, 0x0F	; 15
 206:	f4 2e       	mov	r15, r20
while(1)
{
if(!(PIND&0x01))
 208:	38 ec       	ldi	r19, 0xC8	; 200
 20a:	c3 2e       	mov	r12, r19
 20c:	d1 2c       	mov	r13, r1
 20e:	80 9b       	sbis	0x10, 0	; 16
 210:	28 c0       	rjmp	.+80     	; 0x262 <main+0x98>
 212:	29 c0       	rjmp	.+82     	; 0x266 <main+0x9c>
        lcd_port = 0x20;
        _delay_ms(1);
}
void lcd_cmd (char cmd)
{
        lcd_port = (cmd & 0xF0)|LCD_EN;
 214:	88 ba       	out	0x18, r8	; 24
        lcd_port = (cmd & 0xF0);
 216:	98 ba       	out	0x18, r9	; 24
		
        lcd_port = ((cmd << 4) & 0xF0)|LCD_EN;
 218:	a8 ba       	out	0x18, r10	; 24
        lcd_port = ((cmd << 4) & 0xF0);
 21a:	b8 ba       	out	0x18, r11	; 24
 21c:	c7 01       	movw	r24, r14
 21e:	01 97       	sbiw	r24, 0x01	; 1
 220:	f1 f7       	brne	.-4      	; 0x21e <main+0x54>
{
while(!(PIND&0x02))
{
lcd_cmd(0x82);
itoa(m);
 222:	c7 01       	movw	r24, r14
 224:	01 97       	sbiw	r24, 0x01	; 1
 226:	f1 f7       	brne	.-4      	; 0x224 <main+0x5a>
 228:	c8 01       	movw	r24, r16
 22a:	0e 94 cb 00 	call	0x196	; 0x196 <itoa>
lcd_data(':');
 22e:	8a e3       	ldi	r24, 0x3A	; 58
 230:	0e 94 a9 00 	call	0x152	; 0x152 <lcd_data>
itoa(s);
 234:	ce 01       	movw	r24, r28
 236:	0e 94 cb 00 	call	0x196	; 0x196 <itoa>
s++;
 23a:	21 96       	adiw	r28, 0x01	; 1
if(s>59)
 23c:	cc 33       	cpi	r28, 0x3C	; 60
 23e:	d1 05       	cpc	r29, r1
 240:	14 f0       	brlt	.+4      	; 0x246 <main+0x7c>
 242:	c0 e0       	ldi	r28, 0x00	; 0
 244:	d0 e0       	ldi	r29, 0x00	; 0
s=0;
m++;
 246:	0f 5f       	subi	r16, 0xFF	; 255
 248:	1f 4f       	sbci	r17, 0xFF	; 255
if(m>10)
 24a:	0b 30       	cpi	r16, 0x0B	; 11
 24c:	11 05       	cpc	r17, r1
 24e:	14 f0       	brlt	.+4      	; 0x254 <main+0x8a>
 250:	00 e0       	ldi	r16, 0x00	; 0
 252:	10 e0       	ldi	r17, 0x00	; 0
 254:	80 e1       	ldi	r24, 0x10	; 16
 256:	97 e2       	ldi	r25, 0x27	; 39
 258:	f6 01       	movw	r30, r12
 25a:	31 97       	sbiw	r30, 0x01	; 1
 25c:	f1 f7       	brne	.-4      	; 0x25a <main+0x90>
		__ticks = (uint16_t) (__ms * 10.0);
		while(__ticks)
		{
			// wait 1/10 ms
			_delay_loop_2(((F_CPU) / 4e3) / 10);
			__ticks --;
 25e:	01 97       	sbiw	r24, 0x01	; 1
		__ticks = 1;
	else if (__tmp > 65535)
	{
		//	__ticks = requested delay in 1/10 ms
		__ticks = (uint16_t) (__ms * 10.0);
		while(__ticks)
 260:	d9 f7       	brne	.-10     	; 0x258 <main+0x8e>
PORTD=0xFF;
while(1)
{
if(!(PIND&0x01))
{
while(!(PIND&0x02))
 262:	81 9b       	sbis	0x10, 1	; 16
 264:	d7 cf       	rjmp	.-82     	; 0x214 <main+0x4a>
m=0;

_delay_ms(1000);
}
}
if(bit_is_clear(PIND,3))
 266:	83 99       	sbic	0x10, 3	; 16
 268:	d2 cf       	rjmp	.-92     	; 0x20e <main+0x44>
        lcd_port = 0x20;
        _delay_ms(1);
}
void lcd_cmd (char cmd)
{
        lcd_port = (cmd & 0xF0)|LCD_EN;
 26a:	88 ba       	out	0x18, r8	; 24
        lcd_port = (cmd & 0xF0);
 26c:	98 ba       	out	0x18, r9	; 24
		
        lcd_port = ((cmd << 4) & 0xF0)|LCD_EN;
 26e:	a8 ba       	out	0x18, r10	; 24
        lcd_port = ((cmd << 4) & 0xF0);
 270:	b8 ba       	out	0x18, r11	; 24
 272:	c7 01       	movw	r24, r14
 274:	01 97       	sbiw	r24, 0x01	; 1
 276:	f1 f7       	brne	.-4      	; 0x274 <main+0xaa>
{
s=m=0;
lcd_cmd(0x82);
itoa(m);
 278:	c7 01       	movw	r24, r14
 27a:	01 97       	sbiw	r24, 0x01	; 1
 27c:	f1 f7       	brne	.-4      	; 0x27a <main+0xb0>
 27e:	80 e0       	ldi	r24, 0x00	; 0
 280:	90 e0       	ldi	r25, 0x00	; 0
 282:	0e 94 cb 00 	call	0x196	; 0x196 <itoa>
lcd_data(':');
 286:	8a e3       	ldi	r24, 0x3A	; 58
 288:	0e 94 a9 00 	call	0x152	; 0x152 <lcd_data>
itoa(s);
 28c:	80 e0       	ldi	r24, 0x00	; 0
 28e:	90 e0       	ldi	r25, 0x00	; 0
 290:	0e 94 cb 00 	call	0x196	; 0x196 <itoa>
 294:	00 e0       	ldi	r16, 0x00	; 0
 296:	10 e0       	ldi	r17, 0x00	; 0
 298:	c0 e0       	ldi	r28, 0x00	; 0
 29a:	d0 e0       	ldi	r29, 0x00	; 0
 29c:	b8 cf       	rjmp	.-144    	; 0x20e <main+0x44>

0000029e <__udivmodhi4>:
 29e:	aa 1b       	sub	r26, r26
 2a0:	bb 1b       	sub	r27, r27
 2a2:	51 e1       	ldi	r21, 0x11	; 17
 2a4:	07 c0       	rjmp	.+14     	; 0x2b4 <__udivmodhi4_ep>

000002a6 <__udivmodhi4_loop>:
 2a6:	aa 1f       	adc	r26, r26
 2a8:	bb 1f       	adc	r27, r27
 2aa:	a6 17       	cp	r26, r22
 2ac:	b7 07       	cpc	r27, r23
 2ae:	10 f0       	brcs	.+4      	; 0x2b4 <__udivmodhi4_ep>
 2b0:	a6 1b       	sub	r26, r22
 2b2:	b7 0b       	sbc	r27, r23

000002b4 <__udivmodhi4_ep>:
 2b4:	88 1f       	adc	r24, r24
 2b6:	99 1f       	adc	r25, r25
 2b8:	5a 95       	dec	r21
 2ba:	a9 f7       	brne	.-22     	; 0x2a6 <__udivmodhi4_loop>
 2bc:	80 95       	com	r24
 2be:	90 95       	com	r25
 2c0:	bc 01       	movw	r22, r24
 2c2:	cd 01       	movw	r24, r26
 2c4:	08 95       	ret

000002c6 <_exit>:
 2c6:	f8 94       	cli

000002c8 <__stop_program>:
 2c8:	ff cf       	rjmp	.-2      	; 0x2c8 <__stop_program>
