   1               		.file	"main.c"
   2               	__SREG__ = 0x3f
   3               	__SP_H__ = 0x3e
   4               	__SP_L__ = 0x3d
   5               	__CCP__  = 0x34
   6               	__tmp_reg__ = 0
   7               	__zero_reg__ = 1
  15               	.Ltext0:
  16               	.global	__vector_9
  18               	__vector_9:
  19               	.LFB3:
  20               	.LM1:
  21 0000 1F92      		push __zero_reg__
  22 0002 0F92      		push r0
  23 0004 0FB6      		in r0,__SREG__
  24 0006 0F92      		push r0
  25 0008 1124      		clr __zero_reg__
  26 000a 2F93      		push r18
  27 000c 8F93      		push r24
  28 000e 9F93      		push r25
  29               	/* prologue: Signal */
  30               	/* frame size = 0 */
  31               	.LM2:
  32 0010 83EC      		ldi r24,lo8(-61)
  33 0012 82BF      		out 82-32,r24
  34               	.LM3:
  35 0014 8091 0000 		lds r24,linecount
  36 0018 9091 0000 		lds r25,(linecount)+1
  37 001c 0196      		adiw r24,1
  38 001e 9093 0000 		sts (linecount)+1,r25
  39 0022 8093 0000 		sts linecount,r24
  40 0026 8091 0000 		lds r24,linecount
  41 002a 9091 0000 		lds r25,(linecount)+1
  42 002e 8D50      		subi r24,lo8(525)
  43 0030 9240      		sbci r25,hi8(525)
  44 0032 01F4      		brne .L2
  45               	.LM4:
  46 0034 1092 0000 		sts (linecount)+1,__zero_reg__
  47 0038 1092 0000 		sts linecount,__zero_reg__
  48               	.LM5:
  49 003c 1092 0000 		sts raw_render,__zero_reg__
  50               	.LM6:
  51 0040 1092 0000 		sts y_line_render,__zero_reg__
  52               	.L2:
  53               	.LM7:
  54 0044 8091 0000 		lds r24,linecount
  55 0048 9091 0000 		lds r25,(linecount)+1
  56 004c 0A97      		sbiw r24,10
  57 004e 01F0      		breq .L3
  58 0050 8091 0000 		lds r24,linecount
  59 0054 9091 0000 		lds r25,(linecount)+1
  60 0058 0B97      		sbiw r24,11
  61 005a 01F4      		brne .L4
  62               	.L3:
  63               	.LM8:
  64 005c 12BA      		out 50-32,__zero_reg__
  65 005e 00C0      		rjmp .L5
  66               	.L4:
  67               	.LM9:
  68 0060 84E0      		ldi r24,lo8(4)
  69 0062 82BB      		out 50-32,r24
  70               	.L5:
  71               	.LM10:
  72 0064 81E0      		ldi r24,lo8(1)
  73 0066 8093 0000 		sts video_enable_flg,r24
  74               	.LM11:
  75 006a 8091 0000 		lds r24,linecount
  76 006e 9091 0000 		lds r25,(linecount)+1
  77 0072 8D97      		sbiw r24,45
  78 0074 00F4      		brsh .L6
  79               	.LM12:
  80 0076 1092 0000 		sts video_enable_flg,__zero_reg__
  81               	.LM13:
  82               	/* #APP */
  83               	 ;  98 "main.c" 1
  84 007a 0000      		nop
  85               	 ;  0 "" 2
  86               	.LM14:
  87               	 ;  99 "main.c" 1
  88 007c 0000      		nop
  89               	 ;  0 "" 2
  90               	.LM15:
  91               	 ;  100 "main.c" 1
  92 007e 0000      		nop
  93               	 ;  0 "" 2
  94               	.LM16:
  95               	 ;  101 "main.c" 1
  96 0080 0000      		nop
  97               	 ;  0 "" 2
  98               	.LM17:
  99               	 ;  102 "main.c" 1
 100 0082 0000      		nop
 101               	 ;  0 "" 2
 102               	.LM18:
 103               	 ;  103 "main.c" 1
 104 0084 0000      		nop
 105               	 ;  0 "" 2
 106               	.LM19:
 107               	 ;  104 "main.c" 1
 108 0086 0000      		nop
 109               	 ;  0 "" 2
 110               	.LM20:
 111               	 ;  105 "main.c" 1
 112 0088 0000      		nop
 113               	 ;  0 "" 2
 114               	.LM21:
 115               	 ;  106 "main.c" 1
 116 008a 0000      		nop
 117               	 ;  0 "" 2
 118               	.LM22:
 119               	 ;  107 "main.c" 1
 120 008c 0000      		nop
 121               	 ;  0 "" 2
 122               	.LM23:
 123               	 ;  108 "main.c" 1
 124 008e 0000      		nop
 125               	 ;  0 "" 2
 126               	.LM24:
 127               	 ;  109 "main.c" 1
 128 0090 0000      		nop
 129               	 ;  0 "" 2
 130               	.LM25:
 131               	 ;  110 "main.c" 1
 132 0092 0000      		nop
 133               	 ;  0 "" 2
 134               	.LM26:
 135               	 ;  111 "main.c" 1
 136 0094 0000      		nop
 137               	 ;  0 "" 2
 138               	.LM27:
 139               	 ;  112 "main.c" 1
 140 0096 0000      		nop
 141               	 ;  0 "" 2
 142               	/* #NOAPP */
 143 0098 00C0      		rjmp .L7
 144               	.L6:
 145               	.LM28:
 146 009a 8091 0000 		lds r24,y_line_render
 147 009e 8F5F      		subi r24,lo8(-(1))
 148 00a0 8093 0000 		sts y_line_render,r24
 149 00a4 8091 0000 		lds r24,y_line_render
 150 00a8 8831      		cpi r24,lo8(24)
 151 00aa 01F4      		brne .L8
 152               	.LM29:
 153 00ac 8091 0000 		lds r24,raw_render
 154 00b0 8F5F      		subi r24,lo8(-(1))
 155 00b2 8093 0000 		sts raw_render,r24
 156               	.LM30:
 157 00b6 1092 0000 		sts y_line_render,__zero_reg__
 158 00ba 00C0      		rjmp .L7
 159               	.L8:
 160               	.LM31:
 161               	/* #APP */
 162               	 ;  125 "main.c" 1
 163 00bc 0000      		nop
 164               	 ;  0 "" 2
 165               	.LM32:
 166               	 ;  126 "main.c" 1
 167 00be 0000      		nop
 168               	 ;  0 "" 2
 169               	.LM33:
 170               	 ;  127 "main.c" 1
 171 00c0 0000      		nop
 172               	 ;  0 "" 2
 173               	.LM34:
 174               	 ;  128 "main.c" 1
 175 00c2 0000      		nop
 176               	 ;  0 "" 2
 177               	.LM35:
 178               	 ;  129 "main.c" 1
 179 00c4 0000      		nop
 180               	 ;  0 "" 2
 181               	.LM36:
 182               	 ;  130 "main.c" 1
 183 00c6 0000      		nop
 184               	 ;  0 "" 2
 185               	.LM37:
 186               	 ;  131 "main.c" 1
 187 00c8 0000      		nop
 188               	 ;  0 "" 2
 189               	.LM38:
 190               	 ;  132 "main.c" 1
 191 00ca 0000      		nop
 192               	 ;  0 "" 2
 193               	/* #NOAPP */
 194               	.L7:
 195               	.LM39:
 196 00cc 939A      		sbi 50-32,3
 197               	/* epilogue start */
 198               	.LM40:
 199 00ce 9F91      		pop r25
 200 00d0 8F91      		pop r24
 201 00d2 2F91      		pop r18
 202 00d4 0F90      		pop r0
 203 00d6 0FBE      		out __SREG__,r0
 204 00d8 0F90      		pop r0
 205 00da 1F90      		pop __zero_reg__
 206 00dc 1895      		reti
 207               	.LFE3:
 209               	.global	__vector_6
 211               	__vector_6:
 212               	.LFB4:
 213               	.LM41:
 214 00de 1F92      		push __zero_reg__
 215 00e0 0F92      		push r0
 216 00e2 0FB6      		in r0,__SREG__
 217 00e4 0F92      		push r0
 218 00e6 1124      		clr __zero_reg__
 219 00e8 2F93      		push r18
 220 00ea 8F93      		push r24
 221 00ec 9F93      		push r25
 222               	/* prologue: Signal */
 223               	/* frame size = 0 */
 224               	.LM42:
 225 00ee 8091 0000 		lds r24,linecount
 226 00f2 9091 0000 		lds r25,(linecount)+1
 227 00f6 0196      		adiw r24,1
 228 00f8 9093 0000 		sts (linecount)+1,r25
 229 00fc 8093 0000 		sts linecount,r24
 230 0100 8091 0000 		lds r24,linecount
 231 0104 9091 0000 		lds r25,(linecount)+1
 232 0108 8853      		subi r24,lo8(312)
 233 010a 9140      		sbci r25,hi8(312)
 234 010c 01F4      		brne .L11
 235               	.LM43:
 236 010e 1092 0000 		sts (linecount)+1,__zero_reg__
 237 0112 1092 0000 		sts linecount,__zero_reg__
 238               	.LM44:
 239 0116 1092 0000 		sts raw_render,__zero_reg__
 240               	.LM45:
 241 011a 1092 0000 		sts y_line_render,__zero_reg__
 242               	.L11:
 243               	.LM46:
 244 011e 8091 0000 		lds r24,linecount
 245 0122 9091 0000 		lds r25,(linecount)+1
 246 0126 8253      		subi r24,lo8(306)
 247 0128 9140      		sbci r25,hi8(306)
 248 012a 00F0      		brlo .L12
 249 012c 8091 0000 		lds r24,linecount
 250 0130 9091 0000 		lds r25,(linecount)+1
 251 0134 8553      		subi r24,lo8(309)
 252 0136 9140      		sbci r25,hi8(309)
 253 0138 00F4      		brsh .L12
 254               	.LBB18:
 255               	.LM47:
 256 013a A89A      		sbi 53-32,0
 257 013c 8FE0      		ldi r24,lo8(15)
 258               	.LVL0:
 259 013e 00C0      		rjmp .L13
 260               	.L14:
 261               	.LM48:
 262               	/* #APP */
 263               	 ;  166 "main.c" 1
 264 0140 0000      		nop
 265               	 ;  0 "" 2
 266               	/* #NOAPP */
 267               	.L13:
 268               	.LM49:
 269 0142 8150      		subi r24,lo8(-(-1))
 270 0144 01F4      		brne .L14
 271               	.LM50:
 272 0146 A898      		cbi 53-32,0
 273 0148 00C0      		rjmp .L15
 274               	.LVL1:
 275               	.L12:
 276               	.LBE18:
 277               	.LBB19:
 278               	.LM51:
 279 014a A898      		cbi 53-32,0
 280 014c 8EE1      		ldi r24,lo8(30)
 281               	.LVL2:
 282 014e 00C0      		rjmp .L16
 283               	.L17:
 284               	.LM52:
 285               	/* #APP */
 286               	 ;  176 "main.c" 1
 287 0150 0000      		nop
 288               	 ;  0 "" 2
 289               	/* #NOAPP */
 290               	.L16:
 291               	.LM53:
 292 0152 8150      		subi r24,lo8(-(-1))
 293 0154 01F4      		brne .L17
 294               	.LM54:
 295 0156 A89A      		sbi 53-32,0
 296               	.LVL3:
 297               	.L15:
 298               	.LBE19:
 299               	.LM55:
 300 0158 81E0      		ldi r24,lo8(1)
 301               	.LVL4:
 302 015a 8093 0000 		sts video_enable_flg,r24
 303               	.LM56:
 304 015e 8091 0000 		lds r24,linecount
 305 0162 9091 0000 		lds r25,(linecount)+1
 306 0166 8897      		sbiw r24,40
 307 0168 00F0      		brlo .L18
 308 016a 8091 0000 		lds r24,linecount
 309 016e 9091 0000 		lds r25,(linecount)+1
 310 0172 8751      		subi r24,lo8(279)
 311 0174 9140      		sbci r25,hi8(279)
 312 0176 00F0      		brlo .L19
 313               	.L18:
 314               	.LM57:
 315 0178 1092 0000 		sts video_enable_flg,__zero_reg__
 316               	.LM58:
 317               	/* #APP */
 318               	 ;  187 "main.c" 1
 319 017c 0000      		nop
 320               	 ;  0 "" 2
 321               	.LM59:
 322               	 ;  188 "main.c" 1
 323 017e 0000      		nop
 324               	 ;  0 "" 2
 325               	.LM60:
 326               	 ;  189 "main.c" 1
 327 0180 0000      		nop
 328               	 ;  0 "" 2
 329               	.LM61:
 330               	 ;  190 "main.c" 1
 331 0182 0000      		nop
 332               	 ;  0 "" 2
 333               	.LM62:
 334               	 ;  191 "main.c" 1
 335 0184 0000      		nop
 336               	 ;  0 "" 2
 337               	.LM63:
 338               	 ;  192 "main.c" 1
 339 0186 0000      		nop
 340               	 ;  0 "" 2
 341               	.LM64:
 342               	 ;  193 "main.c" 1
 343 0188 0000      		nop
 344               	 ;  0 "" 2
 345               	.LM65:
 346               	 ;  194 "main.c" 1
 347 018a 0000      		nop
 348               	 ;  0 "" 2
 349               	.LM66:
 350               	 ;  195 "main.c" 1
 351 018c 0000      		nop
 352               	 ;  0 "" 2
 353               	.LM67:
 354               	 ;  196 "main.c" 1
 355 018e 0000      		nop
 356               	 ;  0 "" 2
 357               	.LM68:
 358               	 ;  197 "main.c" 1
 359 0190 0000      		nop
 360               	 ;  0 "" 2
 361               	.LM69:
 362               	 ;  198 "main.c" 1
 363 0192 0000      		nop
 364               	 ;  0 "" 2
 365               	.LM70:
 366               	 ;  199 "main.c" 1
 367 0194 0000      		nop
 368               	 ;  0 "" 2
 369               	.LM71:
 370               	 ;  200 "main.c" 1
 371 0196 0000      		nop
 372               	 ;  0 "" 2
 373               	.LM72:
 374               	 ;  201 "main.c" 1
 375 0198 0000      		nop
 376               	 ;  0 "" 2
 377               	/* #NOAPP */
 378 019a 00C0      		rjmp .L22
 379               	.L19:
 380               	.LM73:
 381 019c 8091 0000 		lds r24,y_line_render
 382 01a0 8F5F      		subi r24,lo8(-(1))
 383 01a2 8093 0000 		sts y_line_render,r24
 384 01a6 8091 0000 		lds r24,y_line_render
 385 01aa 8C30      		cpi r24,lo8(12)
 386 01ac 01F4      		brne .L21
 387               	.LM74:
 388 01ae 8091 0000 		lds r24,raw_render
 389 01b2 8F5F      		subi r24,lo8(-(1))
 390 01b4 8093 0000 		sts raw_render,r24
 391               	.LM75:
 392 01b8 1092 0000 		sts y_line_render,__zero_reg__
 393 01bc 00C0      		rjmp .L22
 394               	.L21:
 395               	.LM76:
 396               	/* #APP */
 397               	 ;  213 "main.c" 1
 398 01be 0000      		nop
 399               	 ;  0 "" 2
 400               	.LM77:
 401               	 ;  214 "main.c" 1
 402 01c0 0000      		nop
 403               	 ;  0 "" 2
 404               	.LM78:
 405               	 ;  215 "main.c" 1
 406 01c2 0000      		nop
 407               	 ;  0 "" 2
 408               	.LM79:
 409               	 ;  216 "main.c" 1
 410 01c4 0000      		nop
 411               	 ;  0 "" 2
 412               	.LM80:
 413               	 ;  217 "main.c" 1
 414 01c6 0000      		nop
 415               	 ;  0 "" 2
 416               	.LM81:
 417               	 ;  218 "main.c" 1
 418 01c8 0000      		nop
 419               	 ;  0 "" 2
 420               	.LM82:
 421               	 ;  219 "main.c" 1
 422 01ca 0000      		nop
 423               	 ;  0 "" 2
 424               	.LM83:
 425               	 ;  220 "main.c" 1
 426 01cc 0000      		nop
 427               	 ;  0 "" 2
 428               	/* #NOAPP */
 429               	.L22:
 430               	/* epilogue start */
 431               	.LM84:
 432 01ce 9F91      		pop r25
 433 01d0 8F91      		pop r24
 434 01d2 2F91      		pop r18
 435 01d4 0F90      		pop r0
 436 01d6 0FBE      		out __SREG__,r0
 437 01d8 0F90      		pop r0
 438 01da 1F90      		pop __zero_reg__
 439 01dc 1895      		reti
 440               	.LFE4:
 442               	.global	spi_init
 444               	spi_init:
 445               	.LFB5:
 446               	.LM85:
 447               	/* prologue: function */
 448               	/* frame size = 0 */
 449               	.LM86:
 450 01de BF9A      		sbi 55-32,7
 451               	.LM87:
 452 01e0 BE98      		cbi 55-32,6
 453               	.LM88:
 454 01e2 BD9A      		sbi 55-32,5
 455               	.LM89:
 456 01e4 BC9A      		sbi 55-32,4
 457               	.LM90:
 458 01e6 81E0      		ldi r24,lo8(1)
 459 01e8 8EB9      		out 46-32,r24
 460               	.LM91:
 461 01ea 80E5      		ldi r24,lo8(80)
 462 01ec 8DB9      		out 45-32,r24
 463               	/* epilogue start */
 464               	.LM92:
 465 01ee 0895      		ret
 466               	.LFE5:
 468               	.global	vga_render
 470               	vga_render:
 471               	.LFB10:
 472               	.LM93:
 473 01f0 CF92      		push r12
 474 01f2 DF92      		push r13
 475 01f4 EF92      		push r14
 476 01f6 FF92      		push r15
 477 01f8 0F93      		push r16
 478 01fa 1F93      		push r17
 479 01fc CF93      		push r28
 480 01fe DF93      		push r29
 481               	/* prologue: function */
 482               	/* frame size = 0 */
 483               	.LM94:
 484 0200 80E0      		ldi r24,lo8(str_array+360)
 485 0202 90E0      		ldi r25,hi8(str_array+360)
 486 0204 60E0      		ldi r22,lo8(str2)
 487 0206 70E0      		ldi r23,hi8(str2)
 488 0208 0E94 0000 		call strcpy_P
 489               	.LM95:
 490 020c 80E0      		ldi r24,lo8(str_array+380)
 491 020e 90E0      		ldi r25,hi8(str_array+380)
 492 0210 60E0      		ldi r22,lo8(str3)
 493 0212 70E0      		ldi r23,hi8(str3)
 494 0214 0E94 0000 		call strcpy_P
 495               	.LM96:
 496               	/* #APP */
 497               	 ;  530 "main.c" 1
 498 0218 7894      		sei
 499               	 ;  0 "" 2
 500               	/* #NOAPP */
 501 021a C091 0000 		lds r28,framecount.1687
 502 021e D091 0000 		lds r29,(framecount.1687)+1
 503               	.LBB20:
 504               	.LBB21:
 505               	.LBB22:
 506               	.LM97:
 507 0222 04E1      		ldi r16,lo8(20)
 508 0224 10E0      		ldi r17,hi8(20)
 509               	.LBE22:
 510               	.LBE21:
 511               	.LBE20:
 512               	.LBB26:
 513               	.LM98:
 514 0226 3FE7      		ldi r19,lo8(127)
 515 0228 C32E      		mov r12,r19
 516               	.LM99:
 517 022a 20E2      		ldi r18,lo8(32)
 518 022c E22E      		mov r14,r18
 519               	.LBE26:
 520               	.LM100:
 521 022e 94E1      		ldi r25,lo8(20)
 522 0230 D92E      		mov r13,r25
 523               	.LBB27:
 524               	.LM101:
 525 0232 4CE0      		ldi r20,lo8(12)
 526               	.LBE27:
 527               	.LM102:
 528 0234 80EB      		ldi r24,lo8(-80)
 529 0236 F82E      		mov r15,r24
 530               	.LM103:
 531 0238 30E9      		ldi r19,lo8(-112)
 532               	.LVL5:
 533               	.L48:
 534               	.LM104:
 535 023a 85B7      		in r24,85-32
 536               	.LVL6:
 537 023c 8064      		ori r24,lo8(64)
 538 023e 85BF      		out 85-32,r24
 539               	/* #APP */
 540               	 ;  536 "main.c" 1
 541 0240 8895      		sleep
 542               		
 543               	 ;  0 "" 2
 544               	/* #NOAPP */
 545 0242 85B7      		in r24,85-32
 546 0244 8F7B      		andi r24,lo8(-65)
 547 0246 85BF      		out 85-32,r24
 548               	.LM105:
 549 0248 5F9B      		sbis 43-32,7
 550 024a 00C0      		rjmp .L46
 551 024c 00C0      		rjmp .L45
 552               	.L35:
 553               	.LBB28:
 554               	.LBB25:
 555               	.LBB24:
 556               	.LM106:
 557 024e 2CB1      		in r18,44-32
 558               	.LVL7:
 559               	.LM107:
 560 0250 8091 0000 		lds r24,current_symbol
 561 0254 9091 0000 		lds r25,(current_symbol)+1
 562 0258 8059      		subi r24,lo8(400)
 563 025a 9140      		sbci r25,hi8(400)
 564 025c 01F4      		brne .L28
 565 025e 80E0      		ldi r24,lo8(0)
 566 0260 90E0      		ldi r25,hi8(0)
 567 0262 00C0      		rjmp .L29
 568               	.L30:
 569               	.LBB23:
 570               	.LM108:
 571 0264 FC01      		movw r30,r24
 572               	.LVL8:
 573 0266 E050      		subi r30,lo8(-(str_array))
 574 0268 F040      		sbci r31,hi8(-(str_array))
 575 026a 7497      		sbiw r30,20
 576 026c 1192      		st Z+,__zero_reg__
 577               	.LM109:
 578 026e 1192      		st Z+,__zero_reg__
 579               	.LM110:
 580 0270 1192      		st Z+,__zero_reg__
 581               	.LM111:
 582 0272 1192      		st Z+,__zero_reg__
 583               	.LM112:
 584 0274 1192      		st Z+,__zero_reg__
 585               	.LM113:
 586 0276 1192      		st Z+,__zero_reg__
 587               	.LM114:
 588 0278 1192      		st Z+,__zero_reg__
 589               	.LM115:
 590 027a 1192      		st Z+,__zero_reg__
 591               	.LM116:
 592 027c 1192      		st Z+,__zero_reg__
 593               	.LM117:
 594 027e 1192      		st Z+,__zero_reg__
 595               	.LM118:
 596 0280 1192      		st Z+,__zero_reg__
 597               	.LM119:
 598 0282 1192      		st Z+,__zero_reg__
 599               	.LM120:
 600 0284 1192      		st Z+,__zero_reg__
 601               	.LM121:
 602 0286 1192      		st Z+,__zero_reg__
 603               	.LM122:
 604 0288 1192      		st Z+,__zero_reg__
 605               	.LM123:
 606 028a 1192      		st Z+,__zero_reg__
 607               	.LM124:
 608 028c 1192      		st Z+,__zero_reg__
 609               	.LM125:
 610 028e 1192      		st Z+,__zero_reg__
 611               	.LM126:
 612 0290 1192      		st Z+,__zero_reg__
 613               	.LM127:
 614 0292 1082      		st Z,__zero_reg__
 615               	.LVL9:
 616               	.L29:
 617 0294 4496      		adiw r24,20
 618               	.LM128:
 619 0296 61E0      		ldi r22,hi8(420)
 620 0298 843A      		cpi r24,lo8(420)
 621 029a 9607      		cpc r25,r22
 622 029c 01F4      		brne .L30
 623               	.LM129:
 624 029e 1092 0000 		sts (current_symbol)+1,__zero_reg__
 625 02a2 1092 0000 		sts current_symbol,__zero_reg__
 626               	.L28:
 627               	.LBE23:
 628               	.LM130:
 629 02a6 2930      		cpi r18,lo8(9)
 630 02a8 01F0      		breq .L33
 631 02aa 2D30      		cpi r18,lo8(13)
 632 02ac 01F0      		breq .L34
 633 02ae 2830      		cpi r18,lo8(8)
 634 02b0 01F0      		breq .+2
 635 02b2 00C0      		rjmp .L47
 636               	.LM131:
 637 02b4 8091 0000 		lds r24,current_symbol
 638 02b8 9091 0000 		lds r25,(current_symbol)+1
 639 02bc 892B      		or r24,r25
 640 02be 01F4      		brne .+2
 641 02c0 00C0      		rjmp .L45
 642               	.LM132:
 643 02c2 E091 0000 		lds r30,current_symbol
 644 02c6 F091 0000 		lds r31,(current_symbol)+1
 645               	.LVL10:
 646 02ca E050      		subi r30,lo8(-(str_array))
 647 02cc F040      		sbci r31,hi8(-(str_array))
 648 02ce 1082      		st Z,__zero_reg__
 649               	.LM133:
 650 02d0 8091 0000 		lds r24,current_symbol
 651 02d4 9091 0000 		lds r25,(current_symbol)+1
 652 02d8 0197      		sbiw r24,1
 653 02da 9093 0000 		sts (current_symbol)+1,r25
 654 02de 8093 0000 		sts current_symbol,r24
 655 02e2 E091 0000 		lds r30,current_symbol
 656 02e6 F091 0000 		lds r31,(current_symbol)+1
 657 02ea E050      		subi r30,lo8(-(str_array))
 658 02ec F040      		sbci r31,hi8(-(str_array))
 659 02ee 1082      		st Z,__zero_reg__
 660 02f0 00C0      		rjmp .L45
 661               	.LVL11:
 662               	.L33:
 663               	.LM134:
 664 02f2 8091 0000 		lds r24,current_symbol
 665 02f6 9091 0000 		lds r25,(current_symbol)+1
 666 02fa 0596      		adiw r24,5
 667 02fc 8059      		subi r24,lo8(400)
 668 02fe 9140      		sbci r25,hi8(400)
 669 0300 00F4      		brsh .L45
 670               	.LM135:
 671 0302 E091 0000 		lds r30,current_symbol
 672 0306 F091 0000 		lds r31,(current_symbol)+1
 673               	.LVL12:
 674 030a E050      		subi r30,lo8(-(str_array))
 675 030c F040      		sbci r31,hi8(-(str_array))
 676 030e 1082      		st Z,__zero_reg__
 677               	.LM136:
 678 0310 8091 0000 		lds r24,current_symbol
 679 0314 9091 0000 		lds r25,(current_symbol)+1
 680 0318 0596      		adiw r24,5
 681 031a 00C0      		rjmp .L49
 682               	.LVL13:
 683               	.L34:
 684               	.LM137:
 685 031c 8091 0000 		lds r24,current_symbol
 686 0320 9091 0000 		lds r25,(current_symbol)+1
 687 0324 64E1      		ldi r22,lo8(20)
 688 0326 70E0      		ldi r23,hi8(20)
 689 0328 0E94 0000 		call __udivmodhi4
 690               	.LVL14:
 691               	.LM138:
 692 032c 6331      		cpi r22,lo8(19)
 693 032e 00F4      		brsh .L45
 694               	.LM139:
 695 0330 E091 0000 		lds r30,current_symbol
 696 0334 F091 0000 		lds r31,(current_symbol)+1
 697               	.LVL15:
 698 0338 E050      		subi r30,lo8(-(str_array))
 699 033a F040      		sbci r31,hi8(-(str_array))
 700 033c 1082      		st Z,__zero_reg__
 701               	.LM140:
 702 033e 862F      		mov r24,r22
 703               	.LVL16:
 704 0340 90E0      		ldi r25,lo8(0)
 705               	.LVL17:
 706 0342 0196      		adiw r24,1
 707               	.LVL18:
 708 0344 BC01      		movw r22,r24
 709 0346 609F      		mul r22,r16
 710 0348 C001      		movw r24,r0
 711 034a 619F      		mul r22,r17
 712 034c 900D      		add r25,r0
 713 034e 709F      		mul r23,r16
 714 0350 900D      		add r25,r0
 715 0352 1124      		clr r1
 716               	.LVL19:
 717 0354 00C0      		rjmp .L49
 718               	.LVL20:
 719               	.L47:
 720               	.LM141:
 721 0356 8091 0000 		lds r24,current_symbol
 722 035a 9091 0000 		lds r25,(current_symbol)+1
 723 035e FC01      		movw r30,r24
 724               	.LVL21:
 725 0360 E050      		subi r30,lo8(-(str_array))
 726 0362 F040      		sbci r31,hi8(-(str_array))
 727 0364 2083      		st Z,r18
 728 0366 0196      		adiw r24,1
 729               	.L49:
 730 0368 9093 0000 		sts (current_symbol)+1,r25
 731 036c 8093 0000 		sts current_symbol,r24
 732               	.LVL22:
 733               	.L45:
 734               	.LBE24:
 735               	.LM142:
 736 0370 5F99      		sbic 43-32,7
 737 0372 00C0      		rjmp .L35
 738 0374 00C0      		rjmp .L48
 739               	.L46:
 740               	.LBE25:
 741               	.LBE28:
 742               	.LM143:
 743 0376 8091 0000 		lds r24,video_enable_flg
 744 037a 8823      		tst r24
 745 037c 01F0      		breq .L37
 746               	.LM144:
 747 037e 8091 0000 		lds r24,raw_render
 748 0382 8D9D      		mul r24,r13
 749 0384 D001      		movw r26,r0
 750 0386 1124      		clr r1
 751 0388 A050      		subi r26,lo8(-(str_array))
 752 038a B040      		sbci r27,hi8(-(str_array))
 753               	.LM145:
 754 038c 8091 0000 		lds r24,y_line_render
 755 0390 8695      		lsr r24
 756 0392 90E0      		ldi r25,lo8(0)
 757               	.LVL23:
 758 0394 8050      		subi r24,lo8(-(symbol))
 759 0396 9040      		sbci r25,hi8(-(symbol))
 760               	.LVL24:
 761 0398 24E1      		ldi r18,lo8(20)
 762               	.LVL25:
 763 039a 00C0      		rjmp .L38
 764               	.L39:
 765               	.LBB29:
 766               	.LM146:
 767 039c ED91      		ld r30,X+
 768               	.LVL26:
 769 039e E49F      		mul r30,r20
 770 03a0 F001      		movw r30,r0
 771 03a2 1124      		clr r1
 772 03a4 E80F      		add r30,r24
 773 03a6 F91F      		adc r31,r25
 774               	/* #APP */
 775               	 ;  561 "main.c" 1
 776 03a8 E491      		lpm r30, Z
 777               		
 778               	 ;  0 "" 2
 779               	.LVL27:
 780               	/* #NOAPP */
 781               	.LBE29:
 782 03aa EFB9      		out 47-32,r30
 783               	.LM147:
 784 03ac F7BA      		out 55-32,r15
 785               	.LM148:
 786               	/* #APP */
 787               	 ;  564 "main.c" 1
 788 03ae 0000      		nop
 789               	 ;  0 "" 2
 790               	.LM149:
 791               	 ;  565 "main.c" 1
 792 03b0 0000      		nop
 793               	 ;  0 "" 2
 794               	/* #NOAPP */
 795               	.L38:
 796               	.LM150:
 797 03b2 2150      		subi r18,1
 798 03b4 00F4      		brcc .L39
 799               	.LM151:
 800               	/* #APP */
 801               	 ;  568 "main.c" 1
 802 03b6 0000      		nop
 803               	 ;  0 "" 2
 804               	.LM152:
 805               	 ;  569 "main.c" 1
 806 03b8 0000      		nop
 807               	 ;  0 "" 2
 808               	.LM153:
 809               	 ;  570 "main.c" 1
 810 03ba 0000      		nop
 811               	 ;  0 "" 2
 812               	.LM154:
 813               	 ;  571 "main.c" 1
 814 03bc 0000      		nop
 815               	 ;  0 "" 2
 816               	.LM155:
 817               	 ;  572 "main.c" 1
 818 03be 0000      		nop
 819               	 ;  0 "" 2
 820               	.LM156:
 821               	 ;  573 "main.c" 1
 822 03c0 0000      		nop
 823               	 ;  0 "" 2
 824               	.LM157:
 825               	/* #NOAPP */
 826 03c2 37BB      		out 55-32,r19
 827 03c4 00C0      		rjmp .L48
 828               	.LVL28:
 829               	.L37:
 830               	.LBB30:
 831               	.LM158:
 832 03c6 2196      		adiw r28,1
 833               	.LM159:
 834 03c8 D3FF      		sbrs r29,3
 835 03ca 00C0      		rjmp .L40
 836               	.LM160:
 837 03cc E091 0000 		lds r30,current_symbol
 838 03d0 F091 0000 		lds r31,(current_symbol)+1
 839               	.LVL29:
 840 03d4 E050      		subi r30,lo8(-(str_array))
 841 03d6 F040      		sbci r31,hi8(-(str_array))
 842 03d8 E082      		st Z,r14
 843 03da 00C0      		rjmp .L48
 844               	.LVL30:
 845               	.L40:
 846               	.LM161:
 847 03dc E091 0000 		lds r30,current_symbol
 848 03e0 F091 0000 		lds r31,(current_symbol)+1
 849               	.LVL31:
 850 03e4 E050      		subi r30,lo8(-(str_array))
 851 03e6 F040      		sbci r31,hi8(-(str_array))
 852 03e8 C082      		st Z,r12
 853 03ea 00C0      		rjmp .L48
 854               	.LBE30:
 855               	.LFE10:
 857               	.global	pal_render
 859               	pal_render:
 860               	.LFB8:
 861               	.LM162:
 862 03ec CF92      		push r12
 863 03ee DF92      		push r13
 864 03f0 EF92      		push r14
 865 03f2 FF92      		push r15
 866 03f4 0F93      		push r16
 867 03f6 1F93      		push r17
 868 03f8 CF93      		push r28
 869 03fa DF93      		push r29
 870               	/* prologue: function */
 871               	/* frame size = 0 */
 872               	.LM163:
 873 03fc 80E0      		ldi r24,lo8(str_array+722)
 874 03fe 90E0      		ldi r25,hi8(str_array+722)
 875 0400 60E0      		ldi r22,lo8(str1)
 876 0402 70E0      		ldi r23,hi8(str1)
 877 0404 0E94 0000 		call strcpy_P
 878               	.LM164:
 879               	/* #APP */
 880               	 ;  367 "main.c" 1
 881 0408 7894      		sei
 882               	 ;  0 "" 2
 883               	/* #NOAPP */
 884 040a C091 0000 		lds r28,framecount.1598
 885 040e D091 0000 		lds r29,(framecount.1598)+1
 886               	.LBB37:
 887               	.LBB38:
 888               	.LBB39:
 889               	.LM165:
 890 0412 06E2      		ldi r16,lo8(38)
 891 0414 10E0      		ldi r17,hi8(38)
 892               	.LBE39:
 893               	.LBE38:
 894               	.LBE37:
 895               	.LBB43:
 896               	.LM166:
 897 0416 EFE7      		ldi r30,lo8(127)
 898 0418 CE2E      		mov r12,r30
 899               	.LM167:
 900 041a 70E2      		ldi r23,lo8(32)
 901 041c E72E      		mov r14,r23
 902               	.LBE43:
 903               	.LM168:
 904 041e 66E2      		ldi r22,lo8(38)
 905 0420 D62E      		mov r13,r22
 906               	.LM169:
 907 0422 30EB      		ldi r19,lo8(-80)
 908               	.LBB44:
 909               	.LM170:
 910 0424 4CE0      		ldi r20,lo8(12)
 911               	.LBE44:
 912               	.LM171:
 913 0426 50E9      		ldi r21,lo8(-112)
 914 0428 F52E      		mov r15,r21
 915               	.LVL32:
 916               	.L75:
 917               	.LM172:
 918 042a 85B7      		in r24,85-32
 919               	.LVL33:
 920 042c 8064      		ori r24,lo8(64)
 921 042e 85BF      		out 85-32,r24
 922               	/* #APP */
 923               	 ;  373 "main.c" 1
 924 0430 8895      		sleep
 925               		
 926               	 ;  0 "" 2
 927               	/* #NOAPP */
 928 0432 85B7      		in r24,85-32
 929 0434 8F7B      		andi r24,lo8(-65)
 930 0436 85BF      		out 85-32,r24
 931               	.LM173:
 932 0438 5F99      		sbic 43-32,7
 933 043a 00C0      		rjmp .L73
 934 043c 8EE0      		ldi r24,lo8(14)
 935               	.LVL34:
 936 043e 00C0      		rjmp .L52
 937               	.LVL35:
 938               	.L60:
 939               	.LBB45:
 940               	.LBB42:
 941               	.LBB41:
 942               	.LM174:
 943 0440 2CB1      		in r18,44-32
 944               	.LM175:
 945 0442 8091 0000 		lds r24,current_symbol
 946 0446 9091 0000 		lds r25,(current_symbol)+1
 947 044a 885F      		subi r24,lo8(760)
 948 044c 9240      		sbci r25,hi8(760)
 949 044e 01F4      		brne .L53
 950 0450 80E0      		ldi r24,lo8(0)
 951 0452 90E0      		ldi r25,hi8(0)
 952 0454 00C0      		rjmp .L54
 953               	.L55:
 954               	.LBB40:
 955               	.LM176:
 956 0456 FC01      		movw r30,r24
 957               	.LVL36:
 958 0458 E050      		subi r30,lo8(-(str_array))
 959 045a F040      		sbci r31,hi8(-(str_array))
 960 045c B697      		sbiw r30,38
 961 045e 1192      		st Z+,__zero_reg__
 962               	.LM177:
 963 0460 1192      		st Z+,__zero_reg__
 964               	.LM178:
 965 0462 1192      		st Z+,__zero_reg__
 966               	.LM179:
 967 0464 1192      		st Z+,__zero_reg__
 968               	.LM180:
 969 0466 1192      		st Z+,__zero_reg__
 970               	.LM181:
 971 0468 1192      		st Z+,__zero_reg__
 972               	.LM182:
 973 046a 1192      		st Z+,__zero_reg__
 974               	.LM183:
 975 046c 1192      		st Z+,__zero_reg__
 976               	.LM184:
 977 046e 1192      		st Z+,__zero_reg__
 978               	.LM185:
 979 0470 1192      		st Z+,__zero_reg__
 980               	.LM186:
 981 0472 1192      		st Z+,__zero_reg__
 982               	.LM187:
 983 0474 1192      		st Z+,__zero_reg__
 984               	.LM188:
 985 0476 1192      		st Z+,__zero_reg__
 986               	.LM189:
 987 0478 1192      		st Z+,__zero_reg__
 988               	.LM190:
 989 047a 1192      		st Z+,__zero_reg__
 990               	.LM191:
 991 047c 1192      		st Z+,__zero_reg__
 992               	.LM192:
 993 047e 1192      		st Z+,__zero_reg__
 994               	.LM193:
 995 0480 1192      		st Z+,__zero_reg__
 996               	.LM194:
 997 0482 1192      		st Z+,__zero_reg__
 998               	.LM195:
 999 0484 1192      		st Z+,__zero_reg__
 1000               	.LM196:
 1001 0486 1192      		st Z+,__zero_reg__
 1002               	.LM197:
 1003 0488 1192      		st Z+,__zero_reg__
 1004               	.LM198:
 1005 048a 1192      		st Z+,__zero_reg__
 1006               	.LM199:
 1007 048c 1192      		st Z+,__zero_reg__
 1008               	.LM200:
 1009 048e 1192      		st Z+,__zero_reg__
 1010               	.LM201:
 1011 0490 1192      		st Z+,__zero_reg__
 1012               	.LM202:
 1013 0492 1192      		st Z+,__zero_reg__
 1014               	.LM203:
 1015 0494 1192      		st Z+,__zero_reg__
 1016               	.LM204:
 1017 0496 1192      		st Z+,__zero_reg__
 1018               	.LM205:
 1019 0498 1192      		st Z+,__zero_reg__
 1020               	.LM206:
 1021 049a 1192      		st Z+,__zero_reg__
 1022               	.LM207:
 1023 049c 1192      		st Z+,__zero_reg__
 1024               	.LM208:
 1025 049e 1192      		st Z+,__zero_reg__
 1026               	.LM209:
 1027 04a0 1192      		st Z+,__zero_reg__
 1028               	.LM210:
 1029 04a2 1192      		st Z+,__zero_reg__
 1030               	.LM211:
 1031 04a4 1192      		st Z+,__zero_reg__
 1032               	.LM212:
 1033 04a6 1192      		st Z+,__zero_reg__
 1034               	.LM213:
 1035 04a8 1082      		st Z,__zero_reg__
 1036               	.LVL37:
 1037               	.L54:
 1038 04aa 8696      		adiw r24,38
 1039               	.LM214:
 1040 04ac 63E0      		ldi r22,hi8(798)
 1041 04ae 8E31      		cpi r24,lo8(798)
 1042 04b0 9607      		cpc r25,r22
 1043 04b2 01F4      		brne .L55
 1044               	.LM215:
 1045 04b4 1092 0000 		sts (current_symbol)+1,__zero_reg__
 1046 04b8 1092 0000 		sts current_symbol,__zero_reg__
 1047               	.L53:
 1048               	.LBE40:
 1049               	.LM216:
 1050 04bc 2930      		cpi r18,lo8(9)
 1051 04be 01F0      		breq .L58
 1052 04c0 2D30      		cpi r18,lo8(13)
 1053 04c2 01F0      		breq .L59
 1054 04c4 2830      		cpi r18,lo8(8)
 1055 04c6 01F0      		breq .+2
 1056 04c8 00C0      		rjmp .L74
 1057               	.LM217:
 1058 04ca 8091 0000 		lds r24,current_symbol
 1059 04ce 9091 0000 		lds r25,(current_symbol)+1
 1060 04d2 892B      		or r24,r25
 1061 04d4 01F4      		brne .+2
 1062 04d6 00C0      		rjmp .L73
 1063               	.LM218:
 1064 04d8 E091 0000 		lds r30,current_symbol
 1065 04dc F091 0000 		lds r31,(current_symbol)+1
 1066               	.LVL38:
 1067 04e0 E050      		subi r30,lo8(-(str_array))
 1068 04e2 F040      		sbci r31,hi8(-(str_array))
 1069 04e4 1082      		st Z,__zero_reg__
 1070               	.LM219:
 1071 04e6 8091 0000 		lds r24,current_symbol
 1072 04ea 9091 0000 		lds r25,(current_symbol)+1
 1073 04ee 0197      		sbiw r24,1
 1074 04f0 9093 0000 		sts (current_symbol)+1,r25
 1075 04f4 8093 0000 		sts current_symbol,r24
 1076 04f8 E091 0000 		lds r30,current_symbol
 1077 04fc F091 0000 		lds r31,(current_symbol)+1
 1078 0500 E050      		subi r30,lo8(-(str_array))
 1079 0502 F040      		sbci r31,hi8(-(str_array))
 1080 0504 1082      		st Z,__zero_reg__
 1081 0506 00C0      		rjmp .L73
 1082               	.LVL39:
 1083               	.L58:
 1084               	.LM220:
 1085 0508 8091 0000 		lds r24,current_symbol
 1086 050c 9091 0000 		lds r25,(current_symbol)+1
 1087 0510 0596      		adiw r24,5
 1088 0512 885F      		subi r24,lo8(760)
 1089 0514 9240      		sbci r25,hi8(760)
 1090 0516 00F4      		brsh .L73
 1091               	.LM221:
 1092 0518 E091 0000 		lds r30,current_symbol
 1093 051c F091 0000 		lds r31,(current_symbol)+1
 1094               	.LVL40:
 1095 0520 E050      		subi r30,lo8(-(str_array))
 1096 0522 F040      		sbci r31,hi8(-(str_array))
 1097 0524 1082      		st Z,__zero_reg__
 1098               	.LM222:
 1099 0526 8091 0000 		lds r24,current_symbol
 1100 052a 9091 0000 		lds r25,(current_symbol)+1
 1101 052e 0596      		adiw r24,5
 1102 0530 00C0      		rjmp .L76
 1103               	.LVL41:
 1104               	.L59:
 1105               	.LM223:
 1106 0532 8091 0000 		lds r24,current_symbol
 1107 0536 9091 0000 		lds r25,(current_symbol)+1
 1108 053a 66E2      		ldi r22,lo8(38)
 1109 053c 70E0      		ldi r23,hi8(38)
 1110 053e 0E94 0000 		call __udivmodhi4
 1111               	.LVL42:
 1112               	.LM224:
 1113 0542 6331      		cpi r22,lo8(19)
 1114 0544 00F4      		brsh .L73
 1115               	.LM225:
 1116 0546 E091 0000 		lds r30,current_symbol
 1117 054a F091 0000 		lds r31,(current_symbol)+1
 1118               	.LVL43:
 1119 054e E050      		subi r30,lo8(-(str_array))
 1120 0550 F040      		sbci r31,hi8(-(str_array))
 1121 0552 1082      		st Z,__zero_reg__
 1122               	.LM226:
 1123 0554 862F      		mov r24,r22
 1124               	.LVL44:
 1125 0556 90E0      		ldi r25,lo8(0)
 1126               	.LVL45:
 1127 0558 0196      		adiw r24,1
 1128               	.LVL46:
 1129 055a BC01      		movw r22,r24
 1130 055c 609F      		mul r22,r16
 1131 055e C001      		movw r24,r0
 1132 0560 619F      		mul r22,r17
 1133 0562 900D      		add r25,r0
 1134 0564 709F      		mul r23,r16
 1135 0566 900D      		add r25,r0
 1136 0568 1124      		clr r1
 1137               	.LVL47:
 1138 056a 00C0      		rjmp .L76
 1139               	.LVL48:
 1140               	.L74:
 1141               	.LM227:
 1142 056c 8091 0000 		lds r24,current_symbol
 1143 0570 9091 0000 		lds r25,(current_symbol)+1
 1144 0574 FC01      		movw r30,r24
 1145               	.LVL49:
 1146 0576 E050      		subi r30,lo8(-(str_array))
 1147 0578 F040      		sbci r31,hi8(-(str_array))
 1148 057a 2083      		st Z,r18
 1149 057c 0196      		adiw r24,1
 1150               	.L76:
 1151 057e 9093 0000 		sts (current_symbol)+1,r25
 1152 0582 8093 0000 		sts current_symbol,r24
 1153               	.LVL50:
 1154               	.L73:
 1155               	.LBE41:
 1156               	.LM228:
 1157 0586 5F99      		sbic 43-32,7
 1158 0588 00C0      		rjmp .L60
 1159 058a 00C0      		rjmp .L75
 1160               	.LVL51:
 1161               	.L62:
 1162               	.LBE42:
 1163               	.LBE45:
 1164               	.LM229:
 1165               	/* #APP */
 1166               	 ;  386 "main.c" 1
 1167 058c 0000      		nop
 1168               	 ;  0 "" 2
 1169               	/* #NOAPP */
 1170               	.L52:
 1171 058e 8150      		subi r24,1
 1172 0590 00F4      		brcc .L62
 1173               	.LM230:
 1174 0592 8091 0000 		lds r24,video_enable_flg
 1175               	.LVL52:
 1176 0596 8823      		tst r24
 1177 0598 01F0      		breq .L63
 1178               	.LM231:
 1179 059a 8091 0000 		lds r24,raw_render
 1180 059e 8D9D      		mul r24,r13
 1181 05a0 D001      		movw r26,r0
 1182 05a2 1124      		clr r1
 1183 05a4 A050      		subi r26,lo8(-(str_array))
 1184 05a6 B040      		sbci r27,hi8(-(str_array))
 1185               	.LM232:
 1186 05a8 8091 0000 		lds r24,y_line_render
 1187 05ac 90E0      		ldi r25,lo8(0)
 1188               	.LVL53:
 1189 05ae 8050      		subi r24,lo8(-(symbol))
 1190 05b0 9040      		sbci r25,hi8(-(symbol))
 1191               	.LVL54:
 1192               	.LM233:
 1193 05b2 37BB      		out 55-32,r19
 1194 05b4 26E2      		ldi r18,lo8(38)
 1195               	.LVL55:
 1196 05b6 00C0      		rjmp .L64
 1197               	.L65:
 1198               	.LBB46:
 1199               	.LM234:
 1200 05b8 ED91      		ld r30,X+
 1201               	.LVL56:
 1202 05ba E49F      		mul r30,r20
 1203 05bc F001      		movw r30,r0
 1204 05be 1124      		clr r1
 1205 05c0 E80F      		add r30,r24
 1206 05c2 F91F      		adc r31,r25
 1207               	/* #APP */
 1208               	 ;  403 "main.c" 1
 1209 05c4 E491      		lpm r30, Z
 1210               		
 1211               	 ;  0 "" 2
 1212               	.LVL57:
 1213               	/* #NOAPP */
 1214               	.LBE46:
 1215 05c6 EFB9      		out 47-32,r30
 1216               	.LM235:
 1217               	/* #APP */
 1218               	 ;  405 "main.c" 1
 1219 05c8 0000      		nop
 1220               	 ;  0 "" 2
 1221               	.LM236:
 1222               	 ;  406 "main.c" 1
 1223 05ca 0000      		nop
 1224               	 ;  0 "" 2
 1225               	.LM237:
 1226               	 ;  407 "main.c" 1
 1227 05cc 0000      		nop
 1228               	 ;  0 "" 2
 1229               	/* #NOAPP */
 1230               	.L64:
 1231               	.LM238:
 1232 05ce 2150      		subi r18,1
 1233 05d0 00F4      		brcc .L65
 1234 05d2 86E0      		ldi r24,lo8(6)
 1235               	.LVL58:
 1236 05d4 00C0      		rjmp .L66
 1237               	.L67:
 1238               	.LM239:
 1239               	/* #APP */
 1240               	 ;  411 "main.c" 1
 1241 05d6 0000      		nop
 1242               	 ;  0 "" 2
 1243               	/* #NOAPP */
 1244               	.L66:
 1245 05d8 8150      		subi r24,1
 1246 05da 00F4      		brcc .L67
 1247               	.LM240:
 1248 05dc F7BA      		out 55-32,r15
 1249 05de 00C0      		rjmp .L75
 1250               	.LVL59:
 1251               	.L63:
 1252               	.LBB47:
 1253               	.LM241:
 1254 05e0 2196      		adiw r28,1
 1255               	.LM242:
 1256 05e2 D3FF      		sbrs r29,3
 1257 05e4 00C0      		rjmp .L68
 1258               	.LM243:
 1259 05e6 E091 0000 		lds r30,current_symbol
 1260 05ea F091 0000 		lds r31,(current_symbol)+1
 1261               	.LVL60:
 1262 05ee E050      		subi r30,lo8(-(str_array))
 1263 05f0 F040      		sbci r31,hi8(-(str_array))
 1264 05f2 E082      		st Z,r14
 1265 05f4 00C0      		rjmp .L75
 1266               	.LVL61:
 1267               	.L68:
 1268               	.LM244:
 1269 05f6 E091 0000 		lds r30,current_symbol
 1270 05fa F091 0000 		lds r31,(current_symbol)+1
 1271               	.LVL62:
 1272 05fe E050      		subi r30,lo8(-(str_array))
 1273 0600 F040      		sbci r31,hi8(-(str_array))
 1274 0602 C082      		st Z,r12
 1275 0604 00C0      		rjmp .L75
 1276               	.LBE47:
 1277               	.LFE8:
 1279               	.global	main
 1281               	main:
 1282               	.LFB11:
 1283               	.LM245:
 1284               	/* prologue: function */
 1285               	/* frame size = 0 */
 1286               	.LBB48:
 1287               	.LBB49:
 1288               	.LM246:
 1289 0606 A198      		cbi 52-32,1
 1290               	.LM247:
 1291 0608 A99A      		sbi 53-32,1
 1292               	.LBB50:
 1293               	.LBB51:
 1294               	.LM248:
 1295 060a BF9A      		sbi 55-32,7
 1296               	.LM249:
 1297 060c BE98      		cbi 55-32,6
 1298               	.LM250:
 1299 060e BD9A      		sbi 55-32,5
 1300               	.LM251:
 1301 0610 BC9A      		sbi 55-32,4
 1302               	.LM252:
 1303 0612 91E0      		ldi r25,lo8(1)
 1304 0614 9EB9      		out 46-32,r25
 1305               	.LM253:
 1306 0616 80E5      		ldi r24,lo8(80)
 1307 0618 8DB9      		out 45-32,r24
 1308               	.LBE51:
 1309               	.LBE50:
 1310               	.LBB52:
 1311               	.LBB53:
 1312               	.LM254:
 1313 061a 1AB8      		out 42-32,__zero_reg__
 1314               	.LM255:
 1315 061c 1BB8      		out 43-32,__zero_reg__
 1316               	.LM256:
 1317 061e 86E8      		ldi r24,lo8(-122)
 1318 0620 80BD      		out 64-32,r24
 1319               	.LM257:
 1320 0622 83E3      		ldi r24,lo8(51)
 1321 0624 89B9      		out 41-32,r24
 1322               	.LM258:
 1323 0626 10BC      		out 64-32,__zero_reg__
 1324               	.LM259:
 1325 0628 20E1      		ldi r18,lo8(16)
 1326 062a 2AB9      		out 42-32,r18
 1327               	.LBE53:
 1328               	.LBE52:
 1329               	.LM260:
 1330 062c 85B7      		in r24,85-32
 1331 062e 8F74      		andi r24,lo8(79)
 1332 0630 85BF      		out 85-32,r24
 1333               	.LM261:
 1334 0632 9999      		sbic 51-32,1
 1335 0634 00C0      		rjmp .L78
 1336               	.LM262:
 1337 0636 A09A      		sbi 52-32,0
 1338               	.LM263:
 1339 0638 80E0      		ldi r24,lo8(1024)
 1340 063a 94E0      		ldi r25,hi8(1024)
 1341 063c 9BBD      		out (74)+1-32,r25
 1342 063e 8ABD      		out 74-32,r24
 1343               	.LM264:
 1344 0640 89E0      		ldi r24,lo8(9)
 1345 0642 8EBD      		out 78-32,r24
 1346               	.LM265:
 1347 0644 1FBC      		out 79-32,__zero_reg__
 1348               	.LM266:
 1349 0646 29BF      		out 89-32,r18
 1350 0648 00C0      		rjmp .L79
 1351               	.L78:
 1352               	.LM267:
 1353 064a 939A      		sbi 50-32,3
 1354               	.LM268:
 1355 064c 8B9A      		sbi 49-32,3
 1356               	.LM269:
 1357 064e 929A      		sbi 50-32,2
 1358               	.LM270:
 1359 0650 8A9A      		sbi 49-32,2
 1360               	.LM271:
 1361 0652 13BE      		out 83-32,__zero_reg__
 1362               	.LM272:
 1363 0654 83EC      		ldi r24,lo8(-61)
 1364 0656 82BF      		out 82-32,r24
 1365               	.LM273:
 1366 0658 82E0      		ldi r24,lo8(2)
 1367 065a 83BF      		out 83-32,r24
 1368               	.LM274:
 1369 065c 99BF      		out 89-32,r25
 1370               	.L79:
 1371               	.LBE49:
 1372               	.LBE48:
 1373               	.LM275:
 1374 065e 0E94 0000 		call pal_render
 1375               	.LM276:
 1376 0662 80E0      		ldi r24,lo8(0)
 1377 0664 90E0      		ldi r25,hi8(0)
 1378               	/* epilogue start */
 1379 0666 0895      		ret
 1380               	.LFE11:
 1382               	.global	symbol
 1383               		.section	.progmem.data,"a",@progbits
 1386               	symbol:
 1387 0000 00        		.byte	0
 1388 0001 00        		.byte	0
 1389 0002 00        		.byte	0
 1390 0003 00        		.byte	0
 1391 0004 00        		.byte	0
 1392 0005 00        		.byte	0
 1393 0006 00        		.byte	0
 1394 0007 00        		.byte	0
 1395 0008 00        		.byte	0
 1396 0009 00        		.byte	0
 1397 000a 00        		.byte	0
 1398 000b 00        		.byte	0
 1399 000c 00        		.byte	0
 1400 000d 00        		.byte	0
 1401 000e 00        		.byte	0
 1402 000f 00        		.byte	0
 1403 0010 00        		.byte	0
 1404 0011 00        		.byte	0
 1405 0012 00        		.byte	0
 1406 0013 00        		.byte	0
 1407 0014 00        		.byte	0
 1408 0015 00        		.byte	0
 1409 0016 00        		.byte	0
 1410 0017 00        		.byte	0
 1411 0018 00        		.byte	0
 1412 0019 00        		.byte	0
 1413 001a 00        		.byte	0
 1414 001b 00        		.byte	0
 1415 001c 00        		.byte	0
 1416 001d 00        		.byte	0
 1417 001e 00        		.byte	0
 1418 001f 00        		.byte	0
 1419 0020 00        		.byte	0
 1420 0021 00        		.byte	0
 1421 0022 00        		.byte	0
 1422 0023 00        		.byte	0
 1423 0024 00        		.byte	0
 1424 0025 00        		.byte	0
 1425 0026 00        		.byte	0
 1426 0027 00        		.byte	0
 1427 0028 00        		.byte	0
 1428 0029 00        		.byte	0
 1429 002a 00        		.byte	0
 1430 002b 00        		.byte	0
 1431 002c 00        		.byte	0
 1432 002d 00        		.byte	0
 1433 002e 00        		.byte	0
 1434 002f 00        		.byte	0
 1435 0030 00        		.byte	0
 1436 0031 00        		.byte	0
 1437 0032 00        		.byte	0
 1438 0033 00        		.byte	0
 1439 0034 00        		.byte	0
 1440 0035 00        		.byte	0
 1441 0036 00        		.byte	0
 1442 0037 00        		.byte	0
 1443 0038 00        		.byte	0
 1444 0039 00        		.byte	0
 1445 003a 00        		.byte	0
 1446 003b 00        		.byte	0
 1447 003c 00        		.byte	0
 1448 003d 00        		.byte	0
 1449 003e 00        		.byte	0
 1450 003f 00        		.byte	0
 1451 0040 00        		.byte	0
 1452 0041 00        		.byte	0
 1453 0042 00        		.byte	0
 1454 0043 00        		.byte	0
 1455 0044 00        		.byte	0
 1456 0045 00        		.byte	0
 1457 0046 00        		.byte	0
 1458 0047 00        		.byte	0
 1459 0048 00        		.byte	0
 1460 0049 00        		.byte	0
 1461 004a 00        		.byte	0
 1462 004b 00        		.byte	0
 1463 004c 00        		.byte	0
 1464 004d 00        		.byte	0
 1465 004e 00        		.byte	0
 1466 004f 00        		.byte	0
 1467 0050 00        		.byte	0
 1468 0051 00        		.byte	0
 1469 0052 00        		.byte	0
 1470 0053 00        		.byte	0
 1471 0054 00        		.byte	0
 1472 0055 00        		.byte	0
 1473 0056 00        		.byte	0
 1474 0057 00        		.byte	0
 1475 0058 00        		.byte	0
 1476 0059 00        		.byte	0
 1477 005a 00        		.byte	0
 1478 005b 00        		.byte	0
 1479 005c 00        		.byte	0
 1480 005d 00        		.byte	0
 1481 005e 00        		.byte	0
 1482 005f 00        		.byte	0
 1483 0060 00        		.byte	0
 1484 0061 00        		.byte	0
 1485 0062 00        		.byte	0
 1486 0063 00        		.byte	0
 1487 0064 00        		.byte	0
 1488 0065 00        		.byte	0
 1489 0066 00        		.byte	0
 1490 0067 00        		.byte	0
 1491 0068 00        		.byte	0
 1492 0069 00        		.byte	0
 1493 006a 00        		.byte	0
 1494 006b 00        		.byte	0
 1495 006c 00        		.byte	0
 1496 006d 00        		.byte	0
 1497 006e 00        		.byte	0
 1498 006f 00        		.byte	0
 1499 0070 00        		.byte	0
 1500 0071 00        		.byte	0
 1501 0072 00        		.byte	0
 1502 0073 00        		.byte	0
 1503 0074 00        		.byte	0
 1504 0075 00        		.byte	0
 1505 0076 00        		.byte	0
 1506 0077 00        		.byte	0
 1507 0078 00        		.byte	0
 1508 0079 00        		.byte	0
 1509 007a 00        		.byte	0
 1510 007b 00        		.byte	0
 1511 007c 00        		.byte	0
 1512 007d 00        		.byte	0
 1513 007e 00        		.byte	0
 1514 007f 00        		.byte	0
 1515 0080 00        		.byte	0
 1516 0081 00        		.byte	0
 1517 0082 00        		.byte	0
 1518 0083 00        		.byte	0
 1519 0084 00        		.byte	0
 1520 0085 00        		.byte	0
 1521 0086 00        		.byte	0
 1522 0087 00        		.byte	0
 1523 0088 00        		.byte	0
 1524 0089 00        		.byte	0
 1525 008a 00        		.byte	0
 1526 008b 00        		.byte	0
 1527 008c 00        		.byte	0
 1528 008d 00        		.byte	0
 1529 008e 00        		.byte	0
 1530 008f 00        		.byte	0
 1531 0090 00        		.byte	0
 1532 0091 00        		.byte	0
 1533 0092 00        		.byte	0
 1534 0093 00        		.byte	0
 1535 0094 00        		.byte	0
 1536 0095 00        		.byte	0
 1537 0096 00        		.byte	0
 1538 0097 00        		.byte	0
 1539 0098 00        		.byte	0
 1540 0099 00        		.byte	0
 1541 009a 00        		.byte	0
 1542 009b 00        		.byte	0
 1543 009c 00        		.byte	0
 1544 009d 00        		.byte	0
 1545 009e 00        		.byte	0
 1546 009f 00        		.byte	0
 1547 00a0 00        		.byte	0
 1548 00a1 00        		.byte	0
 1549 00a2 00        		.byte	0
 1550 00a3 00        		.byte	0
 1551 00a4 00        		.byte	0
 1552 00a5 00        		.byte	0
 1553 00a6 00        		.byte	0
 1554 00a7 00        		.byte	0
 1555 00a8 00        		.byte	0
 1556 00a9 00        		.byte	0
 1557 00aa 00        		.byte	0
 1558 00ab 00        		.byte	0
 1559 00ac 00        		.byte	0
 1560 00ad 00        		.byte	0
 1561 00ae 00        		.byte	0
 1562 00af 00        		.byte	0
 1563 00b0 00        		.byte	0
 1564 00b1 00        		.byte	0
 1565 00b2 00        		.byte	0
 1566 00b3 00        		.byte	0
 1567 00b4 00        		.byte	0
 1568 00b5 00        		.byte	0
 1569 00b6 00        		.byte	0
 1570 00b7 00        		.byte	0
 1571 00b8 00        		.byte	0
 1572 00b9 00        		.byte	0
 1573 00ba 00        		.byte	0
 1574 00bb 00        		.byte	0
 1575 00bc 00        		.byte	0
 1576 00bd 00        		.byte	0
 1577 00be 00        		.byte	0
 1578 00bf 00        		.byte	0
 1579 00c0 00        		.byte	0
 1580 00c1 00        		.byte	0
 1581 00c2 00        		.byte	0
 1582 00c3 00        		.byte	0
 1583 00c4 00        		.byte	0
 1584 00c5 00        		.byte	0
 1585 00c6 00        		.byte	0
 1586 00c7 00        		.byte	0
 1587 00c8 00        		.byte	0
 1588 00c9 00        		.byte	0
 1589 00ca 00        		.byte	0
 1590 00cb 00        		.byte	0
 1591 00cc 00        		.byte	0
 1592 00cd 00        		.byte	0
 1593 00ce 00        		.byte	0
 1594 00cf 00        		.byte	0
 1595 00d0 00        		.byte	0
 1596 00d1 00        		.byte	0
 1597 00d2 00        		.byte	0
 1598 00d3 00        		.byte	0
 1599 00d4 00        		.byte	0
 1600 00d5 00        		.byte	0
 1601 00d6 00        		.byte	0
 1602 00d7 00        		.byte	0
 1603 00d8 00        		.byte	0
 1604 00d9 00        		.byte	0
 1605 00da 00        		.byte	0
 1606 00db 00        		.byte	0
 1607 00dc 00        		.byte	0
 1608 00dd 00        		.byte	0
 1609 00de 00        		.byte	0
 1610 00df 00        		.byte	0
 1611 00e0 00        		.byte	0
 1612 00e1 00        		.byte	0
 1613 00e2 00        		.byte	0
 1614 00e3 00        		.byte	0
 1615 00e4 00        		.byte	0
 1616 00e5 00        		.byte	0
 1617 00e6 00        		.byte	0
 1618 00e7 00        		.byte	0
 1619 00e8 00        		.byte	0
 1620 00e9 00        		.byte	0
 1621 00ea 00        		.byte	0
 1622 00eb 00        		.byte	0
 1623 00ec 00        		.byte	0
 1624 00ed 00        		.byte	0
 1625 00ee 00        		.byte	0
 1626 00ef 00        		.byte	0
 1627 00f0 00        		.byte	0
 1628 00f1 00        		.byte	0
 1629 00f2 00        		.byte	0
 1630 00f3 00        		.byte	0
 1631 00f4 00        		.byte	0
 1632 00f5 00        		.byte	0
 1633 00f6 00        		.byte	0
 1634 00f7 00        		.byte	0
 1635 00f8 00        		.byte	0
 1636 00f9 00        		.byte	0
 1637 00fa 00        		.byte	0
 1638 00fb 00        		.byte	0
 1639 00fc 00        		.byte	0
 1640 00fd 00        		.byte	0
 1641 00fe 00        		.byte	0
 1642 00ff 00        		.byte	0
 1643 0100 00        		.byte	0
 1644 0101 00        		.byte	0
 1645 0102 00        		.byte	0
 1646 0103 00        		.byte	0
 1647 0104 00        		.byte	0
 1648 0105 00        		.byte	0
 1649 0106 00        		.byte	0
 1650 0107 00        		.byte	0
 1651 0108 00        		.byte	0
 1652 0109 00        		.byte	0
 1653 010a 00        		.byte	0
 1654 010b 00        		.byte	0
 1655 010c 00        		.byte	0
 1656 010d 00        		.byte	0
 1657 010e 00        		.byte	0
 1658 010f 00        		.byte	0
 1659 0110 00        		.byte	0
 1660 0111 00        		.byte	0
 1661 0112 00        		.byte	0
 1662 0113 00        		.byte	0
 1663 0114 00        		.byte	0
 1664 0115 00        		.byte	0
 1665 0116 00        		.byte	0
 1666 0117 00        		.byte	0
 1667 0118 00        		.byte	0
 1668 0119 00        		.byte	0
 1669 011a 00        		.byte	0
 1670 011b 00        		.byte	0
 1671 011c 00        		.byte	0
 1672 011d 00        		.byte	0
 1673 011e 00        		.byte	0
 1674 011f 00        		.byte	0
 1675 0120 00        		.byte	0
 1676 0121 00        		.byte	0
 1677 0122 00        		.byte	0
 1678 0123 00        		.byte	0
 1679 0124 00        		.byte	0
 1680 0125 00        		.byte	0
 1681 0126 00        		.byte	0
 1682 0127 00        		.byte	0
 1683 0128 00        		.byte	0
 1684 0129 00        		.byte	0
 1685 012a 00        		.byte	0
 1686 012b 00        		.byte	0
 1687 012c 00        		.byte	0
 1688 012d 00        		.byte	0
 1689 012e 00        		.byte	0
 1690 012f 00        		.byte	0
 1691 0130 00        		.byte	0
 1692 0131 00        		.byte	0
 1693 0132 00        		.byte	0
 1694 0133 00        		.byte	0
 1695 0134 00        		.byte	0
 1696 0135 00        		.byte	0
 1697 0136 00        		.byte	0
 1698 0137 00        		.byte	0
 1699 0138 00        		.byte	0
 1700 0139 00        		.byte	0
 1701 013a 00        		.byte	0
 1702 013b 00        		.byte	0
 1703 013c 00        		.byte	0
 1704 013d 00        		.byte	0
 1705 013e 00        		.byte	0
 1706 013f 00        		.byte	0
 1707 0140 00        		.byte	0
 1708 0141 00        		.byte	0
 1709 0142 00        		.byte	0
 1710 0143 00        		.byte	0
 1711 0144 00        		.byte	0
 1712 0145 00        		.byte	0
 1713 0146 00        		.byte	0
 1714 0147 00        		.byte	0
 1715 0148 00        		.byte	0
 1716 0149 00        		.byte	0
 1717 014a 00        		.byte	0
 1718 014b 00        		.byte	0
 1719 014c 00        		.byte	0
 1720 014d 00        		.byte	0
 1721 014e 00        		.byte	0
 1722 014f 00        		.byte	0
 1723 0150 00        		.byte	0
 1724 0151 00        		.byte	0
 1725 0152 00        		.byte	0
 1726 0153 00        		.byte	0
 1727 0154 00        		.byte	0
 1728 0155 00        		.byte	0
 1729 0156 00        		.byte	0
 1730 0157 00        		.byte	0
 1731 0158 00        		.byte	0
 1732 0159 00        		.byte	0
 1733 015a 00        		.byte	0
 1734 015b 00        		.byte	0
 1735 015c 00        		.byte	0
 1736 015d 00        		.byte	0
 1737 015e 00        		.byte	0
 1738 015f 00        		.byte	0
 1739 0160 00        		.byte	0
 1740 0161 00        		.byte	0
 1741 0162 00        		.byte	0
 1742 0163 00        		.byte	0
 1743 0164 00        		.byte	0
 1744 0165 00        		.byte	0
 1745 0166 00        		.byte	0
 1746 0167 00        		.byte	0
 1747 0168 00        		.byte	0
 1748 0169 00        		.byte	0
 1749 016a 00        		.byte	0
 1750 016b 00        		.byte	0
 1751 016c 00        		.byte	0
 1752 016d 00        		.byte	0
 1753 016e 00        		.byte	0
 1754 016f 00        		.byte	0
 1755 0170 00        		.byte	0
 1756 0171 00        		.byte	0
 1757 0172 00        		.byte	0
 1758 0173 00        		.byte	0
 1759 0174 00        		.byte	0
 1760 0175 00        		.byte	0
 1761 0176 00        		.byte	0
 1762 0177 00        		.byte	0
 1763 0178 00        		.byte	0
 1764 0179 00        		.byte	0
 1765 017a 00        		.byte	0
 1766 017b 00        		.byte	0
 1767 017c 00        		.byte	0
 1768 017d 00        		.byte	0
 1769 017e 00        		.byte	0
 1770 017f 00        		.byte	0
 1771 0180 00        		.byte	0
 1772 0181 00        		.byte	0
 1773 0182 00        		.byte	0
 1774 0183 00        		.byte	0
 1775 0184 00        		.byte	0
 1776 0185 00        		.byte	0
 1777 0186 00        		.byte	0
 1778 0187 00        		.byte	0
 1779 0188 00        		.byte	0
 1780 0189 00        		.byte	0
 1781 018a 00        		.byte	0
 1782 018b 00        		.byte	0
 1783 018c 00        		.byte	0
 1784 018d 10        		.byte	16
 1785 018e 10        		.byte	16
 1786 018f 10        		.byte	16
 1787 0190 10        		.byte	16
 1788 0191 10        		.byte	16
 1789 0192 10        		.byte	16
 1790 0193 10        		.byte	16
 1791 0194 00        		.byte	0
 1792 0195 10        		.byte	16
 1793 0196 00        		.byte	0
 1794 0197 00        		.byte	0
 1795 0198 00        		.byte	0
 1796 0199 28        		.byte	40
 1797 019a 28        		.byte	40
 1798 019b 28        		.byte	40
 1799 019c 00        		.byte	0
 1800 019d 00        		.byte	0
 1801 019e 00        		.byte	0
 1802 019f 00        		.byte	0
 1803 01a0 00        		.byte	0
 1804 01a1 00        		.byte	0
 1805 01a2 00        		.byte	0
 1806 01a3 00        		.byte	0
 1807 01a4 00        		.byte	0
 1808 01a5 14        		.byte	20
 1809 01a6 14        		.byte	20
 1810 01a7 7E        		.byte	126
 1811 01a8 28        		.byte	40
 1812 01a9 28        		.byte	40
 1813 01aa 28        		.byte	40
 1814 01ab FC        		.byte	-4
 1815 01ac 50        		.byte	80
 1816 01ad 50        		.byte	80
 1817 01ae 00        		.byte	0
 1818 01af 00        		.byte	0
 1819 01b0 00        		.byte	0
 1820 01b1 10        		.byte	16
 1821 01b2 38        		.byte	56
 1822 01b3 44        		.byte	68
 1823 01b4 40        		.byte	64
 1824 01b5 38        		.byte	56
 1825 01b6 04        		.byte	4
 1826 01b7 44        		.byte	68
 1827 01b8 38        		.byte	56
 1828 01b9 10        		.byte	16
 1829 01ba 00        		.byte	0
 1830 01bb 00        		.byte	0
 1831 01bc 00        		.byte	0
 1832 01bd 40        		.byte	64
 1833 01be A2        		.byte	-94
 1834 01bf 44        		.byte	68
 1835 01c0 08        		.byte	8
 1836 01c1 10        		.byte	16
 1837 01c2 20        		.byte	32
 1838 01c3 44        		.byte	68
 1839 01c4 8A        		.byte	-118
 1840 01c5 04        		.byte	4
 1841 01c6 00        		.byte	0
 1842 01c7 00        		.byte	0
 1843 01c8 00        		.byte	0
 1844 01c9 30        		.byte	48
 1845 01ca 50        		.byte	80
 1846 01cb 50        		.byte	80
 1847 01cc 20        		.byte	32
 1848 01cd 60        		.byte	96
 1849 01ce 92        		.byte	-110
 1850 01cf 94        		.byte	-108
 1851 01d0 88        		.byte	-120
 1852 01d1 76        		.byte	118
 1853 01d2 00        		.byte	0
 1854 01d3 00        		.byte	0
 1855 01d4 00        		.byte	0
 1856 01d5 10        		.byte	16
 1857 01d6 10        		.byte	16
 1858 01d7 10        		.byte	16
 1859 01d8 00        		.byte	0
 1860 01d9 00        		.byte	0
 1861 01da 00        		.byte	0
 1862 01db 00        		.byte	0
 1863 01dc 00        		.byte	0
 1864 01dd 00        		.byte	0
 1865 01de 00        		.byte	0
 1866 01df 00        		.byte	0
 1867 01e0 00        		.byte	0
 1868 01e1 08        		.byte	8
 1869 01e2 10        		.byte	16
 1870 01e3 10        		.byte	16
 1871 01e4 20        		.byte	32
 1872 01e5 20        		.byte	32
 1873 01e6 20        		.byte	32
 1874 01e7 20        		.byte	32
 1875 01e8 20        		.byte	32
 1876 01e9 10        		.byte	16
 1877 01ea 10        		.byte	16
 1878 01eb 08        		.byte	8
 1879 01ec 00        		.byte	0
 1880 01ed 20        		.byte	32
 1881 01ee 10        		.byte	16
 1882 01ef 10        		.byte	16
 1883 01f0 08        		.byte	8
 1884 01f1 08        		.byte	8
 1885 01f2 08        		.byte	8
 1886 01f3 08        		.byte	8
 1887 01f4 08        		.byte	8
 1888 01f5 10        		.byte	16
 1889 01f6 10        		.byte	16
 1890 01f7 20        		.byte	32
 1891 01f8 00        		.byte	0
 1892 01f9 00        		.byte	0
 1893 01fa 00        		.byte	0
 1894 01fb 6C        		.byte	108
 1895 01fc 38        		.byte	56
 1896 01fd FE        		.byte	-2
 1897 01fe 38        		.byte	56
 1898 01ff 6C        		.byte	108
 1899               	.global	str1
 1902               	str1:
 1903 0200 4169 6D73 		.string	"Aims Interactive Video Test1.0"
 1903      2049 6E74 
 1903      6572 6163 
 1903      7469 7665 
 1903      2056 6964 
 1904               	.global	str2
 1907               	str2:
 1908 021f 5369 6D70 		.string	"Simple VGA terminal"
 1908      6C65 2056 
 1908      4741 2074 
 1908      6572 6D69 
 1908      6E61 6C00 
 1909               	.global	str3
 1912               	str3:
 1913 0233 7631 2E32 		.string	"v1.2 UART-19200 bps"
 1913      2055 4152 
 1913      542D 3139 
 1913      3230 3020 
 1913      6270 7300 
 1914               		.lcomm framecount.1687,2
 1915               		.lcomm framecount.1598,2
 1916               		.comm str_array,761,1
 1917               		.comm current_symbol,2,1
 1918               		.comm video_enable_flg,1,1
 1919               		.comm raw_render,1,1
 1920               		.comm linecount,2,1
 1921               		.comm y_line_render,1,1
 1986               	.Letext0:
DEFINED SYMBOLS
                            *ABS*:00000000 main.c
C:\DOCUME~1\AIMSIN~1\LOCALS~1\Temp/cc8LJFYC.s:2      *ABS*:0000003f __SREG__
C:\DOCUME~1\AIMSIN~1\LOCALS~1\Temp/cc8LJFYC.s:3      *ABS*:0000003e __SP_H__
C:\DOCUME~1\AIMSIN~1\LOCALS~1\Temp/cc8LJFYC.s:4      *ABS*:0000003d __SP_L__
C:\DOCUME~1\AIMSIN~1\LOCALS~1\Temp/cc8LJFYC.s:5      *ABS*:00000034 __CCP__
C:\DOCUME~1\AIMSIN~1\LOCALS~1\Temp/cc8LJFYC.s:6      *ABS*:00000000 __tmp_reg__
C:\DOCUME~1\AIMSIN~1\LOCALS~1\Temp/cc8LJFYC.s:7      *ABS*:00000001 __zero_reg__
C:\DOCUME~1\AIMSIN~1\LOCALS~1\Temp/cc8LJFYC.s:18     .text:00000000 __vector_9
                            *COM*:00000002 linecount
                            *COM*:00000001 raw_render
                            *COM*:00000001 y_line_render
                            *COM*:00000001 video_enable_flg
C:\DOCUME~1\AIMSIN~1\LOCALS~1\Temp/cc8LJFYC.s:211    .text:000000de __vector_6
C:\DOCUME~1\AIMSIN~1\LOCALS~1\Temp/cc8LJFYC.s:444    .text:000001de spi_init
C:\DOCUME~1\AIMSIN~1\LOCALS~1\Temp/cc8LJFYC.s:470    .text:000001f0 vga_render
                            *COM*:000002f9 str_array
C:\DOCUME~1\AIMSIN~1\LOCALS~1\Temp/cc8LJFYC.s:1907   .progmem.data:0000021f str2
C:\DOCUME~1\AIMSIN~1\LOCALS~1\Temp/cc8LJFYC.s:1912   .progmem.data:00000233 str3
                             .bss:00000000 framecount.1687
                            *COM*:00000002 current_symbol
C:\DOCUME~1\AIMSIN~1\LOCALS~1\Temp/cc8LJFYC.s:1386   .progmem.data:00000000 symbol
C:\DOCUME~1\AIMSIN~1\LOCALS~1\Temp/cc8LJFYC.s:859    .text:000003ec pal_render
C:\DOCUME~1\AIMSIN~1\LOCALS~1\Temp/cc8LJFYC.s:1902   .progmem.data:00000200 str1
C:\DOCUME~1\AIMSIN~1\LOCALS~1\Temp/cc8LJFYC.s:1914   .bss:00000002 framecount.1598
C:\DOCUME~1\AIMSIN~1\LOCALS~1\Temp/cc8LJFYC.s:1281   .text:00000606 main

UNDEFINED SYMBOLS
strcpy_P
__udivmodhi4
__do_clear_bss
