   1               		.file	"main.c"
   2               	__SREG__ = 0x3f
   3               	__SP_H__ = 0x3e
   4               	__SP_L__ = 0x3d
   5               	__CCP__  = 0x34
   6               	__tmp_reg__ = 0
   7               	__zero_reg__ = 1
  15               	.Ltext0:
  16               	.global	enc28j60ReadOp
  18               	enc28j60ReadOp:
  19               	.LFB7:
  20               	.LM1:
  21               	.LVL0:
  22               	/* prologue: function */
  23               	/* frame size = 0 */
  24               	.LM2:
  25 0000 C498      		cbi 56-32,4
  26               	.LM3:
  27 0002 962F      		mov r25,r22
  28 0004 9F71      		andi r25,lo8(31)
  29 0006 982B      		or r25,r24
  30 0008 9FB9      		out 47-32,r25
  31               	.L2:
  32               	.LM4:
  33 000a 779B      		sbis 46-32,7
  34 000c 00C0      		rjmp .L2
  35               	.LM5:
  36 000e 1FB8      		out 47-32,__zero_reg__
  37               	.L3:
  38               	.LM6:
  39 0010 779B      		sbis 46-32,7
  40 0012 00C0      		rjmp .L3
  41               	.LM7:
  42 0014 67FF      		sbrs r22,7
  43 0016 00C0      		rjmp .L4
  44               	.LM8:
  45 0018 1FB8      		out 47-32,__zero_reg__
  46               	.L5:
  47               	.LM9:
  48 001a 779B      		sbis 46-32,7
  49 001c 00C0      		rjmp .L5
  50               	.L4:
  51               	.LM10:
  52 001e C49A      		sbi 56-32,4
  53               	.LM11:
  54 0020 8FB1      		in r24,47-32
  55               	.LVL1:
  56               	/* epilogue start */
  57               	.LM12:
  58 0022 0895      		ret
  59               	.LFE7:
  61               	.global	enc28j60WriteOp
  63               	enc28j60WriteOp:
  64               	.LFB8:
  65               	.LM13:
  66               	.LVL2:
  67               	/* prologue: function */
  68               	/* frame size = 0 */
  69               	.LM14:
  70 0024 C498      		cbi 56-32,4
  71               	.LM15:
  72 0026 6F71      		andi r22,lo8(31)
  73               	.LVL3:
  74 0028 682B      		or r22,r24
  75 002a 6FB9      		out 47-32,r22
  76               	.L11:
  77               	.LM16:
  78 002c 779B      		sbis 46-32,7
  79 002e 00C0      		rjmp .L11
  80               	.LM17:
  81 0030 4FB9      		out 47-32,r20
  82               	.L12:
  83               	.LM18:
  84 0032 779B      		sbis 46-32,7
  85 0034 00C0      		rjmp .L12
  86               	.LM19:
  87 0036 C49A      		sbi 56-32,4
  88               	/* epilogue start */
  89               	.LM20:
  90 0038 0895      		ret
  91               	.LFE8:
  93               	.global	enc28j60ReadBuffer
  95               	enc28j60ReadBuffer:
  96               	.LFB9:
  97               	.LM21:
  98               	.LVL4:
  99               	/* prologue: function */
 100               	/* frame size = 0 */
 101 003a AC01      		movw r20,r24
 102 003c FB01      		movw r30,r22
 103               	.LM22:
 104 003e C498      		cbi 56-32,4
 105               	.LM23:
 106 0040 8AE3      		ldi r24,lo8(58)
 107               	.LVL5:
 108 0042 8FB9      		out 47-32,r24
 109               	.LVL6:
 110               	.L17:
 111               	.LM24:
 112 0044 779B      		sbis 46-32,7
 113 0046 00C0      		rjmp .L17
 114 0048 9A01      		movw r18,r20
 115 004a DF01      		movw r26,r30
 116 004c 00C0      		rjmp .L18
 117               	.LVL7:
 118               	.L20:
 119               	.LM25:
 120 004e 1FB8      		out 47-32,__zero_reg__
 121               	.L19:
 122               	.LM26:
 123 0050 779B      		sbis 46-32,7
 124 0052 00C0      		rjmp .L19
 125               	.LM27:
 126 0054 2150      		subi r18,lo8(-(-1))
 127 0056 3040      		sbci r19,hi8(-(-1))
 128               	.LM28:
 129 0058 8FB1      		in r24,47-32
 130 005a 8D93      		st X+,r24
 131               	.LVL8:
 132               	.L18:
 133               	.LM29:
 134 005c 2115      		cp r18,__zero_reg__
 135 005e 3105      		cpc r19,__zero_reg__
 136 0060 01F4      		brne .L20
 137               	.LM30:
 138 0062 E40F      		add r30,r20
 139 0064 F51F      		adc r31,r21
 140               	.LVL9:
 141 0066 1082      		st Z,__zero_reg__
 142               	.LM31:
 143 0068 C49A      		sbi 56-32,4
 144               	/* epilogue start */
 145               	.LM32:
 146 006a 0895      		ret
 147               	.LFE9:
 149               	.global	enc28j60WriteBuffer
 151               	enc28j60WriteBuffer:
 152               	.LFB10:
 153               	.LM33:
 154               	.LVL10:
 155               	/* prologue: function */
 156               	/* frame size = 0 */
 157 006c 9C01      		movw r18,r24
 158 006e FB01      		movw r30,r22
 159               	.LM34:
 160 0070 C498      		cbi 56-32,4
 161               	.LM35:
 162 0072 8AE7      		ldi r24,lo8(122)
 163               	.LVL11:
 164 0074 8FB9      		out 47-32,r24
 165               	.LVL12:
 166               	.L25:
 167               	.LM36:
 168 0076 779B      		sbis 46-32,7
 169 0078 00C0      		rjmp .L25
 170 007a 00C0      		rjmp .L32
 171               	.L28:
 172               	.LM37:
 173 007c 8081      		ld r24,Z
 174 007e 8FB9      		out 47-32,r24
 175               	.L27:
 176               	.LM38:
 177 0080 779B      		sbis 46-32,7
 178 0082 00C0      		rjmp .L27
 179               	.LM39:
 180 0084 2150      		subi r18,lo8(-(-1))
 181 0086 3040      		sbci r19,hi8(-(-1))
 182               	.LM40:
 183 0088 3196      		adiw r30,1
 184               	.LVL13:
 185               	.L32:
 186               	.LM41:
 187 008a 2115      		cp r18,__zero_reg__
 188 008c 3105      		cpc r19,__zero_reg__
 189 008e 01F4      		brne .L28
 190               	.LM42:
 191 0090 C49A      		sbi 56-32,4
 192               	/* epilogue start */
 193               	.LM43:
 194 0092 0895      		ret
 195               	.LFE10:
 197               	.global	enc28j60SetBank
 199               	enc28j60SetBank:
 200               	.LFB11:
 201               	.LM44:
 202               	.LVL14:
 203               	/* prologue: function */
 204               	/* frame size = 0 */
 205 0094 482F      		mov r20,r24
 206               	.LM45:
 207 0096 282F      		mov r18,r24
 208 0098 30E0      		ldi r19,lo8(0)
 209 009a 2076      		andi r18,lo8(96)
 210 009c 3070      		andi r19,hi8(96)
 211 009e 8091 0000 		lds r24,Enc28j60Bank
 212               	.LVL15:
 213 00a2 90E0      		ldi r25,lo8(0)
 214 00a4 2817      		cp r18,r24
 215 00a6 3907      		cpc r19,r25
 216 00a8 01F0      		breq .L39
 217               	.LBB239:
 218               	.LBB240:
 219               	.LM46:
 220 00aa C498      		cbi 56-32,4
 221               	.LM47:
 222 00ac 8FEB      		ldi r24,lo8(-65)
 223 00ae 8FB9      		out 47-32,r24
 224               	.L35:
 225               	.LM48:
 226 00b0 779B      		sbis 46-32,7
 227 00b2 00C0      		rjmp .L35
 228               	.LM49:
 229 00b4 83E0      		ldi r24,lo8(3)
 230 00b6 8FB9      		out 47-32,r24
 231               	.L36:
 232               	.LM50:
 233 00b8 779B      		sbis 46-32,7
 234 00ba 00C0      		rjmp .L36
 235               	.LM51:
 236 00bc C49A      		sbi 56-32,4
 237               	.LBE240:
 238               	.LBE239:
 239               	.LBB241:
 240               	.LBB242:
 241               	.LM52:
 242 00be C498      		cbi 56-32,4
 243               	.LM53:
 244 00c0 8FE9      		ldi r24,lo8(-97)
 245 00c2 8FB9      		out 47-32,r24
 246               	.L37:
 247               	.LM54:
 248 00c4 779B      		sbis 46-32,7
 249 00c6 00C0      		rjmp .L37
 250               	.LBE242:
 251               	.LBE241:
 252               	.LM55:
 253 00c8 85E0      		ldi r24,5
 254 00ca 3595      	1:	asr r19
 255 00cc 2795      		ror r18
 256 00ce 8A95      		dec r24
 257 00d0 01F4      		brne 1b
 258               	.LBB244:
 259               	.LBB243:
 260               	.LM56:
 261 00d2 2FB9      		out 47-32,r18
 262               	.L38:
 263               	.LM57:
 264 00d4 779B      		sbis 46-32,7
 265 00d6 00C0      		rjmp .L38
 266               	.LM58:
 267 00d8 C49A      		sbi 56-32,4
 268               	.LBE243:
 269               	.LBE244:
 270               	.LM59:
 271 00da 4076      		andi r20,lo8(96)
 272 00dc 4093 0000 		sts Enc28j60Bank,r20
 273               	.L39:
 274 00e0 0895      		ret
 275               	.LFE11:
 277               	.global	enc28j60Read
 279               	enc28j60Read:
 280               	.LFB12:
 281               	.LM60:
 282               	.LVL16:
 283 00e2 1F93      		push r17
 284               	/* prologue: function */
 285               	/* frame size = 0 */
 286 00e4 182F      		mov r17,r24
 287               	.LM61:
 288 00e6 0E94 0000 		call enc28j60SetBank
 289               	.LVL17:
 290               	.LM62:
 291 00ea 80E0      		ldi r24,lo8(0)
 292 00ec 612F      		mov r22,r17
 293 00ee 0E94 0000 		call enc28j60ReadOp
 294               	/* epilogue start */
 295               	.LM63:
 296 00f2 1F91      		pop r17
 297               	.LVL18:
 298 00f4 0895      		ret
 299               	.LFE12:
 301               	.global	enc28j60Write
 303               	enc28j60Write:
 304               	.LFB14:
 305               	.LM64:
 306               	.LVL19:
 307 00f6 0F93      		push r16
 308 00f8 1F93      		push r17
 309               	/* prologue: function */
 310               	/* frame size = 0 */
 311 00fa 182F      		mov r17,r24
 312 00fc 062F      		mov r16,r22
 313               	.LM65:
 314 00fe 0E94 0000 		call enc28j60SetBank
 315               	.LVL20:
 316               	.LBB245:
 317               	.LBB246:
 318               	.LM66:
 319 0102 C498      		cbi 56-32,4
 320               	.LM67:
 321 0104 1F71      		andi r17,lo8(31)
 322 0106 1064      		ori r17,lo8(64)
 323 0108 1FB9      		out 47-32,r17
 324               	.L47:
 325               	.LM68:
 326 010a 779B      		sbis 46-32,7
 327 010c 00C0      		rjmp .L47
 328               	.LM69:
 329 010e 0FB9      		out 47-32,r16
 330               	.L48:
 331               	.LM70:
 332 0110 779B      		sbis 46-32,7
 333 0112 00C0      		rjmp .L48
 334               	.LM71:
 335 0114 C49A      		sbi 56-32,4
 336               	/* epilogue start */
 337               	.LBE246:
 338               	.LBE245:
 339               	.LM72:
 340 0116 1F91      		pop r17
 341               	.LVL21:
 342 0118 0F91      		pop r16
 343               	.LVL22:
 344 011a 0895      		ret
 345               	.LFE14:
 347               	.global	enc28j60PhyReadH
 349               	enc28j60PhyReadH:
 350               	.LFB13:
 351               	.LM73:
 352               	.LVL23:
 353               	/* prologue: function */
 354               	/* frame size = 0 */
 355 011c 682F      		mov r22,r24
 356               	.LM74:
 357 011e 84ED      		ldi r24,lo8(-44)
 358               	.LVL24:
 359 0120 0E94 0000 		call enc28j60Write
 360               	.LVL25:
 361               	.LM75:
 362 0124 82ED      		ldi r24,lo8(-46)
 363 0126 61E0      		ldi r22,lo8(1)
 364 0128 0E94 0000 		call enc28j60Write
 365               	.LBB247:
 366               	.LBB248:
 367               	.LBB249:
 368               	.LBB250:
 369               	.LM76:
 370 012c 80E5      		ldi r24,lo8(80)
 371               	.LVL26:
 372               	/* #APP */
 373               	 ;  83 "c:/winavr/lib/gcc/../../avr/include/util/delay_basic.h" 1
 374 012e 8A95      		1: dec r24
 375 0130 01F4      		brne 1b
 376               	 ;  0 "" 2
 377               	/* #NOAPP */
 378               	.L53:
 379               	.LBE250:
 380               	.LBE249:
 381               	.LBE248:
 382               	.LBE247:
 383               	.LM77:
 384 0132 8AEE      		ldi r24,lo8(-22)
 385               	.LVL27:
 386 0134 0E94 0000 		call enc28j60Read
 387 0138 80FD      		sbrc r24,0
 388 013a 00C0      		rjmp .L53
 389               	.LM78:
 390 013c 82ED      		ldi r24,lo8(-46)
 391 013e 60E0      		ldi r22,lo8(0)
 392 0140 0E94 0000 		call enc28j60Write
 393               	.LM79:
 394 0144 89ED      		ldi r24,lo8(-39)
 395 0146 0E94 0000 		call enc28j60Read
 396               	.LM80:
 397 014a 90E0      		ldi r25,lo8(0)
 398               	/* epilogue start */
 399 014c 0895      		ret
 400               	.LFE13:
 402               	.global	enc28j60PhyWrite
 404               	enc28j60PhyWrite:
 405               	.LFB15:
 406               	.LM81:
 407               	.LVL28:
 408 014e 0F93      		push r16
 409 0150 1F93      		push r17
 410               	/* prologue: function */
 411               	/* frame size = 0 */
 412 0152 982F      		mov r25,r24
 413 0154 162F      		mov r17,r22
 414 0156 072F      		mov r16,r23
 415               	.LVL29:
 416               	.LM82:
 417 0158 84ED      		ldi r24,lo8(-44)
 418               	.LVL30:
 419 015a 692F      		mov r22,r25
 420               	.LVL31:
 421 015c 0E94 0000 		call enc28j60Write
 422               	.LVL32:
 423               	.LM83:
 424 0160 86ED      		ldi r24,lo8(-42)
 425 0162 612F      		mov r22,r17
 426 0164 0E94 0000 		call enc28j60Write
 427               	.LM84:
 428 0168 87ED      		ldi r24,lo8(-41)
 429 016a 602F      		mov r22,r16
 430 016c 0E94 0000 		call enc28j60Write
 431               	.LBB251:
 432               	.LBB252:
 433               	.LBB253:
 434               	.LBB254:
 435               	.LM85:
 436 0170 10E5      		ldi r17,lo8(80)
 437               	.LVL33:
 438 0172 00C0      		rjmp .L57
 439               	.L58:
 440 0174 812F      		mov r24,r17
 441               	.LVL34:
 442               	/* #APP */
 443               	 ;  83 "c:/winavr/lib/gcc/../../avr/include/util/delay_basic.h" 1
 444 0176 8A95      		1: dec r24
 445 0178 01F4      		brne 1b
 446               	 ;  0 "" 2
 447               	/* #NOAPP */
 448               	.L57:
 449               	.LBE254:
 450               	.LBE253:
 451               	.LBE252:
 452               	.LBE251:
 453               	.LM86:
 454 017a 8AEE      		ldi r24,lo8(-22)
 455               	.LVL35:
 456 017c 0E94 0000 		call enc28j60Read
 457 0180 80FD      		sbrc r24,0
 458 0182 00C0      		rjmp .L58
 459               	/* epilogue start */
 460               	.LM87:
 461 0184 1F91      		pop r17
 462 0186 0F91      		pop r16
 463               	.LVL36:
 464 0188 0895      		ret
 465               	.LFE15:
 467               	.global	enc28j60clkout
 469               	enc28j60clkout:
 470               	.LFB16:
 471               	.LM88:
 472               	.LVL37:
 473               	/* prologue: function */
 474               	/* frame size = 0 */
 475               	.LM89:
 476 018a 682F      		mov r22,r24
 477 018c 6770      		andi r22,lo8(7)
 478 018e 85E7      		ldi r24,lo8(117)
 479               	.LVL38:
 480 0190 0E94 0000 		call enc28j60Write
 481               	/* epilogue start */
 482               	.LM90:
 483 0194 0895      		ret
 484               	.LFE16:
 486               	.global	enc28j60Init
 488               	enc28j60Init:
 489               	.LFB17:
 490               	.LM91:
 491               	.LVL39:
 492 0196 CF93      		push r28
 493 0198 DF93      		push r29
 494               	/* prologue: function */
 495               	/* frame size = 0 */
 496 019a EC01      		movw r28,r24
 497               	.LM92:
 498 019c BC9A      		sbi 55-32,4
 499               	.LM93:
 500 019e C49A      		sbi 56-32,4
 501               	.LM94:
 502 01a0 87B3      		in r24,55-32
 503               	.LVL40:
 504 01a2 806A      		ori r24,lo8(-96)
 505 01a4 87BB      		out 55-32,r24
 506               	.LM95:
 507 01a6 BE98      		cbi 55-32,6
 508               	.LM96:
 509 01a8 C598      		cbi 56-32,5
 510               	.LM97:
 511 01aa C798      		cbi 56-32,7
 512               	.LM98:
 513 01ac 81E5      		ldi r24,lo8(81)
 514 01ae 8DB9      		out 45-32,r24
 515               	.LM99:
 516 01b0 709A      		sbi 46-32,0
 517               	.LBB255:
 518               	.LBB256:
 519               	.LM100:
 520 01b2 C498      		cbi 56-32,4
 521               	.LM101:
 522 01b4 8FEF      		ldi r24,lo8(-1)
 523 01b6 8FB9      		out 47-32,r24
 524               	.L63:
 525               	.LM102:
 526 01b8 779B      		sbis 46-32,7
 527 01ba 00C0      		rjmp .L63
 528               	.LM103:
 529 01bc 8FEF      		ldi r24,lo8(-1)
 530 01be 8FB9      		out 47-32,r24
 531               	.L64:
 532               	.LM104:
 533 01c0 779B      		sbis 46-32,7
 534 01c2 00C0      		rjmp .L64
 535               	.LM105:
 536 01c4 C49A      		sbi 56-32,4
 537               	.LBE256:
 538               	.LBE255:
 539               	.LBB257:
 540               	.LBB258:
 541               	.LM106:
 542 01c6 8DEC      		ldi r24,lo8(-51)
 543               	.LVL41:
 544               	/* #APP */
 545               	 ;  83 "c:/winavr/lib/gcc/../../avr/include/util/delay_basic.h" 1
 546 01c8 8A95      		1: dec r24
 547 01ca 01F4      		brne 1b
 548               	 ;  0 "" 2
 549               	/* #NOAPP */
 550               	.LBE258:
 551               	.LBE257:
 552               	.LM107:
 553 01cc 1092 0000 		sts (gNextPacketPtr)+1,__zero_reg__
 554 01d0 1092 0000 		sts gNextPacketPtr,__zero_reg__
 555               	.LM108:
 556 01d4 88E0      		ldi r24,lo8(8)
 557               	.LVL42:
 558 01d6 60E0      		ldi r22,lo8(0)
 559 01d8 0E94 0000 		call enc28j60Write
 560               	.LM109:
 561 01dc 89E0      		ldi r24,lo8(9)
 562 01de 60E0      		ldi r22,lo8(0)
 563 01e0 0E94 0000 		call enc28j60Write
 564               	.LM110:
 565 01e4 8CE0      		ldi r24,lo8(12)
 566 01e6 60E0      		ldi r22,lo8(0)
 567 01e8 0E94 0000 		call enc28j60Write
 568               	.LM111:
 569 01ec 8DE0      		ldi r24,lo8(13)
 570 01ee 60E0      		ldi r22,lo8(0)
 571 01f0 0E94 0000 		call enc28j60Write
 572               	.LM112:
 573 01f4 8AE0      		ldi r24,lo8(10)
 574 01f6 6EEF      		ldi r22,lo8(-2)
 575 01f8 0E94 0000 		call enc28j60Write
 576               	.LM113:
 577 01fc 8BE0      		ldi r24,lo8(11)
 578 01fe 69E1      		ldi r22,lo8(25)
 579 0200 0E94 0000 		call enc28j60Write
 580               	.LM114:
 581 0204 84E0      		ldi r24,lo8(4)
 582 0206 6FEF      		ldi r22,lo8(-1)
 583 0208 0E94 0000 		call enc28j60Write
 584               	.LM115:
 585 020c 85E0      		ldi r24,lo8(5)
 586 020e 69E1      		ldi r22,lo8(25)
 587 0210 0E94 0000 		call enc28j60Write
 588               	.LM116:
 589 0214 86E0      		ldi r24,lo8(6)
 590 0216 6FEF      		ldi r22,lo8(-1)
 591 0218 0E94 0000 		call enc28j60Write
 592               	.LM117:
 593 021c 87E0      		ldi r24,lo8(7)
 594 021e 6FE1      		ldi r22,lo8(31)
 595 0220 0E94 0000 		call enc28j60Write
 596               	.LM118:
 597 0224 88E3      		ldi r24,lo8(56)
 598 0226 60EB      		ldi r22,lo8(-80)
 599 0228 0E94 0000 		call enc28j60Write
 600               	.LM119:
 601 022c 88E2      		ldi r24,lo8(40)
 602 022e 6FE3      		ldi r22,lo8(63)
 603 0230 0E94 0000 		call enc28j60Write
 604               	.LM120:
 605 0234 89E2      		ldi r24,lo8(41)
 606 0236 60E3      		ldi r22,lo8(48)
 607 0238 0E94 0000 		call enc28j60Write
 608               	.LM121:
 609 023c 80E3      		ldi r24,lo8(48)
 610 023e 69EF      		ldi r22,lo8(-7)
 611 0240 0E94 0000 		call enc28j60Write
 612               	.LM122:
 613 0244 81E3      		ldi r24,lo8(49)
 614 0246 67EF      		ldi r22,lo8(-9)
 615 0248 0E94 0000 		call enc28j60Write
 616               	.LM123:
 617 024c 80EC      		ldi r24,lo8(-64)
 618 024e 6DE0      		ldi r22,lo8(13)
 619 0250 0E94 0000 		call enc28j60Write
 620               	.LM124:
 621 0254 81EC      		ldi r24,lo8(-63)
 622 0256 60E0      		ldi r22,lo8(0)
 623 0258 0E94 0000 		call enc28j60Write
 624               	.LBB259:
 625               	.LBB260:
 626               	.LM125:
 627 025c C498      		cbi 56-32,4
 628               	.LM126:
 629 025e 82E8      		ldi r24,lo8(-126)
 630 0260 8FB9      		out 47-32,r24
 631               	.L65:
 632               	.LM127:
 633 0262 779B      		sbis 46-32,7
 634 0264 00C0      		rjmp .L65
 635               	.LM128:
 636 0266 82E3      		ldi r24,lo8(50)
 637 0268 8FB9      		out 47-32,r24
 638               	.L66:
 639               	.LM129:
 640 026a 779B      		sbis 46-32,7
 641 026c 00C0      		rjmp .L66
 642               	.LM130:
 643 026e C49A      		sbi 56-32,4
 644               	.LBE260:
 645               	.LBE259:
 646               	.LM131:
 647 0270 86EC      		ldi r24,lo8(-58)
 648 0272 62E1      		ldi r22,lo8(18)
 649 0274 0E94 0000 		call enc28j60Write
 650               	.LM132:
 651 0278 87EC      		ldi r24,lo8(-57)
 652 027a 6CE0      		ldi r22,lo8(12)
 653 027c 0E94 0000 		call enc28j60Write
 654               	.LM133:
 655 0280 84EC      		ldi r24,lo8(-60)
 656 0282 62E1      		ldi r22,lo8(18)
 657 0284 0E94 0000 		call enc28j60Write
 658               	.LM134:
 659 0288 8AEC      		ldi r24,lo8(-54)
 660 028a 6CED      		ldi r22,lo8(-36)
 661 028c 0E94 0000 		call enc28j60Write
 662               	.LM135:
 663 0290 8BEC      		ldi r24,lo8(-53)
 664 0292 65E0      		ldi r22,lo8(5)
 665 0294 0E94 0000 		call enc28j60Write
 666               	.LM136:
 667 0298 84EE      		ldi r24,lo8(-28)
 668 029a 6881      		ld r22,Y
 669 029c 0E94 0000 		call enc28j60Write
 670               	.LM137:
 671 02a0 85EE      		ldi r24,lo8(-27)
 672 02a2 6981      		ldd r22,Y+1
 673 02a4 0E94 0000 		call enc28j60Write
 674               	.LM138:
 675 02a8 82EE      		ldi r24,lo8(-30)
 676 02aa 6A81      		ldd r22,Y+2
 677 02ac 0E94 0000 		call enc28j60Write
 678               	.LM139:
 679 02b0 83EE      		ldi r24,lo8(-29)
 680 02b2 6B81      		ldd r22,Y+3
 681 02b4 0E94 0000 		call enc28j60Write
 682               	.LM140:
 683 02b8 80EE      		ldi r24,lo8(-32)
 684 02ba 6C81      		ldd r22,Y+4
 685 02bc 0E94 0000 		call enc28j60Write
 686               	.LM141:
 687 02c0 81EE      		ldi r24,lo8(-31)
 688 02c2 6D81      		ldd r22,Y+5
 689 02c4 0E94 0000 		call enc28j60Write
 690               	.LM142:
 691 02c8 80E1      		ldi r24,lo8(16)
 692 02ca 60E0      		ldi r22,lo8(256)
 693 02cc 71E0      		ldi r23,hi8(256)
 694 02ce 0E94 0000 		call enc28j60PhyWrite
 695               	.LM143:
 696 02d2 8FE1      		ldi r24,lo8(31)
 697 02d4 0E94 0000 		call enc28j60SetBank
 698               	.LBB261:
 699               	.LBB262:
 700               	.LM144:
 701 02d8 C498      		cbi 56-32,4
 702               	.LM145:
 703 02da 8BE9      		ldi r24,lo8(-101)
 704 02dc 8FB9      		out 47-32,r24
 705               	.L67:
 706               	.LM146:
 707 02de 779B      		sbis 46-32,7
 708 02e0 00C0      		rjmp .L67
 709               	.LM147:
 710 02e2 80EC      		ldi r24,lo8(-64)
 711 02e4 8FB9      		out 47-32,r24
 712               	.L68:
 713               	.LM148:
 714 02e6 779B      		sbis 46-32,7
 715 02e8 00C0      		rjmp .L68
 716               	.LM149:
 717 02ea C49A      		sbi 56-32,4
 718               	.LBE262:
 719               	.LBE261:
 720               	.LBB263:
 721               	.LBB264:
 722               	.LM150:
 723 02ec C498      		cbi 56-32,4
 724               	.LM151:
 725 02ee 8FE9      		ldi r24,lo8(-97)
 726 02f0 8FB9      		out 47-32,r24
 727               	.L69:
 728               	.LM152:
 729 02f2 779B      		sbis 46-32,7
 730 02f4 00C0      		rjmp .L69
 731               	.LM153:
 732 02f6 84E0      		ldi r24,lo8(4)
 733 02f8 8FB9      		out 47-32,r24
 734               	.L70:
 735               	.LM154:
 736 02fa 779B      		sbis 46-32,7
 737 02fc 00C0      		rjmp .L70
 738               	.LM155:
 739 02fe C49A      		sbi 56-32,4
 740               	/* epilogue start */
 741               	.LBE264:
 742               	.LBE263:
 743               	.LM156:
 744 0300 DF91      		pop r29
 745 0302 CF91      		pop r28
 746               	.LVL43:
 747 0304 0895      		ret
 748               	.LFE17:
 750               	.global	enc28j60getrev
 752               	enc28j60getrev:
 753               	.LFB18:
 754               	.LM157:
 755               	/* prologue: function */
 756               	/* frame size = 0 */
 757               	.LM158:
 758 0306 82E7      		ldi r24,lo8(114)
 759 0308 0E94 0000 		call enc28j60Read
 760               	/* epilogue start */
 761               	.LM159:
 762 030c 0895      		ret
 763               	.LFE18:
 765               	.global	enc28j60linkup
 767               	enc28j60linkup:
 768               	.LFB19:
 769               	.LM160:
 770               	/* prologue: function */
 771               	/* frame size = 0 */
 772               	.LM161:
 773 030e 81E1      		ldi r24,lo8(17)
 774 0310 0E94 0000 		call enc28j60PhyReadH
 775 0314 20E0      		ldi r18,lo8(0)
 776 0316 892B      		or r24,r25
 777 0318 01F0      		breq .L83
 778 031a 21E0      		ldi r18,lo8(1)
 779               	.L83:
 780               	.LM162:
 781 031c 822F      		mov r24,r18
 782               	/* epilogue start */
 783 031e 0895      		ret
 784               	.LFE19:
 786               	.global	enc28j60PacketSend
 788               	enc28j60PacketSend:
 789               	.LFB20:
 790               	.LM163:
 791               	.LVL44:
 792 0320 DF92      		push r13
 793 0322 EF92      		push r14
 794 0324 FF92      		push r15
 795 0326 0F93      		push r16
 796 0328 1F93      		push r17
 797 032a CF93      		push r28
 798 032c DF93      		push r29
 799               	/* prologue: function */
 800               	/* frame size = 0 */
 801 032e EC01      		movw r28,r24
 802 0330 8B01      		movw r16,r22
 803               	.LBB265:
 804               	.LBB266:
 805               	.LM164:
 806 0332 3FE9      		ldi r19,lo8(-97)
 807 0334 D32E      		mov r13,r19
 808               	.LM165:
 809 0336 20E8      		ldi r18,lo8(-128)
 810 0338 F22E      		mov r15,r18
 811               	.LBE266:
 812               	.LBE265:
 813               	.LBB268:
 814               	.LBB269:
 815               	.LM166:
 816 033a 9FEB      		ldi r25,lo8(-65)
 817 033c E92E      		mov r14,r25
 818 033e 00C0      		rjmp .L113
 819               	.LVL45:
 820               	.L91:
 821               	.LBE269:
 822               	.LBE268:
 823               	.LM167:
 824 0340 8CE1      		ldi r24,lo8(28)
 825 0342 0E94 0000 		call enc28j60Read
 826 0346 81FF      		sbrs r24,1
 827 0348 00C0      		rjmp .L113
 828               	.LBB271:
 829               	.LBB267:
 830               	.LM168:
 831 034a C498      		cbi 56-32,4
 832               	.LM169:
 833 034c DFB8      		out 47-32,r13
 834               	.L87:
 835               	.LM170:
 836 034e 779B      		sbis 46-32,7
 837 0350 00C0      		rjmp .L87
 838               	.LM171:
 839 0352 FFB8      		out 47-32,r15
 840               	.L88:
 841               	.LM172:
 842 0354 779B      		sbis 46-32,7
 843 0356 00C0      		rjmp .L88
 844               	.LM173:
 845 0358 C49A      		sbi 56-32,4
 846               	.LBE267:
 847               	.LBE271:
 848               	.LBB272:
 849               	.LBB270:
 850               	.LM174:
 851 035a C498      		cbi 56-32,4
 852               	.LM175:
 853 035c EFB8      		out 47-32,r14
 854               	.L89:
 855               	.LM176:
 856 035e 779B      		sbis 46-32,7
 857 0360 00C0      		rjmp .L89
 858               	.LM177:
 859 0362 FFB8      		out 47-32,r15
 860               	.L90:
 861               	.LM178:
 862 0364 779B      		sbis 46-32,7
 863 0366 00C0      		rjmp .L90
 864               	.LM179:
 865 0368 C49A      		sbi 56-32,4
 866               	.LVL46:
 867               	.L113:
 868               	.LBE270:
 869               	.LBE272:
 870               	.LM180:
 871 036a 80E0      		ldi r24,lo8(0)
 872 036c 6FE1      		ldi r22,lo8(31)
 873 036e 0E94 0000 		call enc28j60ReadOp
 874 0372 83FD      		sbrc r24,3
 875 0374 00C0      		rjmp .L91
 876               	.LM181:
 877 0376 82E0      		ldi r24,lo8(2)
 878 0378 6FEF      		ldi r22,lo8(-1)
 879 037a 0E94 0000 		call enc28j60Write
 880               	.LM182:
 881 037e 83E0      		ldi r24,lo8(3)
 882 0380 69E1      		ldi r22,lo8(25)
 883 0382 0E94 0000 		call enc28j60Write
 884               	.LM183:
 885 0386 CE01      		movw r24,r28
 886 0388 8150      		subi r24,lo8(-(-1))
 887 038a 682F      		mov r22,r24
 888 038c 86E0      		ldi r24,lo8(6)
 889 038e 0E94 0000 		call enc28j60Write
 890               	.LM184:
 891 0392 9E01      		movw r18,r28
 892 0394 2150      		subi r18,lo8(-(6655))
 893 0396 364E      		sbci r19,hi8(-(6655))
 894 0398 87E0      		ldi r24,lo8(7)
 895 039a 632F      		mov r22,r19
 896 039c 0E94 0000 		call enc28j60Write
 897               	.LBB273:
 898               	.LBB274:
 899               	.LM185:
 900 03a0 C498      		cbi 56-32,4
 901               	.LM186:
 902 03a2 8AE7      		ldi r24,lo8(122)
 903 03a4 8FB9      		out 47-32,r24
 904               	.L92:
 905               	.LM187:
 906 03a6 779B      		sbis 46-32,7
 907 03a8 00C0      		rjmp .L92
 908               	.LM188:
 909 03aa 1FB8      		out 47-32,__zero_reg__
 910               	.L93:
 911               	.LM189:
 912 03ac 779B      		sbis 46-32,7
 913 03ae 00C0      		rjmp .L93
 914               	.LM190:
 915 03b0 C49A      		sbi 56-32,4
 916               	.LBE274:
 917               	.LBE273:
 918               	.LBB275:
 919               	.LBB276:
 920               	.LM191:
 921 03b2 C498      		cbi 56-32,4
 922               	.LM192:
 923 03b4 8AE7      		ldi r24,lo8(122)
 924 03b6 8FB9      		out 47-32,r24
 925               	.L94:
 926               	.LM193:
 927 03b8 779B      		sbis 46-32,7
 928 03ba 00C0      		rjmp .L94
 929 03bc 00C0      		rjmp .L114
 930               	.L97:
 931               	.LM194:
 932 03be F801      		movw r30,r16
 933 03c0 8081      		ld r24,Z
 934 03c2 8FB9      		out 47-32,r24
 935               	.L96:
 936               	.LM195:
 937 03c4 779B      		sbis 46-32,7
 938 03c6 00C0      		rjmp .L96
 939               	.LM196:
 940 03c8 2197      		sbiw r28,1
 941               	.LM197:
 942 03ca 0F5F      		subi r16,lo8(-(1))
 943 03cc 1F4F      		sbci r17,hi8(-(1))
 944               	.L114:
 945               	.LM198:
 946 03ce 2097      		sbiw r28,0
 947 03d0 01F4      		brne .L97
 948               	.LM199:
 949 03d2 C49A      		sbi 56-32,4
 950               	.LBE276:
 951               	.LBE275:
 952               	.LBB277:
 953               	.LBB278:
 954               	.LM200:
 955 03d4 C498      		cbi 56-32,4
 956               	.LM201:
 957 03d6 8FE9      		ldi r24,lo8(-97)
 958 03d8 8FB9      		out 47-32,r24
 959               	.L98:
 960               	.LM202:
 961 03da 779B      		sbis 46-32,7
 962 03dc 00C0      		rjmp .L98
 963               	.LM203:
 964 03de 88E0      		ldi r24,lo8(8)
 965 03e0 8FB9      		out 47-32,r24
 966               	.L99:
 967               	.LM204:
 968 03e2 779B      		sbis 46-32,7
 969 03e4 00C0      		rjmp .L99
 970               	.LM205:
 971 03e6 C49A      		sbi 56-32,4
 972               	/* epilogue start */
 973               	.LBE278:
 974               	.LBE277:
 975               	.LM206:
 976 03e8 DF91      		pop r29
 977 03ea CF91      		pop r28
 978               	.LVL47:
 979 03ec 1F91      		pop r17
 980 03ee 0F91      		pop r16
 981               	.LVL48:
 982 03f0 FF90      		pop r15
 983 03f2 EF90      		pop r14
 984 03f4 DF90      		pop r13
 985 03f6 0895      		ret
 986               	.LFE20:
 988               	.global	enc28j60hasRxPkt
 990               	enc28j60hasRxPkt:
 991               	.LFB21:
 992               	.LM207:
 993               	/* prologue: function */
 994               	/* frame size = 0 */
 995               	.LM208:
 996 03f8 89E3      		ldi r24,lo8(57)
 997 03fa 0E94 0000 		call enc28j60Read
 998 03fe 8111      		cpse r24,__zero_reg__
 999 0400 81E0      		ldi r24,lo8(1)
 1000               	.L116:
 1001               	.LM209:
 1002 0402 0895      		ret
 1003               	.LFE21:
 1005               	.global	enc28j60PacketReceive
 1007               	enc28j60PacketReceive:
 1008               	.LFB22:
 1009               	.LM210:
 1010               	.LVL49:
 1011 0404 8F92      		push r8
 1012 0406 9F92      		push r9
 1013 0408 AF92      		push r10
 1014 040a BF92      		push r11
 1015 040c CF92      		push r12
 1016 040e DF92      		push r13
 1017 0410 EF92      		push r14
 1018 0412 FF92      		push r15
 1019 0414 0F93      		push r16
 1020 0416 1F93      		push r17
 1021 0418 CF93      		push r28
 1022 041a DF93      		push r29
 1023               	/* prologue: function */
 1024               	/* frame size = 0 */
 1025 041c 5C01      		movw r10,r24
 1026 041e 4B01      		movw r8,r22
 1027               	.LM211:
 1028 0420 89E3      		ldi r24,lo8(57)
 1029               	.LVL50:
 1030 0422 0E94 0000 		call enc28j60Read
 1031               	.LVL51:
 1032 0426 8823      		tst r24
 1033 0428 01F4      		brne .L119
 1034 042a C0E0      		ldi r28,lo8(0)
 1035 042c D0E0      		ldi r29,hi8(0)
 1036               	.LVL52:
 1037 042e 00C0      		rjmp .L120
 1038               	.LVL53:
 1039               	.L119:
 1040               	.LM212:
 1041 0430 6091 0000 		lds r22,gNextPacketPtr
 1042 0434 1091 0000 		lds r17,gNextPacketPtr+1
 1043 0438 80E0      		ldi r24,lo8(0)
 1044 043a 0E94 0000 		call enc28j60Write
 1045               	.LM213:
 1046 043e 81E0      		ldi r24,lo8(1)
 1047 0440 612F      		mov r22,r17
 1048 0442 0E94 0000 		call enc28j60Write
 1049               	.LM214:
 1050 0446 8AE3      		ldi r24,lo8(58)
 1051 0448 60E0      		ldi r22,lo8(0)
 1052 044a 0E94 0000 		call enc28j60ReadOp
 1053 044e 182F      		mov r17,r24
 1054               	.LM215:
 1055 0450 8AE3      		ldi r24,lo8(58)
 1056 0452 60E0      		ldi r22,lo8(0)
 1057 0454 0E94 0000 		call enc28j60ReadOp
 1058 0458 382F      		mov r19,r24
 1059 045a 20E0      		ldi r18,lo8(0)
 1060 045c E12E      		mov r14,r17
 1061 045e FF24      		clr r15
 1062 0460 E22A      		or r14,r18
 1063 0462 F32A      		or r15,r19
 1064 0464 F092 0000 		sts (gNextPacketPtr)+1,r15
 1065 0468 E092 0000 		sts gNextPacketPtr,r14
 1066               	.LM216:
 1067 046c 8AE3      		ldi r24,lo8(58)
 1068 046e 60E0      		ldi r22,lo8(0)
 1069 0470 0E94 0000 		call enc28j60ReadOp
 1070 0474 C82E      		mov r12,r24
 1071               	.LM217:
 1072 0476 8AE3      		ldi r24,lo8(58)
 1073 0478 60E0      		ldi r22,lo8(0)
 1074 047a 0E94 0000 		call enc28j60ReadOp
 1075 047e D82E      		mov r13,r24
 1076               	.LM218:
 1077 0480 8AE3      		ldi r24,lo8(58)
 1078 0482 60E0      		ldi r22,lo8(0)
 1079 0484 0E94 0000 		call enc28j60ReadOp
 1080 0488 082F      		mov r16,r24
 1081               	.LVL54:
 1082 048a 10E0      		ldi r17,lo8(0)
 1083               	.LVL55:
 1084               	.LM219:
 1085 048c 8AE3      		ldi r24,lo8(58)
 1086 048e 60E0      		ldi r22,lo8(0)
 1087 0490 0E94 0000 		call enc28j60ReadOp
 1088               	.LM220:
 1089 0494 382F      		mov r19,r24
 1090 0496 20E0      		ldi r18,lo8(0)
 1091 0498 202B      		or r18,r16
 1092 049a 312B      		or r19,r17
 1093 049c 27FD      		sbrc r18,7
 1094 049e 00C0      		rjmp .L121
 1095 04a0 C0E0      		ldi r28,lo8(0)
 1096 04a2 D0E0      		ldi r29,hi8(0)
 1097               	.LVL56:
 1098 04a4 00C0      		rjmp .L122
 1099               	.LVL57:
 1100               	.L121:
 1101               	.LM221:
 1102 04a6 CC2D      		mov r28,r12
 1103               	.LVL58:
 1104 04a8 D0E0      		ldi r29,lo8(0)
 1105               	.LVL59:
 1106               	.LM222:
 1107 04aa 9D2D      		mov r25,r13
 1108 04ac 80E0      		ldi r24,lo8(0)
 1109 04ae C82B      		or r28,r24
 1110 04b0 D92B      		or r29,r25
 1111               	.LVL60:
 1112               	.LM223:
 1113 04b2 C501      		movw r24,r10
 1114 04b4 0197      		sbiw r24,1
 1115 04b6 2497      		sbiw r28,4
 1116 04b8 8C17      		cp r24,r28
 1117 04ba 9D07      		cpc r25,r29
 1118 04bc 00F4      		brsh .L123
 1119 04be EC01      		movw r28,r24
 1120               	.L123:
 1121               	.LM224:
 1122 04c0 CE01      		movw r24,r28
 1123 04c2 B401      		movw r22,r8
 1124 04c4 0E94 0000 		call enc28j60ReadBuffer
 1125               	.L122:
 1126               	.LM225:
 1127 04c8 DE2C      		mov r13,r14
 1128 04ca 8CE0      		ldi r24,lo8(12)
 1129 04cc 6E2D      		mov r22,r14
 1130 04ce 0E94 0000 		call enc28j60Write
 1131               	.LM226:
 1132 04d2 8DE0      		ldi r24,lo8(13)
 1133 04d4 6F2D      		mov r22,r15
 1134 04d6 0E94 0000 		call enc28j60Write
 1135               	.LM227:
 1136 04da 8701      		movw r16,r14
 1137               	.LVL61:
 1138 04dc 0150      		subi r16,lo8(-(-1))
 1139 04de 1040      		sbci r17,hi8(-(-1))
 1140 04e0 89E1      		ldi r24,hi8(6655)
 1141 04e2 0F3F      		cpi r16,lo8(6655)
 1142 04e4 1807      		cpc r17,r24
 1143 04e6 00F0      		brlo .L124
 1144               	.LM228:
 1145 04e8 8CE0      		ldi r24,lo8(12)
 1146 04ea 6EEF      		ldi r22,lo8(-2)
 1147 04ec 0E94 0000 		call enc28j60Write
 1148               	.LM229:
 1149 04f0 8DE0      		ldi r24,lo8(13)
 1150 04f2 69E1      		ldi r22,lo8(25)
 1151 04f4 00C0      		rjmp .L131
 1152               	.L124:
 1153               	.LM230:
 1154 04f6 DA94      		dec r13
 1155 04f8 8CE0      		ldi r24,lo8(12)
 1156 04fa 6D2D      		mov r22,r13
 1157 04fc 0E94 0000 		call enc28j60Write
 1158               	.LM231:
 1159 0500 8DE0      		ldi r24,lo8(13)
 1160 0502 612F      		mov r22,r17
 1161               	.LVL62:
 1162               	.L131:
 1163 0504 0E94 0000 		call enc28j60Write
 1164               	.LBB279:
 1165               	.LBB280:
 1166               	.LM232:
 1167 0508 C498      		cbi 56-32,4
 1168               	.LM233:
 1169 050a 8EE9      		ldi r24,lo8(-98)
 1170 050c 8FB9      		out 47-32,r24
 1171               	.L126:
 1172               	.LM234:
 1173 050e 779B      		sbis 46-32,7
 1174 0510 00C0      		rjmp .L126
 1175               	.LM235:
 1176 0512 80E4      		ldi r24,lo8(64)
 1177 0514 8FB9      		out 47-32,r24
 1178               	.L127:
 1179               	.LM236:
 1180 0516 779B      		sbis 46-32,7
 1181 0518 00C0      		rjmp .L127
 1182               	.LM237:
 1183 051a C49A      		sbi 56-32,4
 1184               	.L120:
 1185               	.LBE280:
 1186               	.LBE279:
 1187               	.LM238:
 1188 051c CE01      		movw r24,r28
 1189               	.LVL63:
 1190               	/* epilogue start */
 1191 051e DF91      		pop r29
 1192               	.LVL64:
 1193 0520 CF91      		pop r28
 1194 0522 1F91      		pop r17
 1195               	.LVL65:
 1196 0524 0F91      		pop r16
 1197 0526 FF90      		pop r15
 1198 0528 EF90      		pop r14
 1199 052a DF90      		pop r13
 1200 052c CF90      		pop r12
 1201 052e BF90      		pop r11
 1202 0530 AF90      		pop r10
 1203               	.LVL66:
 1204 0532 9F90      		pop r9
 1205 0534 8F90      		pop r8
 1206               	.LVL67:
 1207 0536 0895      		ret
 1208               	.LFE22:
 1210               	.global	checksum
 1212               	checksum:
 1213               	.LFB23:
 1214               	.LM239:
 1215               	.LVL68:
 1216 0538 CF92      		push r12
 1217 053a DF92      		push r13
 1218 053c EF92      		push r14
 1219 053e FF92      		push r15
 1220 0540 0F93      		push r16
 1221 0542 1F93      		push r17
 1222 0544 CF93      		push r28
 1223 0546 DF93      		push r29
 1224               	/* prologue: function */
 1225               	/* frame size = 0 */
 1226 0548 6C01      		movw r12,r24
 1227               	.LM240:
 1228 054a 4130      		cpi r20,lo8(1)
 1229 054c 01F4      		brne .L133
 1230               	.LVL69:
 1231               	.LM241:
 1232 054e 6850      		subi r22,lo8(-(-8))
 1233 0550 7040      		sbci r23,hi8(-(-8))
 1234               	.LVL70:
 1235 0552 7B01      		movw r14,r22
 1236               	.LVL71:
 1237 0554 00E0      		ldi r16,lo8(0)
 1238 0556 10E0      		ldi r17,hi8(0)
 1239               	.LVL72:
 1240 0558 685F      		subi r22,lo8(-(8))
 1241 055a 7F4F      		sbci r23,hi8(-(8))
 1242 055c 21E1      		ldi r18,lo8(17)
 1243 055e 30E0      		ldi r19,hi8(17)
 1244 0560 40E0      		ldi r20,hlo8(17)
 1245 0562 50E0      		ldi r21,hhi8(17)
 1246 0564 E20E      		add r14,r18
 1247 0566 F31E      		adc r15,r19
 1248 0568 041F      		adc r16,r20
 1249 056a 151F      		adc r17,r21
 1250               	.LVL73:
 1251 056c 00C0      		rjmp .L134
 1252               	.LVL74:
 1253               	.L133:
 1254               	.LM242:
 1255 056e 4230      		cpi r20,lo8(2)
 1256 0570 01F0      		breq .L135
 1257 0572 EE24      		clr r14
 1258 0574 FF24      		clr r15
 1259 0576 8701      		movw r16,r14
 1260               	.LVL75:
 1261 0578 00C0      		rjmp .L134
 1262               	.LVL76:
 1263               	.L135:
 1264               	.LM243:
 1265 057a 6850      		subi r22,lo8(-(-8))
 1266 057c 7040      		sbci r23,hi8(-(-8))
 1267               	.LVL77:
 1268 057e 7B01      		movw r14,r22
 1269               	.LVL78:
 1270 0580 00E0      		ldi r16,lo8(0)
 1271 0582 10E0      		ldi r17,hi8(0)
 1272               	.LVL79:
 1273 0584 685F      		subi r22,lo8(-(8))
 1274 0586 7F4F      		sbci r23,hi8(-(8))
 1275 0588 86E0      		ldi r24,lo8(6)
 1276 058a 90E0      		ldi r25,hi8(6)
 1277 058c A0E0      		ldi r26,hlo8(6)
 1278 058e B0E0      		ldi r27,hhi8(6)
 1279 0590 E80E      		add r14,r24
 1280 0592 F91E      		adc r15,r25
 1281 0594 0A1F      		adc r16,r26
 1282 0596 1B1F      		adc r17,r27
 1283               	.LVL80:
 1284               	.L134:
 1285 0598 F601      		movw r30,r12
 1286 059a EB01      		movw r28,r22
 1287 059c 00C0      		rjmp .L136
 1288               	.LVL81:
 1289               	.L137:
 1290               	.LM244:
 1291 059e 8081      		ld r24,Z
 1292 05a0 90E0      		ldi r25,lo8(0)
 1293 05a2 A0E0      		ldi r26,lo8(0)
 1294 05a4 B0E0      		ldi r27,hi8(0)
 1295 05a6 BA2F      		mov r27,r26
 1296 05a8 A92F      		mov r26,r25
 1297 05aa 982F      		mov r25,r24
 1298 05ac 8827      		clr r24
 1299 05ae 2181      		ldd r18,Z+1
 1300 05b0 30E0      		ldi r19,lo8(0)
 1301 05b2 40E0      		ldi r20,lo8(0)
 1302 05b4 50E0      		ldi r21,hi8(0)
 1303               	.LVL82:
 1304 05b6 822B      		or r24,r18
 1305 05b8 932B      		or r25,r19
 1306 05ba A42B      		or r26,r20
 1307 05bc B52B      		or r27,r21
 1308 05be E80E      		add r14,r24
 1309 05c0 F91E      		adc r15,r25
 1310 05c2 0A1F      		adc r16,r26
 1311 05c4 1B1F      		adc r17,r27
 1312               	.LM245:
 1313 05c6 3296      		adiw r30,2
 1314               	.LM246:
 1315 05c8 2297      		sbiw r28,2
 1316               	.LVL83:
 1317               	.L136:
 1318               	.LM247:
 1319 05ca C230      		cpi r28,2
 1320 05cc D105      		cpc r29,__zero_reg__
 1321 05ce 00F4      		brsh .L137
 1322 05d0 FB01      		movw r30,r22
 1323               	.LVL84:
 1324 05d2 EE7F      		andi r30,lo8(-2)
 1325 05d4 EC0D      		add r30,r12
 1326 05d6 FD1D      		adc r31,r13
 1327               	.LM248:
 1328 05d8 60FF      		sbrs r22,0
 1329 05da 00C0      		rjmp .L141
 1330               	.LVL85:
 1331               	.LM249:
 1332 05dc 8081      		ld r24,Z
 1333 05de 90E0      		ldi r25,lo8(0)
 1334 05e0 A0E0      		ldi r26,lo8(0)
 1335 05e2 B0E0      		ldi r27,hi8(0)
 1336 05e4 BA2F      		mov r27,r26
 1337 05e6 A92F      		mov r26,r25
 1338 05e8 982F      		mov r25,r24
 1339 05ea 8827      		clr r24
 1340 05ec 00C0      		rjmp .L142
 1341               	.LVL86:
 1342               	.L139:
 1343               	.LM250:
 1344 05ee 2FEF      		ldi r18,lo8(65535)
 1345 05f0 3FEF      		ldi r19,hi8(65535)
 1346 05f2 40E0      		ldi r20,hlo8(65535)
 1347 05f4 50E0      		ldi r21,hhi8(65535)
 1348 05f6 E222      		and r14,r18
 1349 05f8 F322      		and r15,r19
 1350 05fa 0423      		and r16,r20
 1351 05fc 1523      		and r17,r21
 1352               	.LVL87:
 1353               	.L142:
 1354 05fe E80E      		add r14,r24
 1355 0600 F91E      		adc r15,r25
 1356 0602 0A1F      		adc r16,r26
 1357 0604 1B1F      		adc r17,r27
 1358               	.L141:
 1359               	.LM251:
 1360 0606 C801      		movw r24,r16
 1361 0608 AA27      		clr r26
 1362 060a BB27      		clr r27
 1363               	.LVL88:
 1364 060c 0097      		sbiw r24,0
 1365 060e A105      		cpc r26,__zero_reg__
 1366 0610 B105      		cpc r27,__zero_reg__
 1367 0612 01F4      		brne .L139
 1368 0614 9701      		movw r18,r14
 1369               	.LVL89:
 1370 0616 2095      		com r18
 1371 0618 3095      		com r19
 1372               	.LM252:
 1373 061a C901      		movw r24,r18
 1374               	/* epilogue start */
 1375 061c DF91      		pop r29
 1376 061e CF91      		pop r28
 1377 0620 1F91      		pop r17
 1378 0622 0F91      		pop r16
 1379               	.LVL90:
 1380 0624 FF90      		pop r15
 1381 0626 EF90      		pop r14
 1382 0628 DF90      		pop r13
 1383 062a CF90      		pop r12
 1384 062c 0895      		ret
 1385               	.LFE23:
 1387               	.global	init_ip_arp_udp_tcp
 1389               	init_ip_arp_udp_tcp:
 1390               	.LFB24:
 1391               	.LM253:
 1392               	.LVL91:
 1393 062e CF93      		push r28
 1394 0630 DF93      		push r29
 1395               	/* prologue: function */
 1396               	/* frame size = 0 */
 1397 0632 EC01      		movw r28,r24
 1398               	.LM254:
 1399 0634 5093 0000 		sts wwwport_h,r21
 1400               	.LVL92:
 1401               	.LM255:
 1402 0638 4093 0000 		sts wwwport_l,r20
 1403 063c 20E0      		ldi r18,lo8(0)
 1404 063e 30E0      		ldi r19,hi8(0)
 1405               	.LVL93:
 1406               	.L144:
 1407               	.LM256:
 1408 0640 F901      		movw r30,r18
 1409 0642 E050      		subi r30,lo8(-(ipaddr))
 1410 0644 F040      		sbci r31,hi8(-(ipaddr))
 1411 0646 DB01      		movw r26,r22
 1412 0648 A20F      		add r26,r18
 1413 064a B31F      		adc r27,r19
 1414 064c 8C91      		ld r24,X
 1415 064e 8083      		st Z,r24
 1416 0650 2F5F      		subi r18,lo8(-(1))
 1417 0652 3F4F      		sbci r19,hi8(-(1))
 1418               	.LM257:
 1419 0654 2430      		cpi r18,4
 1420 0656 3105      		cpc r19,__zero_reg__
 1421 0658 01F4      		brne .L144
 1422 065a 20E0      		ldi r18,lo8(0)
 1423 065c 30E0      		ldi r19,hi8(0)
 1424               	.L145:
 1425               	.LM258:
 1426 065e F901      		movw r30,r18
 1427 0660 E050      		subi r30,lo8(-(macaddr))
 1428 0662 F040      		sbci r31,hi8(-(macaddr))
 1429 0664 DE01      		movw r26,r28
 1430 0666 A20F      		add r26,r18
 1431 0668 B31F      		adc r27,r19
 1432 066a 8C91      		ld r24,X
 1433 066c 8083      		st Z,r24
 1434 066e 2F5F      		subi r18,lo8(-(1))
 1435 0670 3F4F      		sbci r19,hi8(-(1))
 1436               	.LM259:
 1437 0672 2630      		cpi r18,6
 1438 0674 3105      		cpc r19,__zero_reg__
 1439 0676 01F4      		brne .L145
 1440               	/* epilogue start */
 1441               	.LM260:
 1442 0678 DF91      		pop r29
 1443 067a CF91      		pop r28
 1444               	.LVL94:
 1445 067c 0895      		ret
 1446               	.LFE24:
 1448               	.global	check_ip_message_is_from
 1450               	check_ip_message_is_from:
 1451               	.LFB25:
 1452               	.LM261:
 1453               	.LVL95:
 1454               	/* prologue: function */
 1455               	/* frame size = 0 */
 1456               	.LM262:
 1457 067e DC01      		movw r26,r24
 1458               	.LVL96:
 1459 0680 20E0      		ldi r18,lo8(0)
 1460 0682 30E0      		ldi r19,hi8(0)
 1461               	.L152:
 1462               	.LM263:
 1463 0684 FB01      		movw r30,r22
 1464 0686 E20F      		add r30,r18
 1465 0688 F31F      		adc r31,r19
 1466 068a 5A96      		adiw r26,26
 1467 068c 9C91      		ld r25,X
 1468 068e 5A97      		sbiw r26,26
 1469 0690 8081      		ld r24,Z
 1470 0692 9817      		cp r25,r24
 1471 0694 01F0      		breq .L150
 1472 0696 80E0      		ldi r24,lo8(0)
 1473 0698 0895      		ret
 1474               	.L150:
 1475 069a 2F5F      		subi r18,lo8(-(1))
 1476 069c 3F4F      		sbci r19,hi8(-(1))
 1477 069e 1196      		adiw r26,1
 1478               	.LM264:
 1479 06a0 2430      		cpi r18,4
 1480 06a2 3105      		cpc r19,__zero_reg__
 1481 06a4 01F4      		brne .L152
 1482 06a6 81E0      		ldi r24,lo8(1)
 1483               	.LM265:
 1484 06a8 0895      		ret
 1485               	.LFE25:
 1487               	.global	eth_type_is_arp_and_my_ip
 1489               	eth_type_is_arp_and_my_ip:
 1490               	.LFB26:
 1491               	.LM266:
 1492               	.LVL97:
 1493               	/* prologue: function */
 1494               	/* frame size = 0 */
 1495 06aa FC01      		movw r30,r24
 1496               	.LM267:
 1497 06ac 6932      		cpi r22,41
 1498 06ae 7105      		cpc r23,__zero_reg__
 1499 06b0 00F0      		brlo .L156
 1500               	.LVL98:
 1501               	.LM268:
 1502 06b2 8485      		ldd r24,Z+12
 1503 06b4 8830      		cpi r24,lo8(8)
 1504 06b6 01F4      		brne .L156
 1505 06b8 8585      		ldd r24,Z+13
 1506 06ba 8630      		cpi r24,lo8(6)
 1507 06bc 01F4      		brne .L156
 1508 06be DF01      		movw r26,r30
 1509 06c0 9696      		adiw r26,38
 1510 06c2 E0E0      		ldi r30,lo8(ipaddr)
 1511 06c4 F0E0      		ldi r31,hi8(ipaddr)
 1512               	.LVL99:
 1513               	.L157:
 1514               	.LM269:
 1515 06c6 9C91      		ld r25,X
 1516 06c8 8081      		ld r24,Z
 1517 06ca 9817      		cp r25,r24
 1518 06cc 01F4      		brne .L156
 1519 06ce 1196      		adiw r26,1
 1520 06d0 3196      		adiw r30,1
 1521               	.LM270:
 1522 06d2 80E0      		ldi r24,hi8(ipaddr+4)
 1523 06d4 E030      		cpi r30,lo8(ipaddr+4)
 1524 06d6 F807      		cpc r31,r24
 1525 06d8 01F4      		brne .L157
 1526 06da 81E0      		ldi r24,lo8(1)
 1527 06dc 0895      		ret
 1528               	.LVL100:
 1529               	.L156:
 1530 06de 80E0      		ldi r24,lo8(0)
 1531               	.LM271:
 1532 06e0 0895      		ret
 1533               	.LFE26:
 1535               	.global	eth_type_is_ip_and_my_ip
 1537               	eth_type_is_ip_and_my_ip:
 1538               	.LFB27:
 1539               	.LM272:
 1540               	.LVL101:
 1541               	/* prologue: function */
 1542               	/* frame size = 0 */
 1543 06e2 FC01      		movw r30,r24
 1544               	.LM273:
 1545 06e4 6A32      		cpi r22,42
 1546 06e6 7105      		cpc r23,__zero_reg__
 1547 06e8 00F0      		brlo .L162
 1548               	.LVL102:
 1549               	.LM274:
 1550 06ea 8485      		ldd r24,Z+12
 1551 06ec 8830      		cpi r24,lo8(8)
 1552 06ee 01F4      		brne .L162
 1553 06f0 8585      		ldd r24,Z+13
 1554 06f2 8823      		tst r24
 1555 06f4 01F4      		brne .L162
 1556               	.LM275:
 1557 06f6 8685      		ldd r24,Z+14
 1558 06f8 8534      		cpi r24,lo8(69)
 1559 06fa 01F4      		brne .L162
 1560 06fc DF01      		movw r26,r30
 1561 06fe E0E0      		ldi r30,lo8(ipaddr)
 1562 0700 F0E0      		ldi r31,hi8(ipaddr)
 1563               	.LVL103:
 1564               	.L163:
 1565               	.LM276:
 1566 0702 5E96      		adiw r26,30
 1567 0704 9C91      		ld r25,X
 1568 0706 5E97      		sbiw r26,30
 1569 0708 8081      		ld r24,Z
 1570 070a 9817      		cp r25,r24
 1571 070c 01F4      		brne .L162
 1572 070e 1196      		adiw r26,1
 1573 0710 3196      		adiw r30,1
 1574               	.LM277:
 1575 0712 80E0      		ldi r24,hi8(ipaddr+4)
 1576 0714 E030      		cpi r30,lo8(ipaddr+4)
 1577 0716 F807      		cpc r31,r24
 1578 0718 01F4      		brne .L163
 1579 071a 81E0      		ldi r24,lo8(1)
 1580 071c 0895      		ret
 1581               	.LVL104:
 1582               	.L162:
 1583 071e 80E0      		ldi r24,lo8(0)
 1584               	.LM278:
 1585 0720 0895      		ret
 1586               	.LFE27:
 1588               	.global	make_eth
 1590               	make_eth:
 1591               	.LFB28:
 1592               	.LM279:
 1593               	.LVL105:
 1594               	/* prologue: function */
 1595               	/* frame size = 0 */
 1596               	.LM280:
 1597 0722 FC01      		movw r30,r24
 1598               	.LVL106:
 1599 0724 A0E0      		ldi r26,lo8(macaddr)
 1600 0726 B0E0      		ldi r27,hi8(macaddr)
 1601               	.L168:
 1602               	.LM281:
 1603 0728 8681      		ldd r24,Z+6
 1604 072a 8083      		st Z,r24
 1605               	.LM282:
 1606 072c 8D91      		ld r24,X+
 1607 072e 8683      		std Z+6,r24
 1608 0730 3196      		adiw r30,1
 1609               	.LM283:
 1610 0732 80E0      		ldi r24,hi8(macaddr+6)
 1611 0734 A030      		cpi r26,lo8(macaddr+6)
 1612 0736 B807      		cpc r27,r24
 1613 0738 01F4      		brne .L168
 1614               	/* epilogue start */
 1615               	.LM284:
 1616 073a 0895      		ret
 1617               	.LFE28:
 1619               	.global	fill_ip_hdr_checksum
 1621               	fill_ip_hdr_checksum:
 1622               	.LFB29:
 1623               	.LM285:
 1624               	.LVL107:
 1625 073c 0F93      		push r16
 1626 073e 1F93      		push r17
 1627               	/* prologue: function */
 1628               	/* frame size = 0 */
 1629 0740 8C01      		movw r16,r24
 1630               	.LM286:
 1631 0742 FC01      		movw r30,r24
 1632 0744 108E      		std Z+24,__zero_reg__
 1633               	.LM287:
 1634 0746 118E      		std Z+25,__zero_reg__
 1635               	.LM288:
 1636 0748 80E4      		ldi r24,lo8(64)
 1637               	.LVL108:
 1638 074a 848B      		std Z+20,r24
 1639               	.LM289:
 1640 074c 158A      		std Z+21,__zero_reg__
 1641               	.LM290:
 1642 074e 868B      		std Z+22,r24
 1643               	.LM291:
 1644 0750 C801      		movw r24,r16
 1645 0752 0E96      		adiw r24,14
 1646 0754 64E1      		ldi r22,lo8(20)
 1647 0756 70E0      		ldi r23,hi8(20)
 1648 0758 40E0      		ldi r20,lo8(0)
 1649 075a 0E94 0000 		call checksum
 1650               	.LM292:
 1651 075e F801      		movw r30,r16
 1652 0760 908F      		std Z+24,r25
 1653               	.LM293:
 1654 0762 818F      		std Z+25,r24
 1655               	/* epilogue start */
 1656               	.LM294:
 1657 0764 1F91      		pop r17
 1658 0766 0F91      		pop r16
 1659               	.LVL109:
 1660 0768 0895      		ret
 1661               	.LFE29:
 1663               	.global	make_ip
 1665               	make_ip:
 1666               	.LFB30:
 1667               	.LM295:
 1668               	.LVL110:
 1669               	/* prologue: function */
 1670               	/* frame size = 0 */
 1671 076a AC01      		movw r20,r24
 1672               	.LVL111:
 1673               	.LM296:
 1674 076c FC01      		movw r30,r24
 1675 076e A0E0      		ldi r26,lo8(ipaddr)
 1676 0770 B0E0      		ldi r27,hi8(ipaddr)
 1677               	.L174:
 1678               	.LM297:
 1679 0772 828D      		ldd r24,Z+26
 1680 0774 868F      		std Z+30,r24
 1681               	.LM298:
 1682 0776 8D91      		ld r24,X+
 1683 0778 828F      		std Z+26,r24
 1684 077a 3196      		adiw r30,1
 1685               	.LM299:
 1686 077c 80E0      		ldi r24,hi8(ipaddr+4)
 1687 077e A030      		cpi r26,lo8(ipaddr+4)
 1688 0780 B807      		cpc r27,r24
 1689 0782 01F4      		brne .L174
 1690               	.LM300:
 1691 0784 CA01      		movw r24,r20
 1692 0786 0E94 0000 		call fill_ip_hdr_checksum
 1693               	/* epilogue start */
 1694               	.LM301:
 1695 078a 0895      		ret
 1696               	.LFE30:
 1698               	.global	step_seq
 1700               	step_seq:
 1701               	.LFB31:
 1702               	.LM302:
 1703               	.LVL112:
 1704               	/* prologue: function */
 1705               	/* frame size = 0 */
 1706               	.LM303:
 1707 078c FC01      		movw r30,r24
 1708 078e B996      		adiw r30,41
 1709 0790 94E0      		ldi r25,lo8(4)
 1710               	.LVL113:
 1711               	.L181:
 1712               	.LM304:
 1713 0792 8081      		ld r24,Z
 1714               	.LVL114:
 1715 0794 680F      		add r22,r24
 1716 0796 711D      		adc r23,__zero_reg__
 1717               	.LVL115:
 1718               	.LM305:
 1719 0798 8481      		ldd r24,Z+4
 1720               	.LVL116:
 1721               	.LM306:
 1722 079a 6483      		std Z+4,r22
 1723               	.LM307:
 1724 079c 4423      		tst r20
 1725 079e 01F0      		breq .L178
 1726               	.LM308:
 1727 07a0 8083      		st Z,r24
 1728 07a2 00C0      		rjmp .L179
 1729               	.L178:
 1730               	.LM309:
 1731 07a4 1082      		st Z,__zero_reg__
 1732               	.L179:
 1733               	.LM310:
 1734 07a6 9150      		subi r25,lo8(-(-1))
 1735 07a8 3197      		sbiw r30,1
 1736               	.LM311:
 1737 07aa 9923      		tst r25
 1738 07ac 01F0      		breq .L182
 1739               	.LM312:
 1740 07ae 672F      		mov r22,r23
 1741 07b0 7727      		clr r23
 1742               	.LVL117:
 1743 07b2 00C0      		rjmp .L181
 1744               	.L182:
 1745 07b4 0895      		ret
 1746               	.LFE31:
 1748               	.global	make_tcphead
 1750               	make_tcphead:
 1751               	.LFB32:
 1752               	.LM313:
 1753               	.LVL118:
 1754 07b6 0F93      		push r16
 1755 07b8 1F93      		push r17
 1756               	/* prologue: function */
 1757               	/* frame size = 0 */
 1758 07ba 8C01      		movw r16,r24
 1759               	.LM314:
 1760 07bc FC01      		movw r30,r24
 1761 07be 94A1      		ldd r25,Z+36
 1762               	.LVL119:
 1763               	.LM315:
 1764 07c0 82A1      		ldd r24,Z+34
 1765               	.LVL120:
 1766 07c2 84A3      		std Z+36,r24
 1767               	.LM316:
 1768 07c4 92A3      		std Z+34,r25
 1769               	.LM317:
 1770 07c6 95A1      		ldd r25,Z+37
 1771               	.LVL121:
 1772               	.LM318:
 1773 07c8 83A1      		ldd r24,Z+35
 1774 07ca 85A3      		std Z+37,r24
 1775               	.LM319:
 1776 07cc 93A3      		std Z+35,r25
 1777               	.LM320:
 1778 07ce C801      		movw r24,r16
 1779 07d0 0E94 0000 		call step_seq
 1780               	.LVL122:
 1781               	.LM321:
 1782 07d4 F801      		movw r30,r16
 1783 07d6 12AA      		std Z+50,__zero_reg__
 1784               	.LM322:
 1785 07d8 13AA      		std Z+51,__zero_reg__
 1786               	.LM323:
 1787 07da 80E5      		ldi r24,lo8(80)
 1788 07dc 86A7      		std Z+46,r24
 1789               	/* epilogue start */
 1790               	.LM324:
 1791 07de 1F91      		pop r17
 1792 07e0 0F91      		pop r16
 1793               	.LVL123:
 1794 07e2 0895      		ret
 1795               	.LFE32:
 1797               	.global	make_arp_answer_from_request
 1799               	make_arp_answer_from_request:
 1800               	.LFB33:
 1801               	.LM325:
 1802               	.LVL124:
 1803 07e4 CF93      		push r28
 1804 07e6 DF93      		push r29
 1805               	/* prologue: function */
 1806               	/* frame size = 0 */
 1807 07e8 AC01      		movw r20,r24
 1808               	.LM326:
 1809 07ea EC01      		movw r28,r24
 1810 07ec 20E0      		ldi r18,lo8(macaddr)
 1811 07ee 30E0      		ldi r19,hi8(macaddr)
 1812 07f0 FC01      		movw r30,r24
 1813 07f2 D901      		movw r26,r18
 1814               	.L186:
 1815               	.LBB281:
 1816               	.LBB282:
 1817               	.LM327:
 1818 07f4 8681      		ldd r24,Z+6
 1819               	.LVL125:
 1820 07f6 8083      		st Z,r24
 1821               	.LM328:
 1822 07f8 8D91      		ld r24,X+
 1823 07fa 8683      		std Z+6,r24
 1824 07fc 3196      		adiw r30,1
 1825               	.LM329:
 1826 07fe 80E0      		ldi r24,hi8(macaddr+6)
 1827 0800 A030      		cpi r26,lo8(macaddr+6)
 1828 0802 B807      		cpc r27,r24
 1829 0804 01F4      		brne .L186
 1830               	.LBE282:
 1831               	.LBE281:
 1832               	.LM330:
 1833 0806 FA01      		movw r30,r20
 1834 0808 148A      		std Z+20,__zero_reg__
 1835               	.LM331:
 1836 080a 82E0      		ldi r24,lo8(2)
 1837 080c 858B      		std Z+21,r24
 1838               	.L187:
 1839               	.LM332:
 1840 080e 8E89      		ldd r24,Y+22
 1841 0810 88A3      		std Y+32,r24
 1842               	.LM333:
 1843 0812 F901      		movw r30,r18
 1844 0814 8191      		ld r24,Z+
 1845 0816 9F01      		movw r18,r30
 1846 0818 8E8B      		std Y+22,r24
 1847 081a 2196      		adiw r28,1
 1848               	.LM334:
 1849 081c F0E0      		ldi r31,hi8(macaddr+6)
 1850 081e 2030      		cpi r18,lo8(macaddr+6)
 1851 0820 3F07      		cpc r19,r31
 1852 0822 01F4      		brne .L187
 1853 0824 FA01      		movw r30,r20
 1854 0826 7C96      		adiw r30,28
 1855 0828 A0E0      		ldi r26,lo8(ipaddr)
 1856 082a B0E0      		ldi r27,hi8(ipaddr)
 1857               	.L188:
 1858               	.LM335:
 1859 082c 8081      		ld r24,Z
 1860 082e 8287      		std Z+10,r24
 1861               	.LM336:
 1862 0830 8D91      		ld r24,X+
 1863 0832 8193      		st Z+,r24
 1864               	.LM337:
 1865 0834 80E0      		ldi r24,hi8(ipaddr+4)
 1866 0836 A030      		cpi r26,lo8(ipaddr+4)
 1867 0838 B807      		cpc r27,r24
 1868 083a 01F4      		brne .L188
 1869               	.LM338:
 1870 083c 8AE2      		ldi r24,lo8(42)
 1871 083e 90E0      		ldi r25,hi8(42)
 1872 0840 BA01      		movw r22,r20
 1873 0842 0E94 0000 		call enc28j60PacketSend
 1874               	.LVL126:
 1875               	/* epilogue start */
 1876               	.LM339:
 1877 0846 DF91      		pop r29
 1878 0848 CF91      		pop r28
 1879 084a 0895      		ret
 1880               	.LFE33:
 1882               	.global	make_echo_reply_from_request
 1884               	make_echo_reply_from_request:
 1885               	.LFB34:
 1886               	.LM340:
 1887               	.LVL127:
 1888 084c 0F93      		push r16
 1889 084e 1F93      		push r17
 1890 0850 CF93      		push r28
 1891 0852 DF93      		push r29
 1892               	/* prologue: function */
 1893               	/* frame size = 0 */
 1894 0854 EC01      		movw r28,r24
 1895 0856 8B01      		movw r16,r22
 1896               	.LM341:
 1897 0858 FC01      		movw r30,r24
 1898 085a A0E0      		ldi r26,lo8(macaddr)
 1899 085c B0E0      		ldi r27,hi8(macaddr)
 1900               	.LVL128:
 1901               	.L194:
 1902               	.LBB283:
 1903               	.LBB284:
 1904               	.LM342:
 1905 085e 8681      		ldd r24,Z+6
 1906               	.LVL129:
 1907 0860 8083      		st Z,r24
 1908               	.LM343:
 1909 0862 8D91      		ld r24,X+
 1910 0864 8683      		std Z+6,r24
 1911 0866 3196      		adiw r30,1
 1912               	.LM344:
 1913 0868 80E0      		ldi r24,hi8(macaddr+6)
 1914 086a A030      		cpi r26,lo8(macaddr+6)
 1915 086c B807      		cpc r27,r24
 1916 086e 01F4      		brne .L194
 1917               	.LBE284:
 1918               	.LBE283:
 1919               	.LM345:
 1920 0870 CE01      		movw r24,r28
 1921 0872 0E94 0000 		call make_ip
 1922               	.LM346:
 1923 0876 1AA2      		std Y+34,__zero_reg__
 1924               	.LM347:
 1925 0878 8CA1      		ldd r24,Y+36
 1926 087a 883F      		cpi r24,lo8(-8)
 1927 087c 00F0      		brlo .L195
 1928               	.LM348:
 1929 087e 8DA1      		ldd r24,Y+37
 1930 0880 8F5F      		subi r24,lo8(-(1))
 1931 0882 8DA3      		std Y+37,r24
 1932               	.L195:
 1933               	.LM349:
 1934 0884 8CA1      		ldd r24,Y+36
 1935 0886 885F      		subi r24,lo8(-(8))
 1936 0888 8CA3      		std Y+36,r24
 1937               	.LM350:
 1938 088a C801      		movw r24,r16
 1939 088c BE01      		movw r22,r28
 1940 088e 0E94 0000 		call enc28j60PacketSend
 1941               	/* epilogue start */
 1942               	.LM351:
 1943 0892 DF91      		pop r29
 1944 0894 CF91      		pop r28
 1945               	.LVL130:
 1946 0896 1F91      		pop r17
 1947 0898 0F91      		pop r16
 1948               	.LVL131:
 1949 089a 0895      		ret
 1950               	.LFE34:
 1952               	.global	make_udp_reply_from_request
 1954               	make_udp_reply_from_request:
 1955               	.LFB35:
 1956               	.LM352:
 1957               	.LVL132:
 1958 089c DF92      		push r13
 1959 089e EF92      		push r14
 1960 08a0 FF92      		push r15
 1961 08a2 0F93      		push r16
 1962 08a4 1F93      		push r17
 1963 08a6 CF93      		push r28
 1964 08a8 DF93      		push r29
 1965               	/* prologue: function */
 1966               	/* frame size = 0 */
 1967 08aa EC01      		movw r28,r24
 1968 08ac 7B01      		movw r14,r22
 1969 08ae D22E      		mov r13,r18
 1970 08b0 132F      		mov r17,r19
 1971               	.LVL133:
 1972               	.LM353:
 1973 08b2 FC01      		movw r30,r24
 1974 08b4 A0E0      		ldi r26,lo8(macaddr)
 1975 08b6 B0E0      		ldi r27,hi8(macaddr)
 1976               	.LVL134:
 1977               	.L199:
 1978               	.LBB285:
 1979               	.LBB286:
 1980               	.LM354:
 1981 08b8 8681      		ldd r24,Z+6
 1982               	.LVL135:
 1983 08ba 8083      		st Z,r24
 1984               	.LM355:
 1985 08bc 8D91      		ld r24,X+
 1986 08be 8683      		std Z+6,r24
 1987 08c0 3196      		adiw r30,1
 1988               	.LM356:
 1989 08c2 80E0      		ldi r24,hi8(macaddr+6)
 1990 08c4 A030      		cpi r26,lo8(macaddr+6)
 1991 08c6 B807      		cpc r27,r24
 1992 08c8 01F4      		brne .L199
 1993 08ca 042F      		mov r16,r20
 1994 08cc 4D3D      		cpi r20,lo8(-35)
 1995 08ce 00F0      		brlo .L200
 1996 08d0 0CED      		ldi r16,lo8(-36)
 1997               	.LVL136:
 1998               	.L200:
 1999               	.LBE286:
 2000               	.LBE285:
 2001               	.LM357:
 2002 08d2 188A      		std Y+16,__zero_reg__
 2003               	.LM358:
 2004 08d4 045E      		subi r16,lo8(-(28))
 2005 08d6 098B      		std Y+17,r16
 2006               	.LM359:
 2007 08d8 CE01      		movw r24,r28
 2008 08da 0E94 0000 		call make_ip
 2009               	.LM360:
 2010 08de 8AA1      		ldd r24,Y+34
 2011 08e0 8CA3      		std Y+36,r24
 2012               	.LM361:
 2013 08e2 8BA1      		ldd r24,Y+35
 2014 08e4 8DA3      		std Y+37,r24
 2015               	.LM362:
 2016 08e6 1AA3      		std Y+34,r17
 2017               	.LM363:
 2018 08e8 DBA2      		std Y+35,r13
 2019               	.LM364:
 2020 08ea 1EA2      		std Y+38,__zero_reg__
 2021               	.LM365:
 2022 08ec 0451      		subi r16,lo8(-(-20))
 2023 08ee 0FA3      		std Y+39,r16
 2024 08f0 0850      		subi r16,lo8(-(-8))
 2025               	.LM366:
 2026 08f2 18A6      		std Y+40,__zero_reg__
 2027               	.LM367:
 2028 08f4 19A6      		std Y+41,__zero_reg__
 2029 08f6 DE01      		movw r26,r28
 2030 08f8 9A96      		adiw r26,42
 2031 08fa 20E0      		ldi r18,lo8(0)
 2032 08fc 30E0      		ldi r19,hi8(0)
 2033 08fe 00C0      		rjmp .L201
 2034               	.L202:
 2035               	.LM368:
 2036 0900 F701      		movw r30,r14
 2037 0902 E20F      		add r30,r18
 2038 0904 F31F      		adc r31,r19
 2039 0906 8081      		ld r24,Z
 2040 0908 8D93      		st X+,r24
 2041 090a 2F5F      		subi r18,lo8(-(1))
 2042 090c 3F4F      		sbci r19,hi8(-(1))
 2043               	.L201:
 2044               	.LM369:
 2045 090e 2017      		cp r18,r16
 2046 0910 00F0      		brlo .L202
 2047               	.LM370:
 2048 0912 10E0      		ldi r17,lo8(0)
 2049               	.LVL137:
 2050 0914 005F      		subi r16,lo8(-(16))
 2051 0916 1F4F      		sbci r17,hi8(-(16))
 2052               	.LVL138:
 2053 0918 CE01      		movw r24,r28
 2054 091a 4A96      		adiw r24,26
 2055 091c B801      		movw r22,r16
 2056 091e 41E0      		ldi r20,lo8(1)
 2057 0920 0E94 0000 		call checksum
 2058               	.LM371:
 2059 0924 98A7      		std Y+40,r25
 2060               	.LM372:
 2061 0926 89A7      		std Y+41,r24
 2062               	.LM373:
 2063 0928 C801      		movw r24,r16
 2064 092a 4A96      		adiw r24,26
 2065 092c BE01      		movw r22,r28
 2066 092e 0E94 0000 		call enc28j60PacketSend
 2067               	/* epilogue start */
 2068               	.LM374:
 2069 0932 DF91      		pop r29
 2070 0934 CF91      		pop r28
 2071               	.LVL139:
 2072 0936 1F91      		pop r17
 2073 0938 0F91      		pop r16
 2074 093a FF90      		pop r15
 2075 093c EF90      		pop r14
 2076               	.LVL140:
 2077 093e DF90      		pop r13
 2078               	.LVL141:
 2079 0940 0895      		ret
 2080               	.LFE35:
 2082               	.global	make_tcp_synack_from_syn
 2084               	make_tcp_synack_from_syn:
 2085               	.LFB36:
 2086               	.LM375:
 2087               	.LVL142:
 2088 0942 CF93      		push r28
 2089 0944 DF93      		push r29
 2090               	/* prologue: function */
 2091               	/* frame size = 0 */
 2092 0946 EC01      		movw r28,r24
 2093               	.LM376:
 2094 0948 FC01      		movw r30,r24
 2095 094a A0E0      		ldi r26,lo8(macaddr)
 2096 094c B0E0      		ldi r27,hi8(macaddr)
 2097               	.L206:
 2098               	.LBB287:
 2099               	.LBB288:
 2100               	.LM377:
 2101 094e 8681      		ldd r24,Z+6
 2102               	.LVL143:
 2103 0950 8083      		st Z,r24
 2104               	.LM378:
 2105 0952 8D91      		ld r24,X+
 2106 0954 8683      		std Z+6,r24
 2107 0956 3196      		adiw r30,1
 2108               	.LM379:
 2109 0958 80E0      		ldi r24,hi8(macaddr+6)
 2110 095a A030      		cpi r26,lo8(macaddr+6)
 2111 095c B807      		cpc r27,r24
 2112 095e 01F4      		brne .L206
 2113               	.LBE288:
 2114               	.LBE287:
 2115               	.LM380:
 2116 0960 188A      		std Y+16,__zero_reg__
 2117               	.LM381:
 2118 0962 8CE2      		ldi r24,lo8(44)
 2119 0964 898B      		std Y+17,r24
 2120               	.LM382:
 2121 0966 CE01      		movw r24,r28
 2122 0968 0E94 0000 		call make_ip
 2123               	.LM383:
 2124 096c 82E1      		ldi r24,lo8(18)
 2125 096e 8FA7      		std Y+47,r24
 2126               	.LM384:
 2127 0970 CE01      		movw r24,r28
 2128 0972 61E0      		ldi r22,lo8(1)
 2129 0974 70E0      		ldi r23,hi8(1)
 2130 0976 40E0      		ldi r20,lo8(0)
 2131 0978 0E94 0000 		call make_tcphead
 2132               	.LM385:
 2133 097c 1EA2      		std Y+38,__zero_reg__
 2134               	.LM386:
 2135 097e 1FA2      		std Y+39,__zero_reg__
 2136               	.LM387:
 2137 0980 8091 0000 		lds r24,seqnum
 2138 0984 88A7      		std Y+40,r24
 2139               	.LM388:
 2140 0986 19A6      		std Y+41,__zero_reg__
 2141               	.LM389:
 2142 0988 8D5F      		subi r24,lo8(-(3))
 2143 098a 8093 0000 		sts seqnum,r24
 2144               	.LM390:
 2145 098e 82E0      		ldi r24,lo8(2)
 2146 0990 8EAB      		std Y+54,r24
 2147               	.LM391:
 2148 0992 84E0      		ldi r24,lo8(4)
 2149 0994 8FAB      		std Y+55,r24
 2150               	.LM392:
 2151 0996 95E0      		ldi r25,lo8(5)
 2152 0998 98AF      		std Y+56,r25
 2153               	.LM393:
 2154 099a 19AE      		std Y+57,__zero_reg__
 2155               	.LM394:
 2156 099c 80E6      		ldi r24,lo8(96)
 2157 099e 8EA7      		std Y+46,r24
 2158               	.LM395:
 2159 09a0 98AB      		std Y+48,r25
 2160               	.LM396:
 2161 09a2 88E7      		ldi r24,lo8(120)
 2162 09a4 89AB      		std Y+49,r24
 2163               	.LM397:
 2164 09a6 CE01      		movw r24,r28
 2165 09a8 4A96      		adiw r24,26
 2166 09aa 60E2      		ldi r22,lo8(32)
 2167 09ac 70E0      		ldi r23,hi8(32)
 2168 09ae 42E0      		ldi r20,lo8(2)
 2169 09b0 0E94 0000 		call checksum
 2170               	.LM398:
 2171 09b4 9AAB      		std Y+50,r25
 2172               	.LM399:
 2173 09b6 8BAB      		std Y+51,r24
 2174               	.LM400:
 2175 09b8 8AE3      		ldi r24,lo8(58)
 2176 09ba 90E0      		ldi r25,hi8(58)
 2177 09bc BE01      		movw r22,r28
 2178 09be 0E94 0000 		call enc28j60PacketSend
 2179               	/* epilogue start */
 2180               	.LM401:
 2181 09c2 DF91      		pop r29
 2182 09c4 CF91      		pop r28
 2183               	.LVL144:
 2184 09c6 0895      		ret
 2185               	.LFE36:
 2187               	.global	get_tcp_data_len
 2189               	get_tcp_data_len:
 2190               	.LFB37:
 2191               	.LM402:
 2192               	.LVL145:
 2193               	/* prologue: function */
 2194               	/* frame size = 0 */
 2195 09c8 FC01      		movw r30,r24
 2196               	.LM403:
 2197 09ca 9089      		ldd r25,Z+16
 2198 09cc 80E0      		ldi r24,lo8(0)
 2199               	.LVL146:
 2200 09ce 2189      		ldd r18,Z+17
 2201 09d0 422F      		mov r20,r18
 2202               	.LVL147:
 2203 09d2 50E0      		ldi r21,lo8(0)
 2204               	.LVL148:
 2205 09d4 482B      		or r20,r24
 2206 09d6 592B      		or r21,r25
 2207               	.LVL149:
 2208               	.LM404:
 2209 09d8 26A5      		ldd r18,Z+46
 2210 09da 822F      		mov r24,r18
 2211 09dc 8295      		swap r24
 2212 09de 8F70      		andi r24,lo8(15)
 2213 09e0 90E0      		ldi r25,lo8(0)
 2214 09e2 880F      		lsl r24
 2215 09e4 991F      		rol r25
 2216 09e6 880F      		lsl r24
 2217 09e8 991F      		rol r25
 2218 09ea 481B      		sub r20,r24
 2219 09ec 590B      		sbc r21,r25
 2220               	.LM405:
 2221 09ee 4451      		subi r20,lo8(-(-20))
 2222 09f0 5040      		sbci r21,hi8(-(-20))
 2223 09f2 57FF      		sbrs r21,7
 2224 09f4 00C0      		rjmp .L210
 2225 09f6 40E0      		ldi r20,lo8(0)
 2226 09f8 50E0      		ldi r21,hi8(0)
 2227               	.L210:
 2228               	.LM406:
 2229 09fa CA01      		movw r24,r20
 2230               	.LVL150:
 2231               	/* epilogue start */
 2232 09fc 0895      		ret
 2233               	.LFE37:
 2235               	.global	fill_tcp_data_p
 2237               	fill_tcp_data_p:
 2238               	.LFB38:
 2239               	.LM407:
 2240               	.LVL151:
 2241               	/* prologue: function */
 2242               	/* frame size = 0 */
 2243               	.LM408:
 2244 09fe 6A5C      		subi r22,lo8(-(54))
 2245 0a00 7F4F      		sbci r23,hi8(-(54))
 2246               	.LVL152:
 2247 0a02 DC01      		movw r26,r24
 2248 0a04 A60F      		add r26,r22
 2249 0a06 B71F      		adc r27,r23
 2250 0a08 6653      		subi r22,lo8(-(-54))
 2251 0a0a 7040      		sbci r23,hi8(-(-54))
 2252 0a0c 00C0      		rjmp .L213
 2253               	.LVL153:
 2254               	.L214:
 2255               	.LM409:
 2256 0a0e 8D93      		st X+,r24
 2257               	.LM410:
 2258 0a10 6F5F      		subi r22,lo8(-(1))
 2259 0a12 7F4F      		sbci r23,hi8(-(1))
 2260               	.LVL154:
 2261               	.L213:
 2262 0a14 FA01      		movw r30,r20
 2263               	.LBB289:
 2264               	.LM411:
 2265 0a16 4F5F      		subi r20,lo8(-(1))
 2266 0a18 5F4F      		sbci r21,hi8(-(1))
 2267               	/* #APP */
 2268               	 ;  463 "ip_arp_udp_tcp.c" 1
 2269 0a1a 8491      		lpm r24, Z
 2270               		
 2271               	 ;  0 "" 2
 2272               	.LVL155:
 2273               	/* #NOAPP */
 2274               	.LBE289:
 2275 0a1c 8823      		tst r24
 2276 0a1e 01F4      		brne .L214
 2277               	.LM412:
 2278 0a20 CB01      		movw r24,r22
 2279               	.LVL156:
 2280               	/* epilogue start */
 2281 0a22 0895      		ret
 2282               	.LFE38:
 2284               	.global	fill_tcp_data_len
 2286               	fill_tcp_data_len:
 2287               	.LFB39:
 2288               	.LM413:
 2289               	.LVL157:
 2290               	/* prologue: function */
 2291               	/* frame size = 0 */
 2292 0a24 DA01      		movw r26,r20
 2293               	.LM414:
 2294 0a26 6A5C      		subi r22,lo8(-(54))
 2295 0a28 7F4F      		sbci r23,hi8(-(54))
 2296               	.LVL158:
 2297 0a2a FC01      		movw r30,r24
 2298 0a2c E60F      		add r30,r22
 2299 0a2e F71F      		adc r31,r23
 2300 0a30 6653      		subi r22,lo8(-(-54))
 2301 0a32 7040      		sbci r23,hi8(-(-54))
 2302 0a34 922F      		mov r25,r18
 2303 0a36 00C0      		rjmp .L217
 2304               	.LVL159:
 2305               	.L218:
 2306               	.LM415:
 2307 0a38 8D91      		ld r24,X+
 2308               	.LVL160:
 2309 0a3a 8193      		st Z+,r24
 2310               	.LM416:
 2311 0a3c 9150      		subi r25,lo8(-(-1))
 2312               	.LVL161:
 2313               	.L217:
 2314               	.LM417:
 2315 0a3e 9923      		tst r25
 2316 0a40 01F4      		brne .L218
 2317 0a42 CB01      		movw r24,r22
 2318               	.LVL162:
 2319 0a44 820F      		add r24,r18
 2320 0a46 911D      		adc r25,__zero_reg__
 2321               	/* epilogue start */
 2322               	.LM418:
 2323 0a48 0895      		ret
 2324               	.LFE39:
 2326               	.global	make_tcp_ack_from_any
 2328               	make_tcp_ack_from_any:
 2329               	.LFB41:
 2330               	.LM419:
 2331               	.LVL163:
 2332 0a4a CF93      		push r28
 2333 0a4c DF93      		push r29
 2334               	/* prologue: function */
 2335               	/* frame size = 0 */
 2336 0a4e EC01      		movw r28,r24
 2337               	.LM420:
 2338 0a50 FC01      		movw r30,r24
 2339 0a52 A0E0      		ldi r26,lo8(macaddr)
 2340 0a54 B0E0      		ldi r27,hi8(macaddr)
 2341               	.L221:
 2342               	.LBB290:
 2343               	.LBB291:
 2344               	.LM421:
 2345 0a56 8681      		ldd r24,Z+6
 2346               	.LVL164:
 2347 0a58 8083      		st Z,r24
 2348               	.LM422:
 2349 0a5a 8D91      		ld r24,X+
 2350 0a5c 8683      		std Z+6,r24
 2351 0a5e 3196      		adiw r30,1
 2352               	.LM423:
 2353 0a60 80E0      		ldi r24,hi8(macaddr+6)
 2354 0a62 A030      		cpi r26,lo8(macaddr+6)
 2355 0a64 B807      		cpc r27,r24
 2356 0a66 01F4      		brne .L221
 2357               	.LBE291:
 2358               	.LBE290:
 2359               	.LM424:
 2360 0a68 842F      		mov r24,r20
 2361 0a6a 8061      		ori r24,lo8(16)
 2362 0a6c 8FA7      		std Y+47,r24
 2363               	.LM425:
 2364 0a6e 4430      		cpi r20,lo8(4)
 2365 0a70 01F0      		breq .L224
 2366               	.L222:
 2367               	.LM426:
 2368 0a72 6115      		cp r22,__zero_reg__
 2369 0a74 7105      		cpc r23,__zero_reg__
 2370 0a76 01F4      		brne .L224
 2371 0a78 61E0      		ldi r22,lo8(1)
 2372 0a7a 70E0      		ldi r23,hi8(1)
 2373               	.LVL165:
 2374               	.L224:
 2375               	.LM427:
 2376 0a7c CE01      		movw r24,r28
 2377 0a7e 41E0      		ldi r20,lo8(1)
 2378               	.LVL166:
 2379 0a80 0E94 0000 		call make_tcphead
 2380               	.LVL167:
 2381               	.LM428:
 2382 0a84 188A      		std Y+16,__zero_reg__
 2383               	.LM429:
 2384 0a86 88E2      		ldi r24,lo8(40)
 2385 0a88 898B      		std Y+17,r24
 2386               	.LM430:
 2387 0a8a CE01      		movw r24,r28
 2388 0a8c 0E94 0000 		call make_ip
 2389               	.LM431:
 2390 0a90 84E0      		ldi r24,lo8(4)
 2391 0a92 88AB      		std Y+48,r24
 2392               	.LM432:
 2393 0a94 19AA      		std Y+49,__zero_reg__
 2394               	.LM433:
 2395 0a96 CE01      		movw r24,r28
 2396 0a98 4A96      		adiw r24,26
 2397 0a9a 6CE1      		ldi r22,lo8(28)
 2398 0a9c 70E0      		ldi r23,hi8(28)
 2399 0a9e 42E0      		ldi r20,lo8(2)
 2400 0aa0 0E94 0000 		call checksum
 2401               	.LM434:
 2402 0aa4 9AAB      		std Y+50,r25
 2403               	.LM435:
 2404 0aa6 8BAB      		std Y+51,r24
 2405               	.LM436:
 2406 0aa8 86E3      		ldi r24,lo8(54)
 2407 0aaa 90E0      		ldi r25,hi8(54)
 2408 0aac BE01      		movw r22,r28
 2409 0aae 0E94 0000 		call enc28j60PacketSend
 2410               	/* epilogue start */
 2411               	.LM437:
 2412 0ab2 DF91      		pop r29
 2413 0ab4 CF91      		pop r28
 2414               	.LVL168:
 2415 0ab6 0895      		ret
 2416               	.LFE41:
 2418               	.global	make_tcp_ack_with_data_noflags
 2420               	make_tcp_ack_with_data_noflags:
 2421               	.LFB42:
 2422               	.LM438:
 2423               	.LVL169:
 2424 0ab8 EF92      		push r14
 2425 0aba FF92      		push r15
 2426 0abc 0F93      		push r16
 2427 0abe 1F93      		push r17
 2428               	/* prologue: function */
 2429               	/* frame size = 0 */
 2430 0ac0 8C01      		movw r16,r24
 2431 0ac2 7B01      		movw r14,r22
 2432               	.LM439:
 2433 0ac4 CB01      		movw r24,r22
 2434               	.LVL170:
 2435 0ac6 8896      		adiw r24,40
 2436               	.LM440:
 2437 0ac8 F801      		movw r30,r16
 2438 0aca 908B      		std Z+16,r25
 2439               	.LVL171:
 2440               	.LM441:
 2441 0acc 818B      		std Z+17,r24
 2442               	.LM442:
 2443 0ace C801      		movw r24,r16
 2444               	.LVL172:
 2445 0ad0 0E94 0000 		call fill_ip_hdr_checksum
 2446               	.LVL173:
 2447               	.LM443:
 2448 0ad4 F801      		movw r30,r16
 2449 0ad6 12AA      		std Z+50,__zero_reg__
 2450               	.LM444:
 2451 0ad8 13AA      		std Z+51,__zero_reg__
 2452               	.LM445:
 2453 0ada 8CE1      		ldi r24,lo8(28)
 2454 0adc 90E0      		ldi r25,hi8(28)
 2455 0ade E80E      		add r14,r24
 2456 0ae0 F91E      		adc r15,r25
 2457 0ae2 C801      		movw r24,r16
 2458 0ae4 4A96      		adiw r24,26
 2459 0ae6 B701      		movw r22,r14
 2460 0ae8 42E0      		ldi r20,lo8(2)
 2461 0aea 0E94 0000 		call checksum
 2462               	.LM446:
 2463 0aee F801      		movw r30,r16
 2464 0af0 92AB      		std Z+50,r25
 2465               	.LM447:
 2466 0af2 83AB      		std Z+51,r24
 2467               	.LM448:
 2468 0af4 C701      		movw r24,r14
 2469 0af6 4A96      		adiw r24,26
 2470 0af8 B801      		movw r22,r16
 2471 0afa 0E94 0000 		call enc28j60PacketSend
 2472               	/* epilogue start */
 2473               	.LM449:
 2474 0afe 1F91      		pop r17
 2475 0b00 0F91      		pop r16
 2476               	.LVL174:
 2477 0b02 FF90      		pop r15
 2478 0b04 EF90      		pop r14
 2479               	.LVL175:
 2480 0b06 0895      		ret
 2481               	.LFE42:
 2483               	.global	www_server_reply
 2485               	www_server_reply:
 2486               	.LFB43:
 2487               	.LM450:
 2488               	.LVL176:
 2489 0b08 EF92      		push r14
 2490 0b0a FF92      		push r15
 2491 0b0c 0F93      		push r16
 2492 0b0e 1F93      		push r17
 2493               	/* prologue: function */
 2494               	/* frame size = 0 */
 2495 0b10 8C01      		movw r16,r24
 2496 0b12 7B01      		movw r14,r22
 2497               	.LM451:
 2498 0b14 6091 0000 		lds r22,info_data_len
 2499 0b18 7091 0000 		lds r23,(info_data_len)+1
 2500               	.LVL177:
 2501 0b1c 40E0      		ldi r20,lo8(0)
 2502 0b1e 0E94 0000 		call make_tcp_ack_from_any
 2503               	.LVL178:
 2504               	.LM452:
 2505 0b22 89E1      		ldi r24,lo8(25)
 2506 0b24 F801      		movw r30,r16
 2507 0b26 87A7      		std Z+47,r24
 2508               	.LM453:
 2509 0b28 C801      		movw r24,r16
 2510 0b2a B701      		movw r22,r14
 2511 0b2c 0E94 0000 		call make_tcp_ack_with_data_noflags
 2512               	/* epilogue start */
 2513               	.LM454:
 2514 0b30 1F91      		pop r17
 2515 0b32 0F91      		pop r16
 2516               	.LVL179:
 2517 0b34 FF90      		pop r15
 2518 0b36 EF90      		pop r14
 2519               	.LVL180:
 2520 0b38 0895      		ret
 2521               	.LFE43:
 2523               	.global	fill_buf_p
 2525               	fill_buf_p:
 2526               	.LFB44:
 2527               	.LM455:
 2528               	.LVL181:
 2529               	/* prologue: function */
 2530               	/* frame size = 0 */
 2531 0b3a DC01      		movw r26,r24
 2532 0b3c FA01      		movw r30,r20
 2533 0b3e 00C0      		rjmp .L232
 2534               	.LVL182:
 2535               	.L233:
 2536               	.LBB292:
 2537               	.LM456:
 2538               	/* #APP */
 2539               	 ;  579 "ip_arp_udp_tcp.c" 1
 2540 0b40 8491      		lpm r24, Z
 2541               		
 2542               	 ;  0 "" 2
 2543               	/* #NOAPP */
 2544               	.LBE292:
 2545 0b42 8D93      		st X+,r24
 2546               	.LM457:
 2547 0b44 3196      		adiw r30,1
 2548               	.LM458:
 2549 0b46 6150      		subi r22,lo8(-(-1))
 2550 0b48 7040      		sbci r23,hi8(-(-1))
 2551               	.LVL183:
 2552               	.L232:
 2553               	.LM459:
 2554 0b4a 6115      		cp r22,__zero_reg__
 2555 0b4c 7105      		cpc r23,__zero_reg__
 2556 0b4e 01F4      		brne .L233
 2557               	/* epilogue start */
 2558               	.LM460:
 2559 0b50 0895      		ret
 2560               	.LFE44:
 2562               	.global	send_udp_prepare
 2564               	send_udp_prepare:
 2565               	.LFB45:
 2566               	.LM461:
 2567               	.LVL184:
 2568 0b52 FF92      		push r15
 2569 0b54 0F93      		push r16
 2570 0b56 1F93      		push r17
 2571 0b58 CF93      		push r28
 2572 0b5a DF93      		push r29
 2573               	/* prologue: function */
 2574               	/* frame size = 0 */
 2575 0b5c EC01      		movw r28,r24
 2576 0b5e F62E      		mov r15,r22
 2577 0b60 072F      		mov r16,r23
 2578               	.LVL185:
 2579 0b62 BA01      		movw r22,r20
 2580               	.LVL186:
 2581 0b64 122F      		mov r17,r18
 2582 0b66 932F      		mov r25,r19
 2583               	.LVL187:
 2584               	.LM462:
 2585 0b68 AE01      		movw r20,r28
 2586               	.LVL188:
 2587 0b6a 9E01      		movw r18,r28
 2588               	.LVL189:
 2589 0b6c A0E0      		ldi r26,lo8(0)
 2590 0b6e B0E0      		ldi r27,hi8(0)
 2591               	.LVL190:
 2592               	.L236:
 2593               	.LM463:
 2594 0b70 FD01      		movw r30,r26
 2595 0b72 E050      		subi r30,lo8(-(gwmacaddr))
 2596 0b74 F040      		sbci r31,hi8(-(gwmacaddr))
 2597 0b76 8081      		ld r24,Z
 2598 0b78 F901      		movw r30,r18
 2599 0b7a 8083      		st Z,r24
 2600               	.LM464:
 2601 0b7c FD01      		movw r30,r26
 2602 0b7e E050      		subi r30,lo8(-(macaddr))
 2603 0b80 F040      		sbci r31,hi8(-(macaddr))
 2604 0b82 8081      		ld r24,Z
 2605 0b84 F901      		movw r30,r18
 2606 0b86 8683      		std Z+6,r24
 2607 0b88 1196      		adiw r26,1
 2608 0b8a 2F5F      		subi r18,lo8(-(1))
 2609 0b8c 3F4F      		sbci r19,hi8(-(1))
 2610               	.LM465:
 2611 0b8e A630      		cpi r26,6
 2612 0b90 B105      		cpc r27,__zero_reg__
 2613 0b92 01F4      		brne .L236
 2614               	.LM466:
 2615 0b94 88E0      		ldi r24,lo8(8)
 2616 0b96 8C87      		std Y+12,r24
 2617               	.LM467:
 2618 0b98 1D86      		std Y+13,__zero_reg__
 2619 0b9a DE01      		movw r26,r28
 2620 0b9c E0E0      		ldi r30,lo8(iphdr)
 2621 0b9e F0E0      		ldi r31,hi8(iphdr)
 2622               	.LVL191:
 2623               	.L237:
 2624               	.LBB293:
 2625               	.LBB294:
 2626               	.LBB295:
 2627               	.LM468:
 2628               	/* #APP */
 2629               	 ;  579 "ip_arp_udp_tcp.c" 1
 2630 0ba0 8491      		lpm r24, Z
 2631               		
 2632               	 ;  0 "" 2
 2633               	.LVL192:
 2634               	/* #NOAPP */
 2635               	.LBE295:
 2636 0ba2 1E96      		adiw r26,14
 2637 0ba4 8C93      		st X,r24
 2638 0ba6 1E97      		sbiw r26,14
 2639               	.LM469:
 2640 0ba8 3196      		adiw r30,1
 2641 0baa 1196      		adiw r26,1
 2642               	.LM470:
 2643 0bac 80E0      		ldi r24,hi8(iphdr+9)
 2644 0bae E030      		cpi r30,lo8(iphdr+9)
 2645 0bb0 F807      		cpc r31,r24
 2646               	.LVL193:
 2647 0bb2 01F4      		brne .L237
 2648               	.LBE294:
 2649               	.LBE293:
 2650               	.LM471:
 2651 0bb4 188A      		std Y+16,__zero_reg__
 2652               	.LM472:
 2653 0bb6 81E1      		ldi r24,lo8(17)
 2654 0bb8 8F8B      		std Y+23,r24
 2655 0bba A0E0      		ldi r26,lo8(0)
 2656 0bbc B0E0      		ldi r27,hi8(0)
 2657               	.L238:
 2658               	.LM473:
 2659 0bbe FB01      		movw r30,r22
 2660               	.LVL194:
 2661 0bc0 EA0F      		add r30,r26
 2662 0bc2 FB1F      		adc r31,r27
 2663 0bc4 8081      		ld r24,Z
 2664 0bc6 FA01      		movw r30,r20
 2665 0bc8 868F      		std Z+30,r24
 2666               	.LM474:
 2667 0bca FD01      		movw r30,r26
 2668 0bcc E050      		subi r30,lo8(-(ipaddr))
 2669 0bce F040      		sbci r31,hi8(-(ipaddr))
 2670 0bd0 8081      		ld r24,Z
 2671 0bd2 FA01      		movw r30,r20
 2672 0bd4 828F      		std Z+26,r24
 2673 0bd6 1196      		adiw r26,1
 2674 0bd8 4F5F      		subi r20,lo8(-(1))
 2675 0bda 5F4F      		sbci r21,hi8(-(1))
 2676               	.LM475:
 2677 0bdc A430      		cpi r26,4
 2678 0bde B105      		cpc r27,__zero_reg__
 2679 0be0 01F4      		brne .L238
 2680               	.LM476:
 2681 0be2 9CA3      		std Y+36,r25
 2682               	.LM477:
 2683 0be4 1DA3      		std Y+37,r17
 2684               	.LM478:
 2685 0be6 0AA3      		std Y+34,r16
 2686               	.LM479:
 2687 0be8 FBA2      		std Y+35,r15
 2688               	.LM480:
 2689 0bea 1EA2      		std Y+38,__zero_reg__
 2690               	.LM481:
 2691 0bec 18A6      		std Y+40,__zero_reg__
 2692               	.LM482:
 2693 0bee 19A6      		std Y+41,__zero_reg__
 2694               	/* epilogue start */
 2695               	.LM483:
 2696 0bf0 DF91      		pop r29
 2697 0bf2 CF91      		pop r28
 2698               	.LVL195:
 2699 0bf4 1F91      		pop r17
 2700               	.LVL196:
 2701 0bf6 0F91      		pop r16
 2702               	.LVL197:
 2703 0bf8 FF90      		pop r15
 2704               	.LVL198:
 2705 0bfa 0895      		ret
 2706               	.LFE45:
 2708               	.global	send_udp_transmit
 2710               	send_udp_transmit:
 2711               	.LFB46:
 2712               	.LM484:
 2713               	.LVL199:
 2714 0bfc EF92      		push r14
 2715 0bfe FF92      		push r15
 2716 0c00 0F93      		push r16
 2717 0c02 1F93      		push r17
 2718               	/* prologue: function */
 2719               	/* frame size = 0 */
 2720 0c04 7C01      		movw r14,r24
 2721 0c06 062F      		mov r16,r22
 2722               	.LM485:
 2723 0c08 045E      		subi r16,lo8(-(28))
 2724               	.LVL200:
 2725 0c0a FC01      		movw r30,r24
 2726 0c0c 018B      		std Z+17,r16
 2727               	.LM486:
 2728 0c0e 0E94 0000 		call fill_ip_hdr_checksum
 2729               	.LVL201:
 2730               	.LM487:
 2731 0c12 0451      		subi r16,lo8(-(-20))
 2732 0c14 F701      		movw r30,r14
 2733 0c16 07A3      		std Z+39,r16
 2734 0c18 0850      		subi r16,lo8(-(-8))
 2735               	.LM488:
 2736 0c1a 10E0      		ldi r17,lo8(0)
 2737 0c1c 005F      		subi r16,lo8(-(16))
 2738 0c1e 1F4F      		sbci r17,hi8(-(16))
 2739               	.LVL202:
 2740 0c20 C701      		movw r24,r14
 2741 0c22 4A96      		adiw r24,26
 2742 0c24 B801      		movw r22,r16
 2743 0c26 41E0      		ldi r20,lo8(1)
 2744 0c28 0E94 0000 		call checksum
 2745               	.LM489:
 2746 0c2c F701      		movw r30,r14
 2747 0c2e 90A7      		std Z+40,r25
 2748               	.LM490:
 2749 0c30 81A7      		std Z+41,r24
 2750               	.LM491:
 2751 0c32 C801      		movw r24,r16
 2752 0c34 4A96      		adiw r24,26
 2753 0c36 B701      		movw r22,r14
 2754 0c38 0E94 0000 		call enc28j60PacketSend
 2755               	/* epilogue start */
 2756               	.LM492:
 2757 0c3c 1F91      		pop r17
 2758 0c3e 0F91      		pop r16
 2759 0c40 FF90      		pop r15
 2760 0c42 EF90      		pop r14
 2761               	.LVL203:
 2762 0c44 0895      		ret
 2763               	.LFE46:
 2765               	.global	send_udp
 2767               	send_udp:
 2768               	.LFB47:
 2769               	.LM493:
 2770               	.LVL204:
 2771 0c46 AF92      		push r10
 2772 0c48 BF92      		push r11
 2773 0c4a DF92      		push r13
 2774 0c4c EF92      		push r14
 2775               	.LVL205:
 2776 0c4e FF92      		push r15
 2777 0c50 0F93      		push r16
 2778               	.LVL206:
 2779 0c52 1F93      		push r17
 2780 0c54 CF93      		push r28
 2781 0c56 DF93      		push r29
 2782               	/* prologue: function */
 2783               	/* frame size = 0 */
 2784 0c58 EC01      		movw r28,r24
 2785 0c5a 5B01      		movw r10,r22
 2786 0c5c D42E      		mov r13,r20
 2787 0c5e A801      		movw r20,r16
 2788               	.LVL207:
 2789               	.LM494:
 2790 0c60 B901      		movw r22,r18
 2791               	.LVL208:
 2792 0c62 9701      		movw r18,r14
 2793               	.LVL209:
 2794 0c64 0E94 0000 		call send_udp_prepare
 2795               	.LVL210:
 2796 0c68 6D2D      		mov r22,r13
 2797 0c6a 6D3D      		cpi r22,lo8(-35)
 2798 0c6c 00F0      		brlo .L246
 2799               	.LVL211:
 2800 0c6e 6CED      		ldi r22,lo8(-36)
 2801               	.LVL212:
 2802               	.L246:
 2803 0c70 DE01      		movw r26,r28
 2804 0c72 9A96      		adiw r26,42
 2805 0c74 20E0      		ldi r18,lo8(0)
 2806 0c76 30E0      		ldi r19,hi8(0)
 2807 0c78 00C0      		rjmp .L247
 2808               	.L248:
 2809               	.LM495:
 2810 0c7a F501      		movw r30,r10
 2811 0c7c E20F      		add r30,r18
 2812 0c7e F31F      		adc r31,r19
 2813 0c80 8081      		ld r24,Z
 2814 0c82 8D93      		st X+,r24
 2815 0c84 2F5F      		subi r18,lo8(-(1))
 2816 0c86 3F4F      		sbci r19,hi8(-(1))
 2817               	.L247:
 2818               	.LM496:
 2819 0c88 2617      		cp r18,r22
 2820 0c8a 00F0      		brlo .L248
 2821               	.LM497:
 2822 0c8c CE01      		movw r24,r28
 2823 0c8e 0E94 0000 		call send_udp_transmit
 2824               	.LVL213:
 2825               	/* epilogue start */
 2826               	.LM498:
 2827 0c92 DF91      		pop r29
 2828 0c94 CF91      		pop r28
 2829               	.LVL214:
 2830 0c96 1F91      		pop r17
 2831 0c98 0F91      		pop r16
 2832               	.LVL215:
 2833 0c9a FF90      		pop r15
 2834 0c9c EF90      		pop r14
 2835               	.LVL216:
 2836 0c9e DF90      		pop r13
 2837               	.LVL217:
 2838 0ca0 BF90      		pop r11
 2839 0ca2 AF90      		pop r10
 2840               	.LVL218:
 2841 0ca4 0895      		ret
 2842               	.LFE47:
 2844               	.global	client_arp_whohas
 2846               	client_arp_whohas:
 2847               	.LFB48:
 2848               	.LM499:
 2849               	.LVL219:
 2850 0ca6 CF93      		push r28
 2851 0ca8 DF93      		push r29
 2852               	/* prologue: function */
 2853               	/* frame size = 0 */
 2854 0caa EC01      		movw r28,r24
 2855               	.LM500:
 2856 0cac AC01      		movw r20,r24
 2857 0cae 20E0      		ldi r18,lo8(macaddr)
 2858 0cb0 30E0      		ldi r19,hi8(macaddr)
 2859 0cb2 FC01      		movw r30,r24
 2860 0cb4 D901      		movw r26,r18
 2861               	.LM501:
 2862 0cb6 9FEF      		ldi r25,lo8(-1)
 2863               	.L251:
 2864 0cb8 9083      		st Z,r25
 2865               	.LM502:
 2866 0cba 8D91      		ld r24,X+
 2867               	.LVL220:
 2868 0cbc 8683      		std Z+6,r24
 2869 0cbe 3196      		adiw r30,1
 2870               	.LM503:
 2871 0cc0 80E0      		ldi r24,hi8(macaddr+6)
 2872 0cc2 A030      		cpi r26,lo8(macaddr+6)
 2873 0cc4 B807      		cpc r27,r24
 2874 0cc6 01F4      		brne .L251
 2875               	.LM504:
 2876 0cc8 88E0      		ldi r24,lo8(8)
 2877 0cca 8C87      		std Y+12,r24
 2878               	.LM505:
 2879 0ccc 86E0      		ldi r24,lo8(6)
 2880 0cce 8D87      		std Y+13,r24
 2881 0cd0 DE01      		movw r26,r28
 2882 0cd2 E0E0      		ldi r30,lo8(arpreqhdr)
 2883 0cd4 F0E0      		ldi r31,hi8(arpreqhdr)
 2884               	.LVL221:
 2885               	.L252:
 2886               	.LBB296:
 2887               	.LBB297:
 2888               	.LBB298:
 2889               	.LM506:
 2890               	/* #APP */
 2891               	 ;  579 "ip_arp_udp_tcp.c" 1
 2892 0cd6 8491      		lpm r24, Z
 2893               		
 2894               	 ;  0 "" 2
 2895               	.LVL222:
 2896               	/* #NOAPP */
 2897               	.LBE298:
 2898 0cd8 1E96      		adiw r26,14
 2899 0cda 8C93      		st X,r24
 2900 0cdc 1E97      		sbiw r26,14
 2901               	.LM507:
 2902 0cde 3196      		adiw r30,1
 2903 0ce0 1196      		adiw r26,1
 2904               	.LM508:
 2905 0ce2 80E0      		ldi r24,hi8(arpreqhdr+8)
 2906 0ce4 E030      		cpi r30,lo8(arpreqhdr+8)
 2907 0ce6 F807      		cpc r31,r24
 2908               	.LVL223:
 2909 0ce8 01F4      		brne .L252
 2910               	.L256:
 2911               	.LBE297:
 2912               	.LBE296:
 2913               	.LM509:
 2914 0cea F901      		movw r30,r18
 2915               	.LVL224:
 2916 0cec 8191      		ld r24,Z+
 2917 0cee 9F01      		movw r18,r30
 2918 0cf0 FA01      		movw r30,r20
 2919 0cf2 868B      		std Z+22,r24
 2920               	.LM510:
 2921 0cf4 10A2      		std Z+32,__zero_reg__
 2922 0cf6 4F5F      		subi r20,lo8(-(1))
 2923 0cf8 5F4F      		sbci r21,hi8(-(1))
 2924               	.LM511:
 2925 0cfa F0E0      		ldi r31,hi8(macaddr+6)
 2926 0cfc 2030      		cpi r18,lo8(macaddr+6)
 2927 0cfe 3F07      		cpc r19,r31
 2928 0d00 01F4      		brne .L256
 2929 0d02 DE01      		movw r26,r28
 2930 0d04 5C96      		adiw r26,28
 2931 0d06 20E0      		ldi r18,lo8(0)
 2932 0d08 30E0      		ldi r19,hi8(0)
 2933               	.L254:
 2934               	.LM512:
 2935 0d0a FB01      		movw r30,r22
 2936 0d0c E20F      		add r30,r18
 2937 0d0e F31F      		adc r31,r19
 2938 0d10 8081      		ld r24,Z
 2939 0d12 1A96      		adiw r26,10
 2940 0d14 8C93      		st X,r24
 2941 0d16 1A97      		sbiw r26,10
 2942               	.LM513:
 2943 0d18 F901      		movw r30,r18
 2944 0d1a E050      		subi r30,lo8(-(ipaddr))
 2945 0d1c F040      		sbci r31,hi8(-(ipaddr))
 2946 0d1e 8081      		ld r24,Z
 2947 0d20 8D93      		st X+,r24
 2948 0d22 2F5F      		subi r18,lo8(-(1))
 2949 0d24 3F4F      		sbci r19,hi8(-(1))
 2950               	.LM514:
 2951 0d26 2430      		cpi r18,4
 2952 0d28 3105      		cpc r19,__zero_reg__
 2953 0d2a 01F4      		brne .L254
 2954               	.LM515:
 2955 0d2c 8091 0000 		lds r24,waitgwmac
 2956 0d30 8860      		ori r24,lo8(8)
 2957 0d32 8093 0000 		sts waitgwmac,r24
 2958               	.LM516:
 2959 0d36 8AE2      		ldi r24,lo8(42)
 2960 0d38 90E0      		ldi r25,hi8(42)
 2961 0d3a BE01      		movw r22,r28
 2962               	.LVL225:
 2963 0d3c 0E94 0000 		call enc28j60PacketSend
 2964               	/* epilogue start */
 2965               	.LM517:
 2966 0d40 DF91      		pop r29
 2967 0d42 CF91      		pop r28
 2968               	.LVL226:
 2969 0d44 0895      		ret
 2970               	.LFE48:
 2972               	.global	client_waiting_gw
 2974               	client_waiting_gw:
 2975               	.LFB49:
 2976               	.LM518:
 2977               	/* prologue: function */
 2978               	/* frame size = 0 */
 2979               	.LM519:
 2980 0d46 8091 0000 		lds r24,waitgwmac
 2981 0d4a 8695      		lsr r24
 2982 0d4c 8095      		com r24
 2983               	.LM520:
 2984 0d4e 8170      		andi r24,lo8(1)
 2985               	/* epilogue start */
 2986 0d50 0895      		ret
 2987               	.LFE49:
 2989               	.global	client_store_gw_mac
 2991               	client_store_gw_mac:
 2992               	.LFB50:
 2993               	.LM521:
 2994               	.LVL227:
 2995 0d52 CF93      		push r28
 2996 0d54 DF93      		push r29
 2997               	/* prologue: function */
 2998               	/* frame size = 0 */
 2999               	.LM522:
 3000 0d56 EC01      		movw r28,r24
 3001               	.LVL228:
 3002 0d58 E0E0      		ldi r30,lo8(gwip)
 3003 0d5a F0E0      		ldi r31,hi8(gwip)
 3004 0d5c DC01      		movw r26,r24
 3005               	.L266:
 3006               	.LM523:
 3007 0d5e 5C96      		adiw r26,28
 3008 0d60 9C91      		ld r25,X
 3009 0d62 5C97      		sbiw r26,28
 3010 0d64 8081      		ld r24,Z
 3011 0d66 9817      		cp r25,r24
 3012 0d68 01F0      		breq .L264
 3013 0d6a 80E0      		ldi r24,lo8(0)
 3014 0d6c 00C0      		rjmp .L265
 3015               	.L264:
 3016 0d6e 1196      		adiw r26,1
 3017 0d70 3196      		adiw r30,1
 3018               	.LM524:
 3019 0d72 80E0      		ldi r24,hi8(gwip+4)
 3020 0d74 E030      		cpi r30,lo8(gwip+4)
 3021 0d76 F807      		cpc r31,r24
 3022 0d78 01F4      		brne .L266
 3023 0d7a E0E0      		ldi r30,lo8(gwmacaddr)
 3024 0d7c F0E0      		ldi r31,hi8(gwmacaddr)
 3025               	.L267:
 3026               	.LM525:
 3027 0d7e 8E89      		ldd r24,Y+22
 3028 0d80 8193      		st Z+,r24
 3029 0d82 2196      		adiw r28,1
 3030               	.LM526:
 3031 0d84 80E0      		ldi r24,hi8(gwmacaddr+6)
 3032 0d86 E030      		cpi r30,lo8(gwmacaddr+6)
 3033 0d88 F807      		cpc r31,r24
 3034 0d8a 01F4      		brne .L267
 3035 0d8c 81E0      		ldi r24,lo8(1)
 3036               	.L265:
 3037               	/* epilogue start */
 3038               	.LM527:
 3039 0d8e DF91      		pop r29
 3040 0d90 CF91      		pop r28
 3041 0d92 0895      		ret
 3042               	.LFE50:
 3044               	.global	client_gw_arp_refresh
 3046               	client_gw_arp_refresh:
 3047               	.LFB51:
 3048               	.LM528:
 3049               	/* prologue: function */
 3050               	/* frame size = 0 */
 3051               	.LM529:
 3052 0d94 8091 0000 		lds r24,waitgwmac
 3053 0d98 81FF      		sbrs r24,1
 3054 0d9a 00C0      		rjmp .L273
 3055               	.LM530:
 3056 0d9c 8460      		ori r24,lo8(4)
 3057 0d9e 8093 0000 		sts waitgwmac,r24
 3058               	.L273:
 3059 0da2 0895      		ret
 3060               	.LFE51:
 3062               	.global	client_set_gwip
 3064               	client_set_gwip:
 3065               	.LFB52:
 3066               	.LM531:
 3067               	.LVL229:
 3068               	/* prologue: function */
 3069               	/* frame size = 0 */
 3070 0da4 AC01      		movw r20,r24
 3071               	.LM532:
 3072 0da6 81E0      		ldi r24,lo8(1)
 3073               	.LVL230:
 3074 0da8 8093 0000 		sts waitgwmac,r24
 3075 0dac 20E0      		ldi r18,lo8(0)
 3076 0dae 30E0      		ldi r19,hi8(0)
 3077               	.L275:
 3078               	.LM533:
 3079 0db0 F901      		movw r30,r18
 3080 0db2 E050      		subi r30,lo8(-(gwip))
 3081 0db4 F040      		sbci r31,hi8(-(gwip))
 3082 0db6 DA01      		movw r26,r20
 3083 0db8 A20F      		add r26,r18
 3084 0dba B31F      		adc r27,r19
 3085 0dbc 8C91      		ld r24,X
 3086 0dbe 8083      		st Z,r24
 3087 0dc0 2F5F      		subi r18,lo8(-(1))
 3088 0dc2 3F4F      		sbci r19,hi8(-(1))
 3089               	.LM534:
 3090 0dc4 2430      		cpi r18,4
 3091 0dc6 3105      		cpc r19,__zero_reg__
 3092 0dc8 01F4      		brne .L275
 3093               	/* epilogue start */
 3094               	.LM535:
 3095 0dca 0895      		ret
 3096               	.LFE52:
 3098               	.global	client_tcp_set_serverip
 3100               	client_tcp_set_serverip:
 3101               	.LFB53:
 3102               	.LM536:
 3103               	.LVL231:
 3104               	/* prologue: function */
 3105               	/* frame size = 0 */
 3106 0dcc AC01      		movw r20,r24
 3107               	.LM537:
 3108 0dce 20E0      		ldi r18,lo8(0)
 3109 0dd0 30E0      		ldi r19,hi8(0)
 3110               	.LVL232:
 3111               	.L279:
 3112               	.LM538:
 3113 0dd2 F901      		movw r30,r18
 3114 0dd4 E050      		subi r30,lo8(-(tcpsrvip))
 3115 0dd6 F040      		sbci r31,hi8(-(tcpsrvip))
 3116 0dd8 DA01      		movw r26,r20
 3117 0dda A20F      		add r26,r18
 3118 0ddc B31F      		adc r27,r19
 3119 0dde 8C91      		ld r24,X
 3120 0de0 8083      		st Z,r24
 3121 0de2 2F5F      		subi r18,lo8(-(1))
 3122 0de4 3F4F      		sbci r19,hi8(-(1))
 3123               	.LM539:
 3124 0de6 2430      		cpi r18,4
 3125 0de8 3105      		cpc r19,__zero_reg__
 3126 0dea 01F4      		brne .L279
 3127               	/* epilogue start */
 3128               	.LM540:
 3129 0dec 0895      		ret
 3130               	.LFE53:
 3132               	.global	client_syn
 3134               	client_syn:
 3135               	.LFB54:
 3136               	.LM541:
 3137               	.LVL233:
 3138 0dee FF92      		push r15
 3139 0df0 0F93      		push r16
 3140 0df2 1F93      		push r17
 3141 0df4 CF93      		push r28
 3142 0df6 DF93      		push r29
 3143               	/* prologue: function */
 3144               	/* frame size = 0 */
 3145 0df8 EC01      		movw r28,r24
 3146 0dfa F62E      		mov r15,r22
 3147 0dfc 142F      		mov r17,r20
 3148 0dfe 022F      		mov r16,r18
 3149               	.LM542:
 3150 0e00 AC01      		movw r20,r24
 3151               	.LVL234:
 3152 0e02 DC01      		movw r26,r24
 3153 0e04 20E0      		ldi r18,lo8(0)
 3154 0e06 30E0      		ldi r19,hi8(0)
 3155               	.LVL235:
 3156               	.L283:
 3157               	.LM543:
 3158 0e08 F901      		movw r30,r18
 3159 0e0a E050      		subi r30,lo8(-(gwmacaddr))
 3160 0e0c F040      		sbci r31,hi8(-(gwmacaddr))
 3161 0e0e 8081      		ld r24,Z
 3162               	.LVL236:
 3163 0e10 8C93      		st X,r24
 3164               	.LM544:
 3165 0e12 F901      		movw r30,r18
 3166 0e14 E050      		subi r30,lo8(-(macaddr))
 3167 0e16 F040      		sbci r31,hi8(-(macaddr))
 3168 0e18 8081      		ld r24,Z
 3169 0e1a 1696      		adiw r26,6
 3170 0e1c 8C93      		st X,r24
 3171 0e1e 1697      		sbiw r26,6
 3172 0e20 2F5F      		subi r18,lo8(-(1))
 3173 0e22 3F4F      		sbci r19,hi8(-(1))
 3174 0e24 1196      		adiw r26,1
 3175               	.LM545:
 3176 0e26 2630      		cpi r18,6
 3177 0e28 3105      		cpc r19,__zero_reg__
 3178 0e2a 01F4      		brne .L283
 3179               	.LM546:
 3180 0e2c 88E0      		ldi r24,lo8(8)
 3181 0e2e 8C87      		std Y+12,r24
 3182               	.LM547:
 3183 0e30 1D86      		std Y+13,__zero_reg__
 3184 0e32 DE01      		movw r26,r28
 3185 0e34 E0E0      		ldi r30,lo8(iphdr)
 3186 0e36 F0E0      		ldi r31,hi8(iphdr)
 3187               	.LVL237:
 3188               	.L284:
 3189               	.LBB299:
 3190               	.LBB300:
 3191               	.LBB301:
 3192               	.LM548:
 3193               	/* #APP */
 3194               	 ;  579 "ip_arp_udp_tcp.c" 1
 3195 0e38 8491      		lpm r24, Z
 3196               		
 3197               	 ;  0 "" 2
 3198               	.LVL238:
 3199               	/* #NOAPP */
 3200               	.LBE301:
 3201 0e3a 1E96      		adiw r26,14
 3202 0e3c 8C93      		st X,r24
 3203 0e3e 1E97      		sbiw r26,14
 3204               	.LM549:
 3205 0e40 3196      		adiw r30,1
 3206 0e42 1196      		adiw r26,1
 3207               	.LM550:
 3208 0e44 80E0      		ldi r24,hi8(iphdr+9)
 3209 0e46 E030      		cpi r30,lo8(iphdr+9)
 3210 0e48 F807      		cpc r31,r24
 3211               	.LVL239:
 3212 0e4a 01F4      		brne .L284
 3213               	.LBE300:
 3214               	.LBE299:
 3215               	.LM551:
 3216 0e4c 8CE2      		ldi r24,lo8(44)
 3217 0e4e 898B      		std Y+17,r24
 3218               	.LM552:
 3219 0e50 86E0      		ldi r24,lo8(6)
 3220 0e52 8F8B      		std Y+23,r24
 3221 0e54 20E0      		ldi r18,lo8(0)
 3222 0e56 30E0      		ldi r19,hi8(0)
 3223               	.L285:
 3224               	.LM553:
 3225 0e58 F901      		movw r30,r18
 3226               	.LVL240:
 3227 0e5a E050      		subi r30,lo8(-(tcpsrvip))
 3228 0e5c F040      		sbci r31,hi8(-(tcpsrvip))
 3229 0e5e 8081      		ld r24,Z
 3230 0e60 FA01      		movw r30,r20
 3231 0e62 868F      		std Z+30,r24
 3232               	.LM554:
 3233 0e64 F901      		movw r30,r18
 3234 0e66 E050      		subi r30,lo8(-(ipaddr))
 3235 0e68 F040      		sbci r31,hi8(-(ipaddr))
 3236 0e6a 8081      		ld r24,Z
 3237 0e6c FA01      		movw r30,r20
 3238 0e6e 828F      		std Z+26,r24
 3239 0e70 2F5F      		subi r18,lo8(-(1))
 3240 0e72 3F4F      		sbci r19,hi8(-(1))
 3241 0e74 4F5F      		subi r20,lo8(-(1))
 3242 0e76 5F4F      		sbci r21,hi8(-(1))
 3243               	.LM555:
 3244 0e78 2430      		cpi r18,4
 3245 0e7a 3105      		cpc r19,__zero_reg__
 3246 0e7c 01F4      		brne .L285
 3247               	.LM556:
 3248 0e7e CE01      		movw r24,r28
 3249 0e80 0E94 0000 		call fill_ip_hdr_checksum
 3250               	.LM557:
 3251 0e84 1CA3      		std Y+36,r17
 3252               	.LM558:
 3253 0e86 0DA3      		std Y+37,r16
 3254               	.LM559:
 3255 0e88 8BE0      		ldi r24,lo8(11)
 3256 0e8a 8AA3      		std Y+34,r24
 3257               	.LM560:
 3258 0e8c FBA2      		std Y+35,r15
 3259 0e8e FE01      		movw r30,r28
 3260 0e90 B696      		adiw r30,38
 3261 0e92 80E0      		ldi r24,lo8(0)
 3262               	.LVL241:
 3263               	.L286:
 3264               	.LM561:
 3265 0e94 1192      		st Z+,__zero_reg__
 3266               	.LM562:
 3267 0e96 8F5F      		subi r24,lo8(-(1))
 3268               	.LM563:
 3269 0e98 8830      		cpi r24,lo8(8)
 3270 0e9a 01F4      		brne .L286
 3271               	.LM564:
 3272 0e9c 8091 0000 		lds r24,seqnum
 3273               	.LVL242:
 3274 0ea0 88A7      		std Y+40,r24
 3275               	.LM565:
 3276 0ea2 8D5F      		subi r24,lo8(-(3))
 3277 0ea4 8093 0000 		sts seqnum,r24
 3278               	.LM566:
 3279 0ea8 80E6      		ldi r24,lo8(96)
 3280 0eaa 8EA7      		std Y+46,r24
 3281               	.LM567:
 3282 0eac 92E0      		ldi r25,lo8(2)
 3283 0eae 9FA7      		std Y+47,r25
 3284               	.LM568:
 3285 0eb0 83E0      		ldi r24,lo8(3)
 3286 0eb2 88AB      		std Y+48,r24
 3287               	.LM569:
 3288 0eb4 19AA      		std Y+49,__zero_reg__
 3289               	.LM570:
 3290 0eb6 1AAA      		std Y+50,__zero_reg__
 3291               	.LM571:
 3292 0eb8 1BAA      		std Y+51,__zero_reg__
 3293               	.LM572:
 3294 0eba 1CAA      		std Y+52,__zero_reg__
 3295               	.LM573:
 3296 0ebc 1DAA      		std Y+53,__zero_reg__
 3297               	.LM574:
 3298 0ebe 9EAB      		std Y+54,r25
 3299               	.LM575:
 3300 0ec0 84E0      		ldi r24,lo8(4)
 3301 0ec2 8FAB      		std Y+55,r24
 3302               	.LM576:
 3303 0ec4 98AF      		std Y+56,r25
 3304               	.LM577:
 3305 0ec6 86E2      		ldi r24,lo8(38)
 3306 0ec8 89AF      		std Y+57,r24
 3307               	.LM578:
 3308 0eca CE01      		movw r24,r28
 3309 0ecc 4A96      		adiw r24,26
 3310 0ece 60E2      		ldi r22,lo8(32)
 3311 0ed0 70E0      		ldi r23,hi8(32)
 3312 0ed2 42E0      		ldi r20,lo8(2)
 3313 0ed4 0E94 0000 		call checksum
 3314               	.LM579:
 3315 0ed8 9AAB      		std Y+50,r25
 3316               	.LM580:
 3317 0eda 8BAB      		std Y+51,r24
 3318               	.LM581:
 3319 0edc 8AE3      		ldi r24,lo8(58)
 3320 0ede 90E0      		ldi r25,hi8(58)
 3321 0ee0 BE01      		movw r22,r28
 3322 0ee2 0E94 0000 		call enc28j60PacketSend
 3323               	/* epilogue start */
 3324               	.LM582:
 3325 0ee6 DF91      		pop r29
 3326 0ee8 CF91      		pop r28
 3327               	.LVL243:
 3328 0eea 1F91      		pop r17
 3329               	.LVL244:
 3330 0eec 0F91      		pop r16
 3331               	.LVL245:
 3332 0eee FF90      		pop r15
 3333               	.LVL246:
 3334 0ef0 0895      		ret
 3335               	.LFE54:
 3337               	.global	client_tcp_req
 3339               	client_tcp_req:
 3340               	.LFB55:
 3341               	.LM583:
 3342               	.LVL247:
 3343               	/* prologue: function */
 3344               	/* frame size = 0 */
 3345               	.LM584:
 3346 0ef2 9093 0000 		sts (client_tcp_result_callback)+1,r25
 3347 0ef6 8093 0000 		sts client_tcp_result_callback,r24
 3348               	.LM585:
 3349 0efa 7093 0000 		sts (client_tcp_datafill_callback)+1,r23
 3350 0efe 6093 0000 		sts client_tcp_datafill_callback,r22
 3351               	.LM586:
 3352 0f02 5093 0000 		sts tcp_client_port_h,r21
 3353               	.LVL248:
 3354               	.LM587:
 3355 0f06 4093 0000 		sts tcp_client_port_l,r20
 3356               	.LM588:
 3357 0f0a 81E0      		ldi r24,lo8(1)
 3358               	.LVL249:
 3359 0f0c 8093 0000 		sts tcp_client_state,r24
 3360               	.LM589:
 3361 0f10 8091 0000 		lds r24,tcp_fd
 3362 0f14 8F5F      		subi r24,lo8(-(1))
 3363 0f16 8093 0000 		sts tcp_fd,r24
 3364               	.LM590:
 3365 0f1a 8830      		cpi r24,lo8(8)
 3366 0f1c 00F0      		brlo .L293
 3367               	.LM591:
 3368 0f1e 1092 0000 		sts tcp_fd,__zero_reg__
 3369               	.L293:
 3370               	.LM592:
 3371 0f22 8091 0000 		lds r24,tcp_fd
 3372               	/* epilogue start */
 3373 0f26 0895      		ret
 3374               	.LFE55:
 3376               	.global	client_browse_url
 3378               	client_browse_url:
 3379               	.LFB58:
 3380               	.LM593:
 3381               	.LVL250:
 3382               	/* prologue: function */
 3383               	/* frame size = 0 */
 3384               	.LM594:
 3385 0f28 9093 0000 		sts (client_urlbuf)+1,r25
 3386 0f2c 8093 0000 		sts client_urlbuf,r24
 3387               	.LM595:
 3388 0f30 7093 0000 		sts (client_urlbuf_var)+1,r23
 3389 0f34 6093 0000 		sts client_urlbuf_var,r22
 3390               	.LM596:
 3391 0f38 5093 0000 		sts (client_hoststr)+1,r21
 3392 0f3c 4093 0000 		sts client_hoststr,r20
 3393               	.LM597:
 3394 0f40 1092 0000 		sts browsertype,__zero_reg__
 3395               	.LM598:
 3396 0f44 3093 0000 		sts (client_browser_callback)+1,r19
 3397 0f48 2093 0000 		sts client_browser_callback,r18
 3398               	.LBB302:
 3399               	.LBB303:
 3400               	.LM599:
 3401 0f4c 80E0      		ldi r24,lo8(gs(www_client_internal_result_callback))
 3402 0f4e 90E0      		ldi r25,hi8(gs(www_client_internal_result_callback))
 3403               	.LVL251:
 3404 0f50 9093 0000 		sts (client_tcp_result_callback)+1,r25
 3405 0f54 8093 0000 		sts client_tcp_result_callback,r24
 3406               	.LM600:
 3407 0f58 80E0      		ldi r24,lo8(gs(www_client_internal_datafill_callback))
 3408 0f5a 90E0      		ldi r25,hi8(gs(www_client_internal_datafill_callback))
 3409 0f5c 9093 0000 		sts (client_tcp_datafill_callback)+1,r25
 3410 0f60 8093 0000 		sts client_tcp_datafill_callback,r24
 3411               	.LM601:
 3412 0f64 1092 0000 		sts tcp_client_port_h,__zero_reg__
 3413               	.LM602:
 3414 0f68 80E5      		ldi r24,lo8(80)
 3415 0f6a 8093 0000 		sts tcp_client_port_l,r24
 3416               	.LM603:
 3417 0f6e 81E0      		ldi r24,lo8(1)
 3418 0f70 8093 0000 		sts tcp_client_state,r24
 3419               	.LM604:
 3420 0f74 8091 0000 		lds r24,tcp_fd
 3421 0f78 8F5F      		subi r24,lo8(-(1))
 3422 0f7a 8093 0000 		sts tcp_fd,r24
 3423               	.LM605:
 3424 0f7e 8830      		cpi r24,lo8(8)
 3425 0f80 00F0      		brlo .L296
 3426               	.LM606:
 3427 0f82 1092 0000 		sts tcp_fd,__zero_reg__
 3428               	.L296:
 3429               	.LBE303:
 3430               	.LBE302:
 3431               	.LM607:
 3432 0f86 8091 0000 		lds r24,tcp_fd
 3433 0f8a 8093 0000 		sts www_fd,r24
 3434               	/* epilogue start */
 3435               	.LM608:
 3436 0f8e 0895      		ret
 3437               	.LFE58:
 3439               	.global	client_http_post
 3441               	client_http_post:
 3442               	.LFB59:
 3443               	.LM609:
 3444               	.LVL252:
 3445 0f90 0F93      		push r16
 3446               	.LVL253:
 3447 0f92 1F93      		push r17
 3448               	/* prologue: function */
 3449               	/* frame size = 0 */
 3450               	.LM610:
 3451 0f94 9093 0000 		sts (client_urlbuf)+1,r25
 3452 0f98 8093 0000 		sts client_urlbuf,r24
 3453               	.LM611:
 3454 0f9c 7093 0000 		sts (client_hoststr)+1,r23
 3455 0fa0 6093 0000 		sts client_hoststr,r22
 3456               	.LM612:
 3457 0fa4 5093 0000 		sts (client_additionalheaderline)+1,r21
 3458 0fa8 4093 0000 		sts client_additionalheaderline,r20
 3459               	.LM613:
 3460 0fac 3093 0000 		sts (client_postval)+1,r19
 3461 0fb0 2093 0000 		sts client_postval,r18
 3462               	.LM614:
 3463 0fb4 21E0      		ldi r18,lo8(1)
 3464               	.LVL254:
 3465 0fb6 2093 0000 		sts browsertype,r18
 3466               	.LM615:
 3467 0fba 1093 0000 		sts (client_browser_callback)+1,r17
 3468 0fbe 0093 0000 		sts client_browser_callback,r16
 3469               	.LVL255:
 3470               	.LBB304:
 3471               	.LBB305:
 3472               	.LM616:
 3473 0fc2 80E0      		ldi r24,lo8(gs(www_client_internal_result_callback))
 3474 0fc4 90E0      		ldi r25,hi8(gs(www_client_internal_result_callback))
 3475               	.LVL256:
 3476 0fc6 9093 0000 		sts (client_tcp_result_callback)+1,r25
 3477 0fca 8093 0000 		sts client_tcp_result_callback,r24
 3478               	.LM617:
 3479 0fce 80E0      		ldi r24,lo8(gs(www_client_internal_datafill_callback))
 3480 0fd0 90E0      		ldi r25,hi8(gs(www_client_internal_datafill_callback))
 3481 0fd2 9093 0000 		sts (client_tcp_datafill_callback)+1,r25
 3482 0fd6 8093 0000 		sts client_tcp_datafill_callback,r24
 3483               	.LM618:
 3484 0fda 1092 0000 		sts tcp_client_port_h,__zero_reg__
 3485               	.LM619:
 3486 0fde 80E5      		ldi r24,lo8(80)
 3487 0fe0 8093 0000 		sts tcp_client_port_l,r24
 3488               	.LM620:
 3489 0fe4 2093 0000 		sts tcp_client_state,r18
 3490               	.LM621:
 3491 0fe8 8091 0000 		lds r24,tcp_fd
 3492 0fec 8F5F      		subi r24,lo8(-(1))
 3493 0fee 8093 0000 		sts tcp_fd,r24
 3494               	.LM622:
 3495 0ff2 8830      		cpi r24,lo8(8)
 3496 0ff4 00F0      		brlo .L299
 3497               	.LM623:
 3498 0ff6 1092 0000 		sts tcp_fd,__zero_reg__
 3499               	.L299:
 3500               	.LBE305:
 3501               	.LBE304:
 3502               	.LM624:
 3503 0ffa 8091 0000 		lds r24,tcp_fd
 3504 0ffe 8093 0000 		sts www_fd,r24
 3505               	/* epilogue start */
 3506               	.LM625:
 3507 1002 1F91      		pop r17
 3508 1004 0F91      		pop r16
 3509               	.LVL257:
 3510 1006 0895      		ret
 3511               	.LFE59:
 3513               	.global	register_ping_rec_callback
 3515               	register_ping_rec_callback:
 3516               	.LFB60:
 3517               	.LM626:
 3518               	.LVL258:
 3519               	/* prologue: function */
 3520               	/* frame size = 0 */
 3521               	.LM627:
 3522 1008 9093 0000 		sts (icmp_callback)+1,r25
 3523 100c 8093 0000 		sts icmp_callback,r24
 3524               	/* epilogue start */
 3525               	.LM628:
 3526 1010 0895      		ret
 3527               	.LFE60:
 3529               	.global	packetloop_icmp_tcp
 3531               	packetloop_icmp_tcp:
 3532               	.LFB61:
 3533               	.LM629:
 3534               	.LVL259:
 3535 1012 CF92      		push r12
 3536 1014 DF92      		push r13
 3537 1016 EF92      		push r14
 3538 1018 FF92      		push r15
 3539 101a 0F93      		push r16
 3540 101c 1F93      		push r17
 3541 101e CF93      		push r28
 3542 1020 DF93      		push r29
 3543               	/* prologue: function */
 3544               	/* frame size = 0 */
 3545 1022 7C01      		movw r14,r24
 3546 1024 6B01      		movw r12,r22
 3547               	.LM630:
 3548 1026 6115      		cp r22,__zero_reg__
 3549 1028 7105      		cpc r23,__zero_reg__
 3550 102a 01F4      		brne .L304
 3551               	.LVL260:
 3552               	.LM631:
 3553 102c 8091 0000 		lds r24,waitgwmac
 3554 1030 8570      		andi r24,lo8(5)
 3555 1032 01F0      		breq .L305
 3556 1034 8091 0000 		lds r24,delaycnt
 3557 1038 9091 0000 		lds r25,(delaycnt)+1
 3558 103c 892B      		or r24,r25
 3559 103e 01F4      		brne .L305
 3560 1040 0E94 0000 		call enc28j60linkup
 3561               	.LVL261:
 3562 1044 8823      		tst r24
 3563 1046 01F0      		breq .L305
 3564               	.LM632:
 3565 1048 C701      		movw r24,r14
 3566 104a 60E0      		ldi r22,lo8(gwip)
 3567 104c 70E0      		ldi r23,hi8(gwip)
 3568 104e 0E94 0000 		call client_arp_whohas
 3569               	.LVL262:
 3570               	.L305:
 3571               	.LM633:
 3572 1052 8091 0000 		lds r24,delaycnt
 3573 1056 9091 0000 		lds r25,(delaycnt)+1
 3574 105a 0196      		adiw r24,1
 3575 105c 9093 0000 		sts (delaycnt)+1,r25
 3576 1060 8093 0000 		sts delaycnt,r24
 3577               	.LM634:
 3578 1064 8091 0000 		lds r24,tcp_client_state
 3579 1068 8130      		cpi r24,lo8(1)
 3580 106a 01F0      		breq .+2
 3581 106c 00C0      		rjmp .L306
 3582 106e 8091 0000 		lds r24,waitgwmac
 3583 1072 81FF      		sbrs r24,1
 3584 1074 00C0      		rjmp .L306
 3585               	.LM635:
 3586 1076 82E0      		ldi r24,lo8(2)
 3587 1078 8093 0000 		sts tcp_client_state,r24
 3588               	.LM636:
 3589 107c 8091 0000 		lds r24,tcpclient_src_port_l
 3590 1080 8F5F      		subi r24,lo8(-(1))
 3591 1082 8093 0000 		sts tcpclient_src_port_l,r24
 3592               	.LM637:
 3593 1086 8F71      		andi r24,lo8(31)
 3594 1088 6091 0000 		lds r22,tcp_fd
 3595 108c 6295      		swap r22
 3596 108e 660F      		lsl r22
 3597 1090 607E      		andi r22,lo8(-32)
 3598 1092 682B      		or r22,r24
 3599 1094 C701      		movw r24,r14
 3600 1096 4091 0000 		lds r20,tcp_client_port_h
 3601 109a 2091 0000 		lds r18,tcp_client_port_l
 3602 109e 0E94 0000 		call client_syn
 3603 10a2 00C0      		rjmp .L306
 3604               	.LVL263:
 3605               	.L304:
 3606               	.LM638:
 3607 10a4 0E94 0000 		call eth_type_is_arp_and_my_ip
 3608               	.LVL264:
 3609 10a8 8823      		tst r24
 3610 10aa 01F0      		breq .L308
 3611               	.LM639:
 3612 10ac D701      		movw r26,r14
 3613 10ae 5596      		adiw r26,21
 3614 10b0 8C91      		ld r24,X
 3615 10b2 8130      		cpi r24,lo8(1)
 3616 10b4 01F4      		brne .L309
 3617               	.LM640:
 3618 10b6 C701      		movw r24,r14
 3619 10b8 0E94 0000 		call make_arp_answer_from_request
 3620               	.L309:
 3621               	.LM641:
 3622 10bc 8091 0000 		lds r24,waitgwmac
 3623 10c0 83FF      		sbrs r24,3
 3624 10c2 00C0      		rjmp .L306
 3625 10c4 F701      		movw r30,r14
 3626 10c6 8589      		ldd r24,Z+21
 3627 10c8 8230      		cpi r24,lo8(2)
 3628 10ca 01F0      		breq .+2
 3629 10cc 00C0      		rjmp .L306
 3630 10ce E701      		movw r28,r14
 3631 10d0 E0E0      		ldi r30,lo8(gwip)
 3632 10d2 F0E0      		ldi r31,hi8(gwip)
 3633 10d4 D701      		movw r26,r14
 3634               	.LVL265:
 3635               	.L310:
 3636               	.LBB306:
 3637               	.LBB307:
 3638               	.LM642:
 3639 10d6 5C96      		adiw r26,28
 3640 10d8 9C91      		ld r25,X
 3641 10da 5C97      		sbiw r26,28
 3642 10dc 8081      		ld r24,Z
 3643 10de 9817      		cp r25,r24
 3644 10e0 01F0      		breq .+2
 3645 10e2 00C0      		rjmp .L306
 3646 10e4 1196      		adiw r26,1
 3647 10e6 3196      		adiw r30,1
 3648               	.LM643:
 3649 10e8 80E0      		ldi r24,hi8(gwip+4)
 3650 10ea E030      		cpi r30,lo8(gwip+4)
 3651 10ec F807      		cpc r31,r24
 3652 10ee 01F4      		brne .L310
 3653 10f0 E0E0      		ldi r30,lo8(gwmacaddr)
 3654 10f2 F0E0      		ldi r31,hi8(gwmacaddr)
 3655               	.L311:
 3656               	.LM644:
 3657 10f4 8E89      		ldd r24,Y+22
 3658 10f6 8193      		st Z+,r24
 3659 10f8 2196      		adiw r28,1
 3660               	.LM645:
 3661 10fa 90E0      		ldi r25,hi8(gwmacaddr+6)
 3662 10fc E030      		cpi r30,lo8(gwmacaddr+6)
 3663 10fe F907      		cpc r31,r25
 3664 1100 01F4      		brne .L311
 3665 1102 00C0      		rjmp .L348
 3666               	.LVL266:
 3667               	.L308:
 3668               	.LBE307:
 3669               	.LBE306:
 3670               	.LM646:
 3671 1104 C701      		movw r24,r14
 3672 1106 B601      		movw r22,r12
 3673 1108 0E94 0000 		call eth_type_is_ip_and_my_ip
 3674 110c 8823      		tst r24
 3675 110e 01F4      		brne .+2
 3676 1110 00C0      		rjmp .L306
 3677               	.LM647:
 3678 1112 D701      		movw r26,r14
 3679 1114 5796      		adiw r26,23
 3680 1116 9C91      		ld r25,X
 3681 1118 5797      		sbiw r26,23
 3682 111a 9130      		cpi r25,lo8(1)
 3683 111c 01F4      		brne .L313
 3684 111e 9296      		adiw r26,34
 3685 1120 8C91      		ld r24,X
 3686 1122 8830      		cpi r24,lo8(8)
 3687 1124 01F4      		brne .L313
 3688               	.LM648:
 3689 1126 E091 0000 		lds r30,icmp_callback
 3690 112a F091 0000 		lds r31,(icmp_callback)+1
 3691 112e 3097      		sbiw r30,0
 3692 1130 01F0      		breq .L314
 3693               	.LM649:
 3694 1132 C701      		movw r24,r14
 3695 1134 4A96      		adiw r24,26
 3696 1136 0995      		icall
 3697               	.L314:
 3698               	.LM650:
 3699 1138 C701      		movw r24,r14
 3700 113a B601      		movw r22,r12
 3701 113c 0E94 0000 		call make_echo_reply_from_request
 3702 1140 00C0      		rjmp .L306
 3703               	.L313:
 3704               	.LM651:
 3705 1142 B6E3      		ldi r27,lo8(54)
 3706 1144 CB16      		cp r12,r27
 3707 1146 D104      		cpc r13,__zero_reg__
 3708 1148 00F4      		brsh .L315
 3709 114a 9630      		cpi r25,lo8(6)
 3710 114c 01F0      		breq .+2
 3711 114e 00C0      		rjmp .L306
 3712               	.L315:
 3713               	.LM652:
 3714 1150 F701      		movw r30,r14
 3715 1152 94A1      		ldd r25,Z+36
 3716 1154 9B30      		cpi r25,lo8(11)
 3717 1156 01F0      		breq .+2
 3718 1158 00C0      		rjmp .L316
 3719               	.LM653:
 3720 115a F092 0000 		sts (bufptr)+1,r15
 3721 115e E092 0000 		sts bufptr,r14
 3722 1162 D701      		movw r26,r14
 3723 1164 E0E0      		ldi r30,lo8(tcpsrvip)
 3724 1166 F0E0      		ldi r31,hi8(tcpsrvip)
 3725               	.L317:
 3726               	.LBB308:
 3727               	.LBB309:
 3728               	.LM654:
 3729 1168 5A96      		adiw r26,26
 3730 116a 9C91      		ld r25,X
 3731 116c 5A97      		sbiw r26,26
 3732 116e 8081      		ld r24,Z
 3733 1170 9817      		cp r25,r24
 3734 1172 01F0      		breq .+2
 3735 1174 00C0      		rjmp .L306
 3736 1176 1196      		adiw r26,1
 3737 1178 3196      		adiw r30,1
 3738               	.LM655:
 3739 117a 80E0      		ldi r24,hi8(tcpsrvip+4)
 3740 117c E030      		cpi r30,lo8(tcpsrvip+4)
 3741 117e F807      		cpc r31,r24
 3742 1180 01F4      		brne .L317
 3743 1182 00C0      		rjmp .L349
 3744               	.L335:
 3745               	.LBE309:
 3746               	.LBE308:
 3747               	.LM656:
 3748 1184 E091 0000 		lds r30,client_tcp_result_callback
 3749 1188 F091 0000 		lds r31,(client_tcp_result_callback)+1
 3750 118c 3097      		sbiw r30,0
 3751 118e 01F4      		brne .+2
 3752 1190 00C0      		rjmp .L346
 3753               	.LM657:
 3754 1192 D701      		movw r26,r14
 3755 1194 9596      		adiw r26,37
 3756 1196 8C91      		ld r24,X
 3757 1198 8295      		swap r24
 3758 119a 8695      		lsr r24
 3759 119c 8770      		andi r24,lo8(7)
 3760 119e 63E0      		ldi r22,lo8(3)
 3761 11a0 40E0      		ldi r20,lo8(0)
 3762 11a2 50E0      		ldi r21,hi8(0)
 3763 11a4 20E0      		ldi r18,lo8(0)
 3764 11a6 30E0      		ldi r19,hi8(0)
 3765 11a8 0995      		icall
 3766 11aa 00C0      		rjmp .L346
 3767               	.L350:
 3768               	.LBB310:
 3769               	.LBB311:
 3770               	.LM658:
 3771 11ac F701      		movw r30,r14
 3772 11ae 9089      		ldd r25,Z+16
 3773 11b0 80E0      		ldi r24,lo8(0)
 3774 11b2 2189      		ldd r18,Z+17
 3775 11b4 022F      		mov r16,r18
 3776               	.LVL267:
 3777 11b6 10E0      		ldi r17,lo8(0)
 3778               	.LVL268:
 3779 11b8 082B      		or r16,r24
 3780 11ba 192B      		or r17,r25
 3781               	.LVL269:
 3782               	.LM659:
 3783 11bc 26A5      		ldd r18,Z+46
 3784 11be 822F      		mov r24,r18
 3785 11c0 8295      		swap r24
 3786 11c2 8F70      		andi r24,lo8(15)
 3787 11c4 90E0      		ldi r25,lo8(0)
 3788 11c6 880F      		lsl r24
 3789 11c8 991F      		rol r25
 3790 11ca 880F      		lsl r24
 3791 11cc 991F      		rol r25
 3792 11ce 081B      		sub r16,r24
 3793 11d0 190B      		sbc r17,r25
 3794               	.LM660:
 3795 11d2 0451      		subi r16,lo8(-(-20))
 3796 11d4 1040      		sbci r17,hi8(-(-20))
 3797 11d6 17FF      		sbrs r17,7
 3798 11d8 00C0      		rjmp .L320
 3799 11da 00E0      		ldi r16,lo8(0)
 3800 11dc 10E0      		ldi r17,hi8(0)
 3801               	.L320:
 3802               	.LM661:
 3803 11de E801      		movw r28,r16
 3804               	.LVL270:
 3805               	.LBE311:
 3806               	.LBE310:
 3807               	.LM662:
 3808 11e0 8091 0000 		lds r24,tcp_client_state
 3809 11e4 8230      		cpi r24,lo8(2)
 3810 11e6 01F4      		brne .L321
 3811               	.LM663:
 3812 11e8 31FF      		sbrs r19,1
 3813 11ea 00C0      		rjmp .L322
 3814 11ec 34FF      		sbrs r19,4
 3815 11ee 00C0      		rjmp .L322
 3816               	.LM664:
 3817 11f0 C701      		movw r24,r14
 3818 11f2 60E0      		ldi r22,lo8(0)
 3819 11f4 70E0      		ldi r23,hi8(0)
 3820 11f6 40E0      		ldi r20,lo8(0)
 3821 11f8 0E94 0000 		call make_tcp_ack_from_any
 3822               	.LM665:
 3823 11fc 88E1      		ldi r24,lo8(24)
 3824 11fe D701      		movw r26,r14
 3825 1200 9F96      		adiw r26,47
 3826 1202 8C93      		st X,r24
 3827               	.LM666:
 3828 1204 E091 0000 		lds r30,client_tcp_datafill_callback
 3829 1208 F091 0000 		lds r31,(client_tcp_datafill_callback)+1
 3830 120c 3097      		sbiw r30,0
 3831 120e 01F4      		brne .L323
 3832 1210 60E0      		ldi r22,lo8(0)
 3833 1212 70E0      		ldi r23,hi8(0)
 3834               	.LVL271:
 3835 1214 00C0      		rjmp .L324
 3836               	.LVL272:
 3837               	.L323:
 3838               	.LM667:
 3839 1216 D701      		movw r26,r14
 3840 1218 9396      		adiw r26,35
 3841 121a 8C91      		ld r24,X
 3842 121c 8295      		swap r24
 3843 121e 8695      		lsr r24
 3844 1220 8770      		andi r24,lo8(7)
 3845 1222 0995      		icall
 3846 1224 BC01      		movw r22,r24
 3847               	.LVL273:
 3848               	.L324:
 3849               	.LM668:
 3850 1226 83E0      		ldi r24,lo8(3)
 3851 1228 8093 0000 		sts tcp_client_state,r24
 3852               	.LM669:
 3853 122c C701      		movw r24,r14
 3854 122e 0E94 0000 		call make_tcp_ack_with_data_noflags
 3855               	.LVL274:
 3856 1232 00C0      		rjmp .L306
 3857               	.LVL275:
 3858               	.L322:
 3859               	.LM670:
 3860 1234 81E0      		ldi r24,lo8(1)
 3861 1236 8093 0000 		sts tcp_client_state,r24
 3862               	.LM671:
 3863 123a F701      		movw r30,r14
 3864 123c 87A5      		ldd r24,Z+47
 3865 123e 84FF      		sbrs r24,4
 3866 1240 00C0      		rjmp .L325
 3867 1242 60E0      		ldi r22,lo8(0)
 3868 1244 70E0      		ldi r23,hi8(0)
 3869               	.LVL276:
 3870 1246 00C0      		rjmp .L326
 3871               	.LVL277:
 3872               	.L325:
 3873               	.LM672:
 3874 1248 B801      		movw r22,r16
 3875               	.LVL278:
 3876 124a 6F5F      		subi r22,lo8(-(1))
 3877 124c 7F4F      		sbci r23,hi8(-(1))
 3878               	.L326:
 3879               	.LM673:
 3880 124e C701      		movw r24,r14
 3881 1250 44E0      		ldi r20,lo8(4)
 3882 1252 00C0      		rjmp .L347
 3883               	.LVL279:
 3884               	.L321:
 3885               	.LM674:
 3886 1254 8330      		cpi r24,lo8(3)
 3887 1256 01F4      		brne .L327
 3888 1258 0115      		cp r16,__zero_reg__
 3889 125a 1105      		cpc r17,__zero_reg__
 3890 125c 01F0      		breq .L327
 3891               	.LM675:
 3892 125e 84E0      		ldi r24,lo8(4)
 3893 1260 8093 0000 		sts tcp_client_state,r24
 3894               	.LM676:
 3895 1264 E091 0000 		lds r30,client_tcp_result_callback
 3896 1268 F091 0000 		lds r31,(client_tcp_result_callback)+1
 3897 126c 3097      		sbiw r30,0
 3898 126e 01F0      		breq .L327
 3899               	.LM677:
 3900 1270 D701      		movw r26,r14
 3901 1272 9E96      		adiw r26,46
 3902 1274 8C91      		ld r24,X
 3903 1276 8295      		swap r24
 3904 1278 8F70      		andi r24,lo8(15)
 3905 127a 482F      		mov r20,r24
 3906               	.LVL280:
 3907 127c 50E0      		ldi r21,lo8(0)
 3908               	.LVL281:
 3909 127e 440F      		lsl r20
 3910 1280 551F      		rol r21
 3911 1282 440F      		lsl r20
 3912 1284 551F      		rol r21
 3913               	.LVL282:
 3914 1286 C601      		movw r24,r12
 3915 1288 0897      		sbiw r24,8
 3916 128a 4E5D      		subi r20,lo8(-(34))
 3917 128c 5F4F      		sbci r21,hi8(-(34))
 3918 128e 8417      		cp r24,r20
 3919 1290 9507      		cpc r25,r21
 3920 1292 00F4      		brsh .L328
 3921 1294 AC01      		movw r20,r24
 3922               	.L328:
 3923               	.LM678:
 3924 1296 C801      		movw r24,r16
 3925 1298 840F      		add r24,r20
 3926 129a 951F      		adc r25,r21
 3927 129c C816      		cp r12,r24
 3928 129e D906      		cpc r13,r25
 3929 12a0 00F0      		brlo .L329
 3930 12a2 9801      		movw r18,r16
 3931               	.LVL283:
 3932 12a4 00C0      		rjmp .L330
 3933               	.LVL284:
 3934               	.L329:
 3935               	.LM679:
 3936 12a6 9601      		movw r18,r12
 3937               	.LVL285:
 3938 12a8 241B      		sub r18,r20
 3939 12aa 350B      		sbc r19,r21
 3940               	.L330:
 3941               	.LM680:
 3942 12ac D701      		movw r26,r14
 3943 12ae 9596      		adiw r26,37
 3944 12b0 8C91      		ld r24,X
 3945 12b2 8295      		swap r24
 3946 12b4 8695      		lsr r24
 3947 12b6 8770      		andi r24,lo8(7)
 3948 12b8 60E0      		ldi r22,lo8(0)
 3949 12ba 0995      		icall
 3950               	.LVL286:
 3951               	.LM681:
 3952 12bc 8823      		tst r24
 3953 12be 01F4      		brne .L345
 3954               	.L327:
 3955               	.LM682:
 3956 12c0 8091 0000 		lds r24,tcp_client_state
 3957 12c4 8530      		cpi r24,lo8(5)
 3958 12c6 01F4      		brne .+2
 3959 12c8 00C0      		rjmp .L306
 3960               	.LM683:
 3961 12ca F701      		movw r30,r14
 3962 12cc 87A5      		ldd r24,Z+47
 3963 12ce 80FF      		sbrs r24,0
 3964 12d0 00C0      		rjmp .L331
 3965               	.LM684:
 3966 12d2 0F5F      		subi r16,lo8(-(1))
 3967 12d4 1F4F      		sbci r17,hi8(-(1))
 3968               	.L345:
 3969 12d6 C701      		movw r24,r14
 3970 12d8 B801      		movw r22,r16
 3971 12da 49E0      		ldi r20,lo8(9)
 3972 12dc 0E94 0000 		call make_tcp_ack_from_any
 3973               	.L346:
 3974               	.LM685:
 3975 12e0 85E0      		ldi r24,lo8(5)
 3976 12e2 8093 0000 		sts tcp_client_state,r24
 3977 12e6 00C0      		rjmp .L306
 3978               	.L331:
 3979               	.LM686:
 3980 12e8 0115      		cp r16,__zero_reg__
 3981 12ea 1105      		cpc r17,__zero_reg__
 3982 12ec 01F4      		brne .+2
 3983 12ee 00C0      		rjmp .L307
 3984               	.LM687:
 3985 12f0 C701      		movw r24,r14
 3986 12f2 B801      		movw r22,r16
 3987 12f4 00C0      		rjmp .L344
 3988               	.LVL287:
 3989               	.L316:
 3990               	.LM688:
 3991 12f6 8091 0000 		lds r24,wwwport_h
 3992 12fa 9817      		cp r25,r24
 3993 12fc 01F0      		breq .+2
 3994 12fe 00C0      		rjmp .L306
 3995 1300 D701      		movw r26,r14
 3996 1302 9596      		adiw r26,37
 3997 1304 9C91      		ld r25,X
 3998 1306 9597      		sbiw r26,37
 3999 1308 8091 0000 		lds r24,wwwport_l
 4000 130c 9817      		cp r25,r24
 4001 130e 01F0      		breq .+2
 4002 1310 00C0      		rjmp .L306
 4003               	.LM689:
 4004 1312 9F96      		adiw r26,47
 4005 1314 8C91      		ld r24,X
 4006 1316 81FF      		sbrs r24,1
 4007 1318 00C0      		rjmp .L332
 4008               	.LM690:
 4009 131a C701      		movw r24,r14
 4010 131c 0E94 0000 		call make_tcp_synack_from_syn
 4011 1320 00C0      		rjmp .L306
 4012               	.L332:
 4013               	.LM691:
 4014 1322 84FF      		sbrs r24,4
 4015 1324 00C0      		rjmp .L306
 4016               	.LBB312:
 4017               	.LBB313:
 4018               	.LM692:
 4019 1326 F701      		movw r30,r14
 4020 1328 9089      		ldd r25,Z+16
 4021 132a 80E0      		ldi r24,lo8(0)
 4022 132c 2189      		ldd r18,Z+17
 4023 132e 422F      		mov r20,r18
 4024 1330 50E0      		ldi r21,lo8(0)
 4025 1332 482B      		or r20,r24
 4026 1334 592B      		or r21,r25
 4027               	.LM693:
 4028 1336 26A5      		ldd r18,Z+46
 4029 1338 822F      		mov r24,r18
 4030 133a 8295      		swap r24
 4031 133c 8F70      		andi r24,lo8(15)
 4032 133e 90E0      		ldi r25,lo8(0)
 4033 1340 880F      		lsl r24
 4034 1342 991F      		rol r25
 4035 1344 880F      		lsl r24
 4036 1346 991F      		rol r25
 4037 1348 481B      		sub r20,r24
 4038 134a 590B      		sbc r21,r25
 4039               	.LM694:
 4040 134c 4451      		subi r20,lo8(-(-20))
 4041 134e 5040      		sbci r21,hi8(-(-20))
 4042               	.LM695:
 4043 1350 57FF      		sbrs r21,7
 4044 1352 00C0      		rjmp .L333
 4045 1354 40E0      		ldi r20,lo8(0)
 4046 1356 50E0      		ldi r21,hi8(0)
 4047               	.L333:
 4048               	.LBE313:
 4049               	.LBE312:
 4050               	.LM696:
 4051 1358 5093 0000 		sts (info_data_len)+1,r21
 4052 135c 4093 0000 		sts info_data_len,r20
 4053               	.LM697:
 4054 1360 452B      		or r20,r21
 4055 1362 01F4      		brne .L334
 4056               	.LM698:
 4057 1364 D701      		movw r26,r14
 4058 1366 9F96      		adiw r26,47
 4059 1368 8C91      		ld r24,X
 4060 136a 80FF      		sbrs r24,0
 4061 136c 00C0      		rjmp .L306
 4062               	.LM699:
 4063 136e C701      		movw r24,r14
 4064 1370 60E0      		ldi r22,lo8(0)
 4065 1372 70E0      		ldi r23,hi8(0)
 4066               	.LVL288:
 4067               	.L344:
 4068 1374 40E0      		ldi r20,lo8(0)
 4069               	.LVL289:
 4070               	.L347:
 4071 1376 0E94 0000 		call make_tcp_ack_from_any
 4072 137a 00C0      		rjmp .L306
 4073               	.LVL290:
 4074               	.L334:
 4075               	.LM700:
 4076 137c F701      		movw r30,r14
 4077 137e 86A5      		ldd r24,Z+46
 4078 1380 8295      		swap r24
 4079 1382 8F70      		andi r24,lo8(15)
 4080 1384 C82F      		mov r28,r24
 4081               	.LVL291:
 4082 1386 D0E0      		ldi r29,lo8(0)
 4083               	.LVL292:
 4084 1388 CC0F      		lsl r28
 4085 138a DD1F      		rol r29
 4086 138c CC0F      		lsl r28
 4087 138e DD1F      		rol r29
 4088               	.LVL293:
 4089 1390 A296      		adiw r28,34
 4090               	.LM701:
 4091 1392 88EF      		ldi r24,lo8(-8)
 4092 1394 9FEF      		ldi r25,hi8(-8)
 4093 1396 C80E      		add r12,r24
 4094 1398 D91E      		adc r13,r25
 4095 139a CC16      		cp r12,r28
 4096 139c DD06      		cpc r13,r29
 4097 139e 00F4      		brsh .L307
 4098               	.LVL294:
 4099               	.L306:
 4100 13a0 C0E0      		ldi r28,lo8(0)
 4101 13a2 D0E0      		ldi r29,hi8(0)
 4102               	.L307:
 4103               	.LM702:
 4104 13a4 CE01      		movw r24,r28
 4105               	.LVL295:
 4106               	/* epilogue start */
 4107 13a6 DF91      		pop r29
 4108               	.LVL296:
 4109 13a8 CF91      		pop r28
 4110 13aa 1F91      		pop r17
 4111               	.LVL297:
 4112 13ac 0F91      		pop r16
 4113               	.LVL298:
 4114 13ae FF90      		pop r15
 4115 13b0 EF90      		pop r14
 4116               	.LVL299:
 4117 13b2 DF90      		pop r13
 4118 13b4 CF90      		pop r12
 4119               	.LVL300:
 4120 13b6 0895      		ret
 4121               	.LVL301:
 4122               	.L348:
 4123               	.LM703:
 4124 13b8 82E0      		ldi r24,lo8(2)
 4125 13ba 8093 0000 		sts waitgwmac,r24
 4126 13be 00C0      		rjmp .L306
 4127               	.LVL302:
 4128               	.L349:
 4129               	.LM704:
 4130 13c0 D701      		movw r26,r14
 4131 13c2 9F96      		adiw r26,47
 4132 13c4 8C91      		ld r24,X
 4133 13c6 382F      		mov r19,r24
 4134 13c8 82FD      		sbrc r24,2
 4135 13ca 00C0      		rjmp .L335
 4136 13cc 00C0      		rjmp .L350
 4137               	.LFE61:
 4139               	.global	find_key_val
 4141               	find_key_val:
 4142               	.LFB62:
 4143               	.LM705:
 4144               	.LVL303:
 4145 13ce CF93      		push r28
 4146 13d0 DF93      		push r29
 4147               	/* prologue: function */
 4148               	/* frame size = 0 */
 4149 13d2 DC01      		movw r26,r24
 4150 13d4 EB01      		movw r28,r22
 4151 13d6 722F      		mov r23,r18
 4152 13d8 632F      		mov r22,r19
 4153               	.LVL304:
 4154               	.LM706:
 4155 13da 822F      		mov r24,r18
 4156               	.LVL305:
 4157 13dc 932F      		mov r25,r19
 4158               	.LVL306:
 4159 13de 9C01      		movw r18,r24
 4160               	.LVL307:
 4161 13e0 F901      		movw r30,r18
 4162               	.LVL308:
 4163 13e2 50E0      		ldi r21,lo8(0)
 4164               	.LVL309:
 4165 13e4 00C0      		rjmp .L352
 4166               	.LVL310:
 4167               	.L356:
 4168               	.LM707:
 4169 13e6 8081      		ld r24,Z
 4170 13e8 9817      		cp r25,r24
 4171 13ea 01F4      		brne .L353
 4172               	.LM708:
 4173 13ec 3196      		adiw r30,1
 4174               	.LM709:
 4175 13ee 8081      		ld r24,Z
 4176 13f0 8823      		tst r24
 4177 13f2 01F4      		brne .L354
 4178               	.LM710:
 4179 13f4 1196      		adiw r26,1
 4180               	.LM711:
 4181 13f6 8C91      		ld r24,X
 4182 13f8 8D33      		cpi r24,lo8(61)
 4183 13fa 01F4      		brne .L353
 4184 13fc 872F      		mov r24,r23
 4185               	.LVL311:
 4186 13fe 962F      		mov r25,r22
 4187               	.LVL312:
 4188 1400 9C01      		movw r18,r24
 4189               	.LVL313:
 4190 1402 F901      		movw r30,r18
 4191               	.LVL314:
 4192 1404 51E0      		ldi r21,lo8(1)
 4193 1406 00C0      		rjmp .L354
 4194               	.LVL315:
 4195               	.L353:
 4196 1408 872F      		mov r24,r23
 4197               	.LVL316:
 4198 140a 962F      		mov r25,r22
 4199               	.LVL317:
 4200 140c 9C01      		movw r18,r24
 4201               	.LVL318:
 4202 140e F901      		movw r30,r18
 4203               	.LVL319:
 4204               	.L354:
 4205               	.LM712:
 4206 1410 1196      		adiw r26,1
 4207               	.L352:
 4208               	.LM713:
 4209 1412 9C91      		ld r25,X
 4210               	.LVL320:
 4211 1414 9923      		tst r25
 4212 1416 01F0      		breq .L355
 4213               	.LVL321:
 4214 1418 9032      		cpi r25,lo8(32)
 4215 141a 01F0      		breq .L355
 4216 141c 9A30      		cpi r25,lo8(10)
 4217 141e 01F0      		breq .L355
 4218 1420 5523      		tst r21
 4219 1422 01F0      		breq .L356
 4220 1424 00C0      		rjmp .L357
 4221               	.L355:
 4222               	.LM714:
 4223 1426 5130      		cpi r21,lo8(1)
 4224 1428 01F0      		breq .L357
 4225 142a 30E0      		ldi r19,lo8(0)
 4226               	.LVL322:
 4227 142c 00C0      		rjmp .L358
 4228               	.LVL323:
 4229               	.L357:
 4230 142e 6A2F      		mov r22,r26
 4231               	.LM715:
 4232 1430 50E0      		ldi r21,lo8(0)
 4233               	.LVL324:
 4234 1432 4150      		subi r20,lo8(-(-1))
 4235 1434 5040      		sbci r21,hi8(-(-1))
 4236               	.LVL325:
 4237 1436 00C0      		rjmp .L359
 4238               	.LVL326:
 4239               	.L361:
 4240               	.LM716:
 4241 1438 2993      		st Y+,r18
 4242               	.LM717:
 4243 143a 1196      		adiw r26,1
 4244               	.LVL327:
 4245               	.L359:
 4246               	.LM718:
 4247 143c 3A2F      		mov r19,r26
 4248               	.LVL328:
 4249 143e 361B      		sub r19,r22
 4250               	.LM719:
 4251 1440 2C91      		ld r18,X
 4252 1442 2223      		tst r18
 4253 1444 01F0      		breq .L360
 4254               	.LVL329:
 4255 1446 2032      		cpi r18,lo8(32)
 4256 1448 01F0      		breq .L360
 4257 144a 2A30      		cpi r18,lo8(10)
 4258 144c 01F0      		breq .L360
 4259 144e 2632      		cpi r18,lo8(38)
 4260 1450 01F0      		breq .L360
 4261 1452 832F      		mov r24,r19
 4262 1454 90E0      		ldi r25,lo8(0)
 4263 1456 8417      		cp r24,r20
 4264 1458 9507      		cpc r25,r21
 4265 145a 04F0      		brlt .L361
 4266               	.L360:
 4267               	.LM720:
 4268 145c 1882      		st Y,__zero_reg__
 4269               	.LVL330:
 4270               	.L358:
 4271               	.LM721:
 4272 145e 832F      		mov r24,r19
 4273               	/* epilogue start */
 4274 1460 DF91      		pop r29
 4275 1462 CF91      		pop r28
 4276               	.LVL331:
 4277 1464 0895      		ret
 4278               	.LFE62:
 4280               	.global	h2int
 4282               	h2int:
 4283               	.LFB63:
 4284               	.LM722:
 4285               	.LVL332:
 4286               	/* prologue: function */
 4287               	/* frame size = 0 */
 4288 1466 982F      		mov r25,r24
 4289               	.LM723:
 4290 1468 8053      		subi r24,lo8(-(-48))
 4291               	.LVL333:
 4292 146a 8A30      		cpi r24,lo8(10)
 4293 146c 00F0      		brlo .L364
 4294               	.LM724:
 4295 146e 8153      		subi r24,lo8(-(-49))
 4296 1470 8630      		cpi r24,lo8(6)
 4297 1472 00F4      		brsh .L365
 4298               	.LM725:
 4299 1474 865F      		subi r24,lo8(-(10))
 4300 1476 0895      		ret
 4301               	.L365:
 4302               	.LM726:
 4303 1478 892F      		mov r24,r25
 4304 147a 8154      		subi r24,lo8(-(-65))
 4305 147c 8630      		cpi r24,lo8(6)
 4306 147e 00F0      		brlo .L366
 4307 1480 80E0      		ldi r24,lo8(0)
 4308 1482 0895      		ret
 4309               	.L366:
 4310               	.LM727:
 4311 1484 892F      		mov r24,r25
 4312 1486 8753      		subi r24,lo8(-(-55))
 4313               	.L364:
 4314               	.LM728:
 4315 1488 0895      		ret
 4316               	.LFE63:
 4318               	.global	urldecode
 4320               	urldecode:
 4321               	.LFB64:
 4322               	.LM729:
 4323               	.LVL334:
 4324 148a CF93      		push r28
 4325 148c DF93      		push r29
 4326               	/* prologue: function */
 4327               	/* frame size = 0 */
 4328 148e FC01      		movw r30,r24
 4329               	.LM730:
 4330 1490 EC01      		movw r28,r24
 4331               	.LVL335:
 4332 1492 00C0      		rjmp .L369
 4333               	.LVL336:
 4334               	.L378:
 4335               	.LM731:
 4336 1494 8B32      		cpi r24,lo8(43)
 4337 1496 01F4      		brne .L370
 4338 1498 80E2      		ldi r24,lo8(32)
 4339 149a 00C0      		rjmp .L371
 4340               	.L370:
 4341               	.LM732:
 4342 149c 8532      		cpi r24,lo8(37)
 4343 149e 01F4      		brne .L371
 4344               	.LM733:
 4345 14a0 DF01      		movw r26,r30
 4346 14a2 1196      		adiw r26,1
 4347               	.LVL337:
 4348               	.LM734:
 4349 14a4 9181      		ldd r25,Z+1
 4350               	.LVL338:
 4351               	.LM735:
 4352 14a6 FD01      		movw r30,r26
 4353 14a8 3196      		adiw r30,1
 4354               	.LVL339:
 4355               	.LBB314:
 4356               	.LBB315:
 4357               	.LM736:
 4358 14aa 392F      		mov r19,r25
 4359 14ac 3053      		subi r19,lo8(-(-48))
 4360 14ae 3A30      		cpi r19,lo8(10)
 4361 14b0 00F0      		brlo .L372
 4362               	.LM737:
 4363 14b2 892F      		mov r24,r25
 4364 14b4 8156      		subi r24,lo8(-(-97))
 4365 14b6 8630      		cpi r24,lo8(6)
 4366 14b8 00F4      		brsh .L373
 4367               	.LM738:
 4368 14ba 3752      		subi r19,lo8(-(-39))
 4369 14bc 00C0      		rjmp .L372
 4370               	.L373:
 4371               	.LM739:
 4372 14be 892F      		mov r24,r25
 4373 14c0 8154      		subi r24,lo8(-(-65))
 4374 14c2 8630      		cpi r24,lo8(6)
 4375 14c4 00F0      		brlo .L374
 4376 14c6 30E0      		ldi r19,lo8(0)
 4377 14c8 00C0      		rjmp .L372
 4378               	.L374:
 4379               	.LM740:
 4380 14ca 392F      		mov r19,r25
 4381 14cc 3753      		subi r19,lo8(-(-55))
 4382               	.L372:
 4383               	.LBE315:
 4384               	.LBE314:
 4385               	.LM741:
 4386 14ce 1196      		adiw r26,1
 4387 14d0 2C91      		ld r18,X
 4388               	.LBB316:
 4389               	.LBB317:
 4390               	.LM742:
 4391 14d2 922F      		mov r25,r18
 4392               	.LVL340:
 4393 14d4 9053      		subi r25,lo8(-(-48))
 4394 14d6 9A30      		cpi r25,lo8(10)
 4395 14d8 00F0      		brlo .L375
 4396               	.LVL341:
 4397               	.LM743:
 4398 14da 822F      		mov r24,r18
 4399 14dc 8156      		subi r24,lo8(-(-97))
 4400 14de 8630      		cpi r24,lo8(6)
 4401 14e0 00F4      		brsh .L376
 4402               	.LM744:
 4403 14e2 9752      		subi r25,lo8(-(-39))
 4404 14e4 00C0      		rjmp .L375
 4405               	.L376:
 4406               	.LM745:
 4407 14e6 822F      		mov r24,r18
 4408 14e8 8154      		subi r24,lo8(-(-65))
 4409 14ea 8630      		cpi r24,lo8(6)
 4410 14ec 00F0      		brlo .L377
 4411 14ee 90E0      		ldi r25,lo8(0)
 4412 14f0 00C0      		rjmp .L375
 4413               	.L377:
 4414               	.LM746:
 4415 14f2 922F      		mov r25,r18
 4416 14f4 9753      		subi r25,lo8(-(-55))
 4417               	.L375:
 4418               	.LBE317:
 4419               	.LBE316:
 4420               	.LM747:
 4421 14f6 832F      		mov r24,r19
 4422               	.LVL342:
 4423 14f8 8295      		swap r24
 4424 14fa 807F      		andi r24,lo8(-16)
 4425 14fc 892B      		or r24,r25
 4426               	.LVL343:
 4427               	.L371:
 4428               	.LM748:
 4429 14fe 8993      		st Y+,r24
 4430               	.LM749:
 4431 1500 3196      		adiw r30,1
 4432               	.LVL344:
 4433               	.L369:
 4434               	.LM750:
 4435 1502 8081      		ld r24,Z
 4436 1504 8823      		tst r24
 4437 1506 01F4      		brne .L378
 4438               	.LM751:
 4439 1508 1882      		st Y,__zero_reg__
 4440               	/* epilogue start */
 4441               	.LM752:
 4442 150a DF91      		pop r29
 4443 150c CF91      		pop r28
 4444               	.LVL345:
 4445 150e 0895      		ret
 4446               	.LFE64:
 4448               	.global	int2h
 4450               	int2h:
 4451               	.LFB65:
 4452               	.LM753:
 4453               	.LVL346:
 4454               	/* prologue: function */
 4455               	/* frame size = 0 */
 4456 1510 382F      		mov r19,r24
 4457 1512 FB01      		movw r30,r22
 4458               	.LM754:
 4459 1514 282F      		mov r18,r24
 4460 1516 2F70      		andi r18,lo8(15)
 4461 1518 205D      		subi r18,lo8(-(48))
 4462 151a 2183      		std Z+1,r18
 4463 151c 2053      		subi r18,lo8(-(-48))
 4464               	.LM755:
 4465 151e 90E0      		ldi r25,lo8(0)
 4466               	.LVL347:
 4467 1520 8F70      		andi r24,lo8(15)
 4468 1522 9070      		andi r25,hi8(15)
 4469               	.LVL348:
 4470 1524 0A97      		sbiw r24,10
 4471 1526 04F0      		brlt .L381
 4472               	.LVL349:
 4473               	.LM756:
 4474 1528 295A      		subi r18,lo8(-(87))
 4475 152a 2183      		std Z+1,r18
 4476               	.L381:
 4477               	.LM757:
 4478 152c 832F      		mov r24,r19
 4479 152e 8295      		swap r24
 4480 1530 8F70      		andi r24,lo8(15)
 4481               	.LM758:
 4482 1532 805D      		subi r24,lo8(-(48))
 4483 1534 8083      		st Z,r24
 4484 1536 8053      		subi r24,lo8(-(-48))
 4485               	.LM759:
 4486 1538 8A30      		cpi r24,lo8(10)
 4487 153a 00F0      		brlo .L382
 4488               	.LM760:
 4489 153c 895A      		subi r24,lo8(-(87))
 4490 153e 8083      		st Z,r24
 4491               	.L382:
 4492               	.LM761:
 4493 1540 1282      		std Z+2,__zero_reg__
 4494               	/* epilogue start */
 4495               	.LM762:
 4496 1542 0895      		ret
 4497               	.LFE65:
 4499               	.global	dnslkup_haveanswer
 4501               	dnslkup_haveanswer:
 4502               	.LFB69:
 4503               	.LM763:
 4504               	/* prologue: function */
 4505               	/* frame size = 0 */
 4506               	.LM764:
 4507 1544 8091 0000 		lds r24,haveDNSanswer
 4508               	/* epilogue start */
 4509 1548 0895      		ret
 4510               	.LFE69:
 4512               	.global	dnslkup_get_error_info
 4514               	dnslkup_get_error_info:
 4515               	.LFB70:
 4516               	.LM765:
 4517               	/* prologue: function */
 4518               	/* frame size = 0 */
 4519               	.LM766:
 4520 154a 8091 0000 		lds r24,dns_ansError
 4521               	/* epilogue start */
 4522 154e 0895      		ret
 4523               	.LFE70:
 4525               	.global	dnslkup_getip
 4527               	dnslkup_getip:
 4528               	.LFB71:
 4529               	.LM767:
 4530               	/* prologue: function */
 4531               	/* frame size = 0 */
 4532               	.LM768:
 4533 1550 80E0      		ldi r24,lo8(dns_answerip)
 4534 1552 90E0      		ldi r25,hi8(dns_answerip)
 4535               	/* epilogue start */
 4536 1554 0895      		ret
 4537               	.LFE71:
 4539               	.global	dnslkup_request
 4541               	dnslkup_request:
 4542               	.LFB72:
 4543               	.LM769:
 4544               	.LVL350:
 4545 1556 EF92      		push r14
 4546 1558 FF92      		push r15
 4547 155a 1F93      		push r17
 4548 155c CF93      		push r28
 4549 155e DF93      		push r29
 4550               	/* prologue: function */
 4551               	/* frame size = 0 */
 4552 1560 EC01      		movw r28,r24
 4553 1562 7B01      		movw r14,r22
 4554               	.LM770:
 4555 1564 1092 0000 		sts haveDNSanswer,__zero_reg__
 4556               	.LM771:
 4557 1568 1092 0000 		sts dns_ansError,__zero_reg__
 4558               	.LM772:
 4559 156c 1091 0000 		lds r17,dnstid_l
 4560 1570 1F5F      		subi r17,lo8(-(1))
 4561 1572 1093 0000 		sts dnstid_l,r17
 4562               	.LM773:
 4563 1576 612F      		mov r22,r17
 4564               	.LVL351:
 4565 1578 70E0      		ldi r23,lo8(0)
 4566 157a 706E      		ori r23,hi8(-8192)
 4567 157c 40E0      		ldi r20,lo8(dnsip)
 4568 157e 50E0      		ldi r21,hi8(dnsip)
 4569 1580 25E3      		ldi r18,lo8(53)
 4570 1582 30E0      		ldi r19,hi8(53)
 4571 1584 0E94 0000 		call send_udp_prepare
 4572               	.LVL352:
 4573               	.LM774:
 4574 1588 1BA7      		std Y+43,r17
 4575               	.LM775:
 4576 158a 81E0      		ldi r24,lo8(1)
 4577 158c 8CA7      		std Y+44,r24
 4578 158e FE01      		movw r30,r28
 4579 1590 BD96      		adiw r30,45
 4580 1592 83E0      		ldi r24,lo8(3)
 4581               	.LVL353:
 4582               	.L391:
 4583               	.LM776:
 4584 1594 1192      		st Z+,__zero_reg__
 4585               	.LM777:
 4586 1596 8F5F      		subi r24,lo8(-(1))
 4587               	.LM778:
 4588 1598 8A30      		cpi r24,lo8(10)
 4589 159a 01F4      		brne .L391
 4590               	.LM779:
 4591 159c 81E0      		ldi r24,lo8(1)
 4592               	.LVL354:
 4593 159e 8FA7      		std Y+47,r24
 4594 15a0 3CE0      		ldi r19,lo8(12)
 4595               	.LVL355:
 4596 15a2 90E0      		ldi r25,lo8(0)
 4597               	.LVL356:
 4598 15a4 8DE0      		ldi r24,lo8(13)
 4599               	.LVL357:
 4600 15a6 00C0      		rjmp .L392
 4601               	.LVL358:
 4602               	.L394:
 4603               	.LM780:
 4604 15a8 2E32      		cpi r18,lo8(46)
 4605 15aa 01F4      		brne .L393
 4606               	.LM781:
 4607 15ac FE01      		movw r30,r28
 4608               	.LVL359:
 4609 15ae E30F      		add r30,r19
 4610 15b0 F11D      		adc r31,__zero_reg__
 4611 15b2 92A7      		std Z+42,r25
 4612 15b4 382F      		mov r19,r24
 4613 15b6 90E0      		ldi r25,lo8(0)
 4614               	.LVL360:
 4615               	.L393:
 4616               	.LM782:
 4617 15b8 FE01      		movw r30,r28
 4618               	.LVL361:
 4619 15ba E80F      		add r30,r24
 4620 15bc F11D      		adc r31,__zero_reg__
 4621 15be 22A7      		std Z+42,r18
 4622               	.LM783:
 4623 15c0 9F5F      		subi r25,lo8(-(1))
 4624               	.LM784:
 4625 15c2 8F5F      		subi r24,lo8(-(1))
 4626               	.L392:
 4627 15c4 F701      		movw r30,r14
 4628               	.LVL362:
 4629               	.LBB318:
 4630               	.LM785:
 4631 15c6 0894      		sec
 4632 15c8 E11C      		adc r14,__zero_reg__
 4633 15ca F11C      		adc r15,__zero_reg__
 4634               	/* #APP */
 4635               	 ;  78 "dnslkup.c" 1
 4636 15cc 2491      		lpm r18, Z
 4637               		
 4638               	 ;  0 "" 2
 4639               	/* #NOAPP */
 4640               	.LBE318:
 4641 15ce 2223      		tst r18
 4642 15d0 01F4      		brne .L394
 4643               	.LM786:
 4644 15d2 FE01      		movw r30,r28
 4645               	.LVL363:
 4646 15d4 E30F      		add r30,r19
 4647 15d6 F11D      		adc r31,__zero_reg__
 4648 15d8 9150      		subi r25,lo8(-(-1))
 4649 15da 92A7      		std Z+42,r25
 4650               	.LM787:
 4651 15dc FE01      		movw r30,r28
 4652 15de E80F      		add r30,r24
 4653 15e0 F11D      		adc r31,__zero_reg__
 4654 15e2 12A6      		std Z+42,__zero_reg__
 4655               	.LM788:
 4656 15e4 8F5F      		subi r24,lo8(-(1))
 4657               	.LVL364:
 4658               	.LM789:
 4659 15e6 FE01      		movw r30,r28
 4660 15e8 E80F      		add r30,r24
 4661 15ea F11D      		adc r31,__zero_reg__
 4662 15ec 12A6      		std Z+42,__zero_reg__
 4663               	.LM790:
 4664 15ee 8F5F      		subi r24,lo8(-(1))
 4665               	.LVL365:
 4666               	.LM791:
 4667 15f0 FE01      		movw r30,r28
 4668 15f2 E80F      		add r30,r24
 4669 15f4 F11D      		adc r31,__zero_reg__
 4670 15f6 91E0      		ldi r25,lo8(1)
 4671               	.LVL366:
 4672 15f8 92A7      		std Z+42,r25
 4673               	.LM792:
 4674 15fa 682F      		mov r22,r24
 4675 15fc 6F5F      		subi r22,lo8(-(1))
 4676               	.LVL367:
 4677               	.LM793:
 4678 15fe FE01      		movw r30,r28
 4679 1600 E60F      		add r30,r22
 4680 1602 F11D      		adc r31,__zero_reg__
 4681 1604 12A6      		std Z+42,__zero_reg__
 4682               	.LM794:
 4683 1606 6F5F      		subi r22,lo8(-(1))
 4684               	.LVL368:
 4685               	.LM795:
 4686 1608 FE01      		movw r30,r28
 4687 160a E60F      		add r30,r22
 4688 160c F11D      		adc r31,__zero_reg__
 4689 160e 92A7      		std Z+42,r25
 4690               	.LM796:
 4691 1610 6F5F      		subi r22,lo8(-(1))
 4692               	.LM797:
 4693 1612 8950      		subi r24,lo8(-(-9))
 4694               	.LVL369:
 4695 1614 8AA7      		std Y+42,r24
 4696               	.LM798:
 4697 1616 CE01      		movw r24,r28
 4698               	.LVL370:
 4699 1618 0E94 0000 		call send_udp_transmit
 4700               	.LVL371:
 4701               	/* epilogue start */
 4702               	.LM799:
 4703 161c DF91      		pop r29
 4704 161e CF91      		pop r28
 4705               	.LVL372:
 4706 1620 1F91      		pop r17
 4707 1622 FF90      		pop r15
 4708 1624 EF90      		pop r14
 4709               	.LVL373:
 4710 1626 0895      		ret
 4711               	.LFE72:
 4713               	.global	udp_client_check_for_dns_answer
 4715               	udp_client_check_for_dns_answer:
 4716               	.LFB73:
 4717               	.LM800:
 4718               	.LVL374:
 4719 1628 CF93      		push r28
 4720 162a DF93      		push r29
 4721               	/* prologue: function */
 4722               	/* frame size = 0 */
 4723 162c EC01      		movw r28,r24
 4724               	.LM801:
 4725 162e 6634      		cpi r22,70
 4726 1630 7105      		cpc r23,__zero_reg__
 4727 1632 00F4      		brsh .+2
 4728 1634 00C0      		rjmp .L398
 4729               	.LVL375:
 4730               	.LM802:
 4731 1636 8BA1      		ldd r24,Y+35
 4732 1638 8533      		cpi r24,lo8(53)
 4733 163a 01F0      		breq .+2
 4734 163c 00C0      		rjmp .L398
 4735               	.LM803:
 4736 163e 8CA1      		ldd r24,Y+36
 4737 1640 803E      		cpi r24,lo8(-32)
 4738 1642 01F0      		breq .+2
 4739 1644 00C0      		rjmp .L398
 4740               	.LM804:
 4741 1646 9DA1      		ldd r25,Y+37
 4742 1648 8091 0000 		lds r24,dnstid_l
 4743 164c 9817      		cp r25,r24
 4744 164e 01F0      		breq .+2
 4745 1650 00C0      		rjmp .L398
 4746               	.LM805:
 4747 1652 8BA5      		ldd r24,Y+43
 4748 1654 8917      		cp r24,r25
 4749 1656 01F4      		brne .L398
 4750               	.LM806:
 4751 1658 8DA5      		ldd r24,Y+45
 4752 165a 8F78      		andi r24,lo8(-113)
 4753 165c 8038      		cpi r24,lo8(-128)
 4754 165e 01F0      		breq .L399
 4755               	.LM807:
 4756 1660 81E0      		ldi r24,lo8(1)
 4757 1662 00C0      		rjmp .L410
 4758               	.L399:
 4759               	.LM808:
 4760 1664 9AA5      		ldd r25,Y+42
 4761 1666 292F      		mov r18,r25
 4762               	.LVL376:
 4763 1668 245F      		subi r18,lo8(-(12))
 4764               	.LM809:
 4765 166a FE01      		movw r30,r28
 4766 166c E20F      		add r30,r18
 4767 166e F11D      		adc r31,__zero_reg__
 4768 1670 82A5      		ldd r24,Z+42
 4769 1672 807C      		andi r24,lo8(-64)
 4770 1674 01F0      		breq .L401
 4771               	.LM810:
 4772 1676 2E5F      		subi r18,lo8(-(2))
 4773 1678 00C0      		rjmp .L402
 4774               	.LVL377:
 4775               	.L403:
 4776               	.LM811:
 4777 167a 2F5F      		subi r18,lo8(-(1))
 4778               	.LVL378:
 4779               	.LM812:
 4780 167c FE01      		movw r30,r28
 4781 167e E20F      		add r30,r18
 4782 1680 F11D      		adc r31,__zero_reg__
 4783 1682 82A5      		ldd r24,Z+42
 4784 1684 8823      		tst r24
 4785 1686 01F4      		brne .L407
 4786               	.LM813:
 4787 1688 2F5F      		subi r18,lo8(-(1))
 4788 168a 00C0      		rjmp .L402
 4789               	.LVL379:
 4790               	.L401:
 4791               	.LM814:
 4792 168c 6153      		subi r22,lo8(-(-49))
 4793 168e 7040      		sbci r23,hi8(-(-49))
 4794               	.LVL380:
 4795               	.L407:
 4796 1690 822F      		mov r24,r18
 4797 1692 90E0      		ldi r25,lo8(0)
 4798 1694 8617      		cp r24,r22
 4799 1696 9707      		cpc r25,r23
 4800 1698 00F0      		brlo .L403
 4801               	.LVL381:
 4802               	.L402:
 4803               	.LM815:
 4804 169a FE01      		movw r30,r28
 4805 169c E20F      		add r30,r18
 4806 169e F11D      		adc r31,__zero_reg__
 4807 16a0 83A9      		ldd r24,Z+51
 4808 16a2 8430      		cpi r24,lo8(4)
 4809 16a4 01F0      		breq .L404
 4810               	.LM816:
 4811 16a6 82E0      		ldi r24,lo8(2)
 4812               	.L410:
 4813 16a8 8093 0000 		sts dns_ansError,r24
 4814 16ac 00C0      		rjmp .L398
 4815               	.L404:
 4816               	.LM817:
 4817 16ae 265F      		subi r18,lo8(-(10))
 4818 16b0 A22F      		mov r26,r18
 4819 16b2 B0E0      		ldi r27,lo8(0)
 4820 16b4 9A96      		adiw r26,42
 4821 16b6 AC0F      		add r26,r28
 4822 16b8 BD1F      		adc r27,r29
 4823 16ba E0E0      		ldi r30,lo8(dns_answerip)
 4824 16bc F0E0      		ldi r31,hi8(dns_answerip)
 4825               	.L405:
 4826               	.LM818:
 4827 16be 8D91      		ld r24,X+
 4828 16c0 8193      		st Z+,r24
 4829               	.LM819:
 4830 16c2 80E0      		ldi r24,hi8(dns_answerip+4)
 4831 16c4 E030      		cpi r30,lo8(dns_answerip+4)
 4832 16c6 F807      		cpc r31,r24
 4833 16c8 01F4      		brne .L405
 4834               	.LM820:
 4835 16ca 81E0      		ldi r24,lo8(1)
 4836 16cc 8093 0000 		sts haveDNSanswer,r24
 4837 16d0 00C0      		rjmp .L400
 4838               	.LVL382:
 4839               	.L398:
 4840               	.LM821:
 4841 16d2 80E0      		ldi r24,lo8(0)
 4842               	.L400:
 4843               	/* epilogue start */
 4844               	.LM822:
 4845 16d4 DF91      		pop r29
 4846 16d6 CF91      		pop r28
 4847               	.LVL383:
 4848 16d8 0895      		ret
 4849               	.LFE73:
 4851               	.global	http200ok
 4853               	http200ok:
 4854               	.LFB74:
 4855               	.LM823:
 4856               	/* prologue: function */
 4857               	/* frame size = 0 */
 4858               	.LM824:
 4859 16da 20E0      		ldi r18,lo8(0)
 4860 16dc 30E0      		ldi r19,hi8(0)
 4861               	.LVL384:
 4862 16de 00C0      		rjmp .L412
 4863               	.LVL385:
 4864               	.L413:
 4865               	.LBB319:
 4866               	.LBB320:
 4867               	.LM825:
 4868 16e0 F901      		movw r30,r18
 4869 16e2 E050      		subi r30,lo8(-(buf))
 4870 16e4 F040      		sbci r31,hi8(-(buf))
 4871 16e6 86AB      		std Z+54,r24
 4872               	.LM826:
 4873 16e8 2F5F      		subi r18,lo8(-(1))
 4874 16ea 3F4F      		sbci r19,hi8(-(1))
 4875               	.L412:
 4876               	.LBB321:
 4877               	.LM827:
 4878 16ec F901      		movw r30,r18
 4879 16ee E050      		subi r30,lo8(-(__c.3263))
 4880 16f0 F040      		sbci r31,hi8(-(__c.3263))
 4881               	/* #APP */
 4882               	 ;  463 "ip_arp_udp_tcp.c" 1
 4883 16f2 8491      		lpm r24, Z
 4884               		
 4885               	 ;  0 "" 2
 4886               	/* #NOAPP */
 4887               	.LBE321:
 4888 16f4 8823      		tst r24
 4889 16f6 01F4      		brne .L413
 4890               	.LBE320:
 4891               	.LBE319:
 4892               	.LM828:
 4893 16f8 C901      		movw r24,r18
 4894               	.LVL386:
 4895               	/* epilogue start */
 4896 16fa 0895      		ret
 4897               	.LFE74:
 4899               	.global	trigger
 4901               	trigger:
 4902               	.LFB76:
 4903               	.LM829:
 4904               	/* prologue: function */
 4905               	/* frame size = 0 */
 4906               	.LM830:
 4907 16fc 8091 0000 		lds r24,start_web_client
 4908 1700 8823      		tst r24
 4909 1702 01F4      		brne .L417
 4910               	.LM831:
 4911 1704 81E0      		ldi r24,lo8(1)
 4912 1706 8093 0000 		sts start_web_client,r24
 4913               	.L417:
 4914 170a 0895      		ret
 4915               	.LFE76:
 4917               	.global	init_cnt2
 4919               	init_cnt2:
 4920               	.LFB77:
 4921               	.LM832:
 4922               	/* prologue: function */
 4923               	/* frame size = 0 */
 4924               	.LM833:
 4925 170c 1092 0000 		sts cnt2step,__zero_reg__
 4926               	.LM834:
 4927 1710 85E0      		ldi r24,lo8(5)
 4928 1712 83BF      		out 83-32,r24
 4929               	.LM835:
 4930 1714 12BE      		out 82-32,__zero_reg__
 4931               	.LM836:
 4932 1716 81E0      		ldi r24,lo8(1)
 4933 1718 89BF      		out 89-32,r24
 4934               	/* epilogue start */
 4935               	.LM837:
 4936 171a 0895      		ret
 4937               	.LFE77:
 4939               	.global	__vector_9
 4941               	__vector_9:
 4942               	.LFB78:
 4943               	.LM838:
 4944 171c 1F92      		push __zero_reg__
 4945 171e 0F92      		push r0
 4946 1720 0FB6      		in r0,__SREG__
 4947 1722 0F92      		push r0
 4948 1724 1124      		clr __zero_reg__
 4949 1726 8F93      		push r24
 4950               	/* prologue: Signal */
 4951               	/* frame size = 0 */
 4952               	.LM839:
 4953 1728 8091 0000 		lds r24,cnt2step
 4954 172c 8F5F      		subi r24,lo8(-(1))
 4955 172e 8093 0000 		sts cnt2step,r24
 4956               	.LM840:
 4957 1732 8091 0000 		lds r24,cnt2step
 4958 1736 8D33      		cpi r24,lo8(61)
 4959 1738 00F0      		brlo .L421
 4960               	.LM841:
 4961 173a 1092 0000 		sts cnt2step,__zero_reg__
 4962               	.LM842:
 4963 173e 8091 0000 		lds r24,sec
 4964 1742 8F5F      		subi r24,lo8(-(1))
 4965 1744 8093 0000 		sts sec,r24
 4966               	.LM843:
 4967 1748 8091 0000 		lds r24,tick
 4968 174c 8F5F      		subi r24,lo8(-(1))
 4969 174e 8093 0000 		sts tick,r24
 4970               	.L421:
 4971               	.LM844:
 4972 1752 8091 0000 		lds r24,tick
 4973 1756 8D33      		cpi r24,lo8(61)
 4974 1758 00F0      		brlo .L423
 4975               	.LM845:
 4976 175a 1092 0000 		sts tick,__zero_reg__
 4977               	.LBB322:
 4978               	.LBB323:
 4979               	.LM846:
 4980 175e 8091 0000 		lds r24,start_web_client
 4981 1762 8823      		tst r24
 4982 1764 01F4      		brne .L423
 4983               	.LM847:
 4984 1766 81E0      		ldi r24,lo8(1)
 4985 1768 8093 0000 		sts start_web_client,r24
 4986               	.L423:
 4987               	/* epilogue start */
 4988               	.LBE323:
 4989               	.LBE322:
 4990               	.LM848:
 4991 176c 8F91      		pop r24
 4992 176e 0F90      		pop r0
 4993 1770 0FBE      		out __SREG__,r0
 4994 1772 0F90      		pop r0
 4995 1774 1F90      		pop __zero_reg__
 4996 1776 1895      		reti
 4997               	.LFE78:
 4999               	.global	ping_callback
 5001               	ping_callback:
 5002               	.LFB79:
 5003               	.LM849:
 5004               	.LVL387:
 5005               	/* prologue: function */
 5006               	/* frame size = 0 */
 5007 1778 AC01      		movw r20,r24
 5008               	.LM850:
 5009 177a 8091 0000 		lds r24,start_web_client
 5010               	.LVL388:
 5011 177e 8823      		tst r24
 5012 1780 01F4      		brne .L427
 5013 1782 20E0      		ldi r18,lo8(0)
 5014 1784 30E0      		ldi r19,hi8(0)
 5015               	.L426:
 5016               	.LM851:
 5017 1786 F901      		movw r30,r18
 5018 1788 E050      		subi r30,lo8(-(pingsrcip))
 5019 178a F040      		sbci r31,hi8(-(pingsrcip))
 5020 178c DA01      		movw r26,r20
 5021 178e A20F      		add r26,r18
 5022 1790 B31F      		adc r27,r19
 5023 1792 8C91      		ld r24,X
 5024 1794 8083      		st Z,r24
 5025 1796 2F5F      		subi r18,lo8(-(1))
 5026 1798 3F4F      		sbci r19,hi8(-(1))
 5027               	.LM852:
 5028 179a 2430      		cpi r18,4
 5029 179c 3105      		cpc r19,__zero_reg__
 5030 179e 01F4      		brne .L426
 5031               	.L427:
 5032 17a0 0895      		ret
 5033               	.LFE79:
 5035               	.global	browserresult_callback
 5037               	browserresult_callback:
 5038               	.LFB80:
 5039               	.LM853:
 5040               	.LVL389:
 5041               	/* prologue: function */
 5042               	/* frame size = 0 */
 5043               	.LM854:
 5044 17a2 8823      		tst r24
 5045 17a4 01F4      		brne .L431
 5046               	.LM855:
 5047 17a6 8091 0000 		lds r24,web_client_sendok
 5048               	.LVL390:
 5049 17aa 8F5F      		subi r24,lo8(-(1))
 5050 17ac 8093 0000 		sts web_client_sendok,r24
 5051               	.LM856:
 5052 17b0 DE9A      		sbi 59-32,6
 5053               	.LVL391:
 5054               	.L431:
 5055 17b2 0895      		ret
 5056               	.LFE80:
 5058               		.data
 5059               	.LC0:
 5060 0000 3230 3000 		.string	"200"
 5061               		.text
 5062               	.global	www_client_internal_result_callback
 5064               	www_client_internal_result_callback:
 5065               	.LFB57:
 5066               	.LM857:
 5067               	.LVL392:
 5068 17b4 EF92      		push r14
 5069 17b6 FF92      		push r15
 5070 17b8 0F93      		push r16
 5071 17ba 1F93      		push r17
 5072 17bc CF93      		push r28
 5073 17be DF93      		push r29
 5074               	/* prologue: function */
 5075               	/* frame size = 0 */
 5076 17c0 7901      		movw r14,r18
 5077               	.LM858:
 5078 17c2 9091 0000 		lds r25,www_fd
 5079 17c6 8917      		cp r24,r25
 5080 17c8 01F0      		breq .L433
 5081               	.LVL393:
 5082               	.LM859:
 5083 17ca E091 0000 		lds r30,client_browser_callback
 5084 17ce F091 0000 		lds r31,(client_browser_callback)+1
 5085 17d2 84E0      		ldi r24,lo8(4)
 5086               	.LVL394:
 5087 17d4 60E0      		ldi r22,lo8(0)
 5088 17d6 70E0      		ldi r23,hi8(0)
 5089               	.LVL395:
 5090 17d8 40E0      		ldi r20,lo8(0)
 5091 17da 50E0      		ldi r21,hi8(0)
 5092               	.LVL396:
 5093 17dc 0995      		icall
 5094 17de 00C0      		rjmp .L434
 5095               	.LVL397:
 5096               	.L433:
 5097               	.LM860:
 5098 17e0 6623      		tst r22
 5099 17e2 01F4      		brne .L434
 5100 17e4 2D30      		cpi r18,13
 5101 17e6 3105      		cpc r19,__zero_reg__
 5102               	.LVL398:
 5103 17e8 00F0      		brlo .L434
 5104               	.LVL399:
 5105               	.LM861:
 5106 17ea C091 0000 		lds r28,client_browser_callback
 5107 17ee D091 0000 		lds r29,(client_browser_callback)+1
 5108 17f2 2097      		sbiw r28,0
 5109 17f4 01F0      		breq .L434
 5110               	.LM862:
 5111 17f6 0091 0000 		lds r16,bufptr
 5112 17fa 1091 0000 		lds r17,(bufptr)+1
 5113 17fe 475F      		subi r20,lo8(-(9))
 5114 1800 5F4F      		sbci r21,hi8(-(9))
 5115               	.LVL400:
 5116 1802 400F      		add r20,r16
 5117 1804 511F      		adc r21,r17
 5118 1806 80E0      		ldi r24,lo8(.LC0)
 5119 1808 90E0      		ldi r25,hi8(.LC0)
 5120 180a BA01      		movw r22,r20
 5121               	.LVL401:
 5122 180c 43E0      		ldi r20,lo8(3)
 5123 180e 50E0      		ldi r21,hi8(3)
 5124               	.LVL402:
 5125 1810 0E94 0000 		call strncmp
 5126               	.LVL403:
 5127 1814 F801      		movw r30,r16
 5128 1816 66A5      		ldd r22,Z+46
 5129 1818 0097      		sbiw r24,0
 5130 181a 01F4      		brne .L435
 5131               	.LM863:
 5132 181c 6295      		swap r22
 5133 181e 6F70      		andi r22,lo8(15)
 5134 1820 70E0      		ldi r23,lo8(0)
 5135 1822 660F      		lsl r22
 5136 1824 771F      		rol r23
 5137 1826 660F      		lsl r22
 5138 1828 771F      		rol r23
 5139 182a 6E5D      		subi r22,lo8(-(34))
 5140 182c 7F4F      		sbci r23,hi8(-(34))
 5141 182e 80E0      		ldi r24,lo8(0)
 5142 1830 00C0      		rjmp .L437
 5143               	.L435:
 5144               	.LM864:
 5145 1832 6295      		swap r22
 5146 1834 6F70      		andi r22,lo8(15)
 5147 1836 70E0      		ldi r23,lo8(0)
 5148 1838 660F      		lsl r22
 5149 183a 771F      		rol r23
 5150 183c 660F      		lsl r22
 5151 183e 771F      		rol r23
 5152 1840 6E5D      		subi r22,lo8(-(34))
 5153 1842 7F4F      		sbci r23,hi8(-(34))
 5154 1844 81E0      		ldi r24,lo8(1)
 5155               	.L437:
 5156 1846 A701      		movw r20,r14
 5157 1848 FE01      		movw r30,r28
 5158 184a 0995      		icall
 5159               	.LVL404:
 5160               	.L434:
 5161               	.LM865:
 5162 184c 80E0      		ldi r24,lo8(0)
 5163               	.LVL405:
 5164               	/* epilogue start */
 5165 184e DF91      		pop r29
 5166 1850 CF91      		pop r28
 5167 1852 1F91      		pop r17
 5168 1854 0F91      		pop r16
 5169 1856 FF90      		pop r15
 5170 1858 EF90      		pop r14
 5171               	.LVL406:
 5172 185a 0895      		ret
 5173               	.LFE57:
 5175               	.global	mk_net_str
 5177               	mk_net_str:
 5178               	.LFB68:
 5179               	.LM866:
 5180               	.LVL407:
 5181 185c BF92      		push r11
 5182 185e CF92      		push r12
 5183 1860 DF92      		push r13
 5184 1862 EF92      		push r14
 5185 1864 FF92      		push r15
 5186 1866 0F93      		push r16
 5187               	.LVL408:
 5188 1868 1F93      		push r17
 5189 186a CF93      		push r28
 5190 186c DF93      		push r29
 5191               	/* prologue: function */
 5192               	/* frame size = 0 */
 5193 186e 7C01      		movw r14,r24
 5194 1870 B42E      		mov r11,r20
 5195 1872 C22E      		mov r12,r18
 5196 1874 D02E      		mov r13,r16
 5197               	.LVL409:
 5198               	.LM867:
 5199 1876 EB01      		movw r28,r22
 5200               	.LVL410:
 5201 1878 00E0      		ldi r16,lo8(0)
 5202               	.LVL411:
 5203 187a 10E0      		ldi r17,lo8(0)
 5204               	.LVL412:
 5205 187c 00C0      		rjmp .L439
 5206               	.LVL413:
 5207               	.L442:
 5208               	.LM868:
 5209 187e B701      		movw r22,r14
 5210 1880 610F      		add r22,r17
 5211 1882 711D      		adc r23,__zero_reg__
 5212 1884 8881      		ld r24,Y
 5213 1886 90E0      		ldi r25,lo8(0)
 5214 1888 4D2D      		mov r20,r13
 5215 188a 50E0      		ldi r21,lo8(0)
 5216 188c 0E94 0000 		call itoa
 5217 1890 00C0      		rjmp .L440
 5218               	.LVL414:
 5219               	.L441:
 5220               	.LM869:
 5221 1892 192F      		mov r17,r25
 5222               	.LVL415:
 5223               	.L440:
 5224 1894 F701      		movw r30,r14
 5225 1896 E10F      		add r30,r17
 5226 1898 F11D      		adc r31,__zero_reg__
 5227 189a 8081      		ld r24,Z
 5228 189c 912F      		mov r25,r17
 5229 189e 9F5F      		subi r25,lo8(-(1))
 5230               	.LVL416:
 5231 18a0 8823      		tst r24
 5232 18a2 01F4      		brne .L441
 5233               	.LM870:
 5234 18a4 C082      		st Z,r12
 5235               	.LM871:
 5236 18a6 192F      		mov r17,r25
 5237               	.LM872:
 5238 18a8 0F5F      		subi r16,lo8(-(1))
 5239 18aa 2196      		adiw r28,1
 5240               	.LVL417:
 5241               	.L439:
 5242               	.LM873:
 5243 18ac 0B15      		cp r16,r11
 5244 18ae 00F0      		brlo .L442
 5245               	.LM874:
 5246 18b0 1150      		subi r17,lo8(-(-1))
 5247 18b2 E10E      		add r14,r17
 5248 18b4 F11C      		adc r15,__zero_reg__
 5249 18b6 F701      		movw r30,r14
 5250 18b8 1082      		st Z,__zero_reg__
 5251               	/* epilogue start */
 5252               	.LM875:
 5253 18ba DF91      		pop r29
 5254 18bc CF91      		pop r28
 5255 18be 1F91      		pop r17
 5256               	.LVL418:
 5257 18c0 0F91      		pop r16
 5258               	.LVL419:
 5259 18c2 FF90      		pop r15
 5260 18c4 EF90      		pop r14
 5261               	.LVL420:
 5262 18c6 DF90      		pop r13
 5263               	.LVL421:
 5264 18c8 CF90      		pop r12
 5265               	.LVL422:
 5266 18ca BF90      		pop r11
 5267               	.LVL423:
 5268 18cc 0895      		ret
 5269               	.LFE68:
 5271               	.global	parse_ip
 5273               	parse_ip:
 5274               	.LFB67:
 5275               	.LM876:
 5276               	.LVL424:
 5277 18ce EF92      		push r14
 5278 18d0 FF92      		push r15
 5279 18d2 1F93      		push r17
 5280 18d4 CF93      		push r28
 5281 18d6 DF93      		push r29
 5282               	/* prologue: function */
 5283               	/* frame size = 0 */
 5284 18d8 7C01      		movw r14,r24
 5285 18da EB01      		movw r28,r22
 5286               	.LM877:
 5287 18dc 80E0      		ldi r24,lo8(0)
 5288 18de 90E0      		ldi r25,hi8(0)
 5289               	.LVL425:
 5290               	.L445:
 5291               	.LM878:
 5292 18e0 F701      		movw r30,r14
 5293 18e2 E80F      		add r30,r24
 5294 18e4 F91F      		adc r31,r25
 5295 18e6 1082      		st Z,__zero_reg__
 5296 18e8 0196      		adiw r24,1
 5297               	.LM879:
 5298 18ea 8430      		cpi r24,4
 5299 18ec 9105      		cpc r25,__zero_reg__
 5300 18ee 01F4      		brne .L445
 5301 18f0 20E0      		ldi r18,lo8(0)
 5302 18f2 30E0      		ldi r19,hi8(0)
 5303               	.LVL426:
 5304 18f4 10E0      		ldi r17,lo8(0)
 5305               	.LVL427:
 5306 18f6 00C0      		rjmp .L446
 5307               	.L450:
 5308               	.LM880:
 5309 18f8 2115      		cp r18,__zero_reg__
 5310 18fa 3105      		cpc r19,__zero_reg__
 5311 18fc 01F4      		brne .L447
 5312 18fe 842F      		mov r24,r20
 5313 1900 90E0      		ldi r25,lo8(0)
 5314 1902 C097      		sbiw r24,48
 5315 1904 0A97      		sbiw r24,10
 5316 1906 00F4      		brsh .L447
 5317 1908 9E01      		movw r18,r28
 5318               	.L447:
 5319               	.LM881:
 5320 190a 4E32      		cpi r20,lo8(46)
 5321 190c 01F4      		brne .L448
 5322               	.LM882:
 5323 190e 1882      		st Y,__zero_reg__
 5324               	.LM883:
 5325 1910 C901      		movw r24,r18
 5326 1912 0E94 0000 		call atoi
 5327               	.LVL428:
 5328 1916 F701      		movw r30,r14
 5329 1918 E10F      		add r30,r17
 5330 191a F11D      		adc r31,__zero_reg__
 5331 191c 8083      		st Z,r24
 5332               	.LM884:
 5333 191e 1F5F      		subi r17,lo8(-(1))
 5334 1920 20E0      		ldi r18,lo8(0)
 5335 1922 30E0      		ldi r19,hi8(0)
 5336               	.LVL429:
 5337               	.L448:
 5338               	.LM885:
 5339 1924 2196      		adiw r28,1
 5340               	.LVL430:
 5341               	.L446:
 5342               	.LM886:
 5343 1926 4881      		ld r20,Y
 5344 1928 4423      		tst r20
 5345 192a 01F0      		breq .L449
 5346 192c 1430      		cpi r17,lo8(4)
 5347 192e 00F0      		brlo .L450
 5348               	.L449:
 5349               	.LM887:
 5350 1930 1882      		st Y,__zero_reg__
 5351               	.LM888:
 5352 1932 1330      		cpi r17,lo8(3)
 5353 1934 01F0      		breq .L451
 5354 1936 81E0      		ldi r24,lo8(1)
 5355 1938 00C0      		rjmp .L452
 5356               	.L451:
 5357               	.LM889:
 5358 193a C901      		movw r24,r18
 5359 193c 0E94 0000 		call atoi
 5360               	.LVL431:
 5361 1940 F701      		movw r30,r14
 5362 1942 8383      		std Z+3,r24
 5363 1944 80E0      		ldi r24,lo8(0)
 5364               	.LVL432:
 5365               	.L452:
 5366               	/* epilogue start */
 5367               	.LM890:
 5368 1946 DF91      		pop r29
 5369 1948 CF91      		pop r28
 5370               	.LVL433:
 5371 194a 1F91      		pop r17
 5372               	.LVL434:
 5373 194c FF90      		pop r15
 5374 194e EF90      		pop r14
 5375               	.LVL435:
 5376 1950 0895      		ret
 5377               	.LFE67:
 5379               	.global	urlencode
 5381               	urlencode:
 5382               	.LFB66:
 5383               	.LM891:
 5384               	.LVL436:
 5385 1952 EF92      		push r14
 5386 1954 FF92      		push r15
 5387 1956 0F93      		push r16
 5388 1958 1F93      		push r17
 5389 195a CF93      		push r28
 5390 195c DF93      		push r29
 5391               	/* prologue: function */
 5392               	/* frame size = 0 */
 5393 195e 8B01      		movw r16,r22
 5394               	.LM892:
 5395 1960 EC01      		movw r28,r24
 5396 1962 2196      		adiw r28,1
 5397               	.LM893:
 5398 1964 95E2      		ldi r25,lo8(37)
 5399 1966 E92E      		mov r14,r25
 5400 1968 00C0      		rjmp .L456
 5401               	.LVL437:
 5402               	.L461:
 5403               	.LM894:
 5404 196a 80E2      		ldi r24,lo8(32)
 5405               	.LVL438:
 5406 196c F816      		cp r15,r24
 5407 196e 01F4      		brne .L457
 5408 1970 8BE2      		ldi r24,lo8(43)
 5409 1972 F82E      		mov r15,r24
 5410 1974 00C0      		rjmp .L458
 5411               	.L457:
 5412 1976 8F2D      		mov r24,r15
 5413 1978 90E0      		ldi r25,lo8(0)
 5414 197a 0E94 0000 		call isalnum
 5415 197e 892B      		or r24,r25
 5416 1980 01F0      		breq .L459
 5417               	.LVL439:
 5418               	.L458:
 5419               	.LM895:
 5420 1982 F801      		movw r30,r16
 5421 1984 F192      		st Z+,r15
 5422 1986 8F01      		movw r16,r30
 5423 1988 00C0      		rjmp .L460
 5424               	.L459:
 5425               	.LM896:
 5426 198a F801      		movw r30,r16
 5427 198c E192      		st Z+,r14
 5428 198e 8F01      		movw r16,r30
 5429               	.LVL440:
 5430               	.LM897:
 5431 1990 8F2D      		mov r24,r15
 5432 1992 BF01      		movw r22,r30
 5433 1994 0E94 0000 		call int2h
 5434               	.LM898:
 5435 1998 0E5F      		subi r16,lo8(-(2))
 5436 199a 1F4F      		sbci r17,hi8(-(2))
 5437               	.LVL441:
 5438               	.L460:
 5439 199c 2196      		adiw r28,1
 5440               	.LVL442:
 5441               	.L456:
 5442               	.LM899:
 5443 199e FA90      		ld r15,-Y
 5444 19a0 2196      		adiw r28,1
 5445 19a2 FF20      		tst r15
 5446 19a4 01F4      		brne .L461
 5447               	.LM900:
 5448 19a6 F801      		movw r30,r16
 5449 19a8 1082      		st Z,__zero_reg__
 5450               	/* epilogue start */
 5451               	.LM901:
 5452 19aa DF91      		pop r29
 5453 19ac CF91      		pop r28
 5454 19ae 1F91      		pop r17
 5455 19b0 0F91      		pop r16
 5456               	.LVL443:
 5457 19b2 FF90      		pop r15
 5458               	.LVL444:
 5459 19b4 EF90      		pop r14
 5460 19b6 0895      		ret
 5461               	.LFE66:
 5463               	.global	fill_tcp_data
 5465               	fill_tcp_data:
 5466               	.LFB40:
 5467               	.LM902:
 5468               	.LVL445:
 5469 19b8 CF93      		push r28
 5470 19ba DF93      		push r29
 5471               	/* prologue: function */
 5472               	/* frame size = 0 */
 5473               	.LM903:
 5474 19bc DA01      		movw r26,r20
 5475 19be 0D90      		ld __tmp_reg__,X+
 5476 19c0 0020      		tst __tmp_reg__
 5477 19c2 01F4      		brne .-6
 5478 19c4 1197      		sbiw r26,1
 5479 19c6 A41B      		sub r26,r20
 5480               	.LVL446:
 5481 19c8 6A5C      		subi r22,lo8(-(54))
 5482 19ca 7F4F      		sbci r23,hi8(-(54))
 5483               	.LVL447:
 5484 19cc EC01      		movw r28,r24
 5485 19ce C60F      		add r28,r22
 5486 19d0 D71F      		adc r29,r23
 5487 19d2 6653      		subi r22,lo8(-(-54))
 5488 19d4 7040      		sbci r23,hi8(-(-54))
 5489 19d6 FA01      		movw r30,r20
 5490               	.LBB324:
 5491               	.LBB325:
 5492               	.LM904:
 5493 19d8 B0E0      		ldi r27,lo8(0)
 5494               	.LM905:
 5495 19da 9A01      		movw r18,r20
 5496 19dc 2A0F      		add r18,r26
 5497 19de 3B1F      		adc r19,r27
 5498               	.LVL448:
 5499 19e0 00C0      		rjmp .L464
 5500               	.LVL449:
 5501               	.L465:
 5502               	.LM906:
 5503 19e2 8191      		ld r24,Z+
 5504               	.LVL450:
 5505 19e4 8993      		st Y+,r24
 5506               	.LVL451:
 5507               	.L464:
 5508               	.LM907:
 5509 19e6 E217      		cp r30,r18
 5510 19e8 F307      		cpc r31,r19
 5511 19ea 01F4      		brne .L465
 5512 19ec 9B01      		movw r18,r22
 5513 19ee 2A0F      		add r18,r26
 5514 19f0 3B1F      		adc r19,r27
 5515               	.LBE325:
 5516               	.LBE324:
 5517               	.LM908:
 5518 19f2 C901      		movw r24,r18
 5519               	.LVL452:
 5520               	/* epilogue start */
 5521 19f4 DF91      		pop r29
 5522 19f6 CF91      		pop r28
 5523 19f8 0895      		ret
 5524               	.LFE40:
 5526               	.global	print_webpage
 5528               	print_webpage:
 5529               	.LFB75:
 5530               	.LM909:
 5531               	.LVL453:
 5532 19fa CF92      		push r12
 5533 19fc DF92      		push r13
 5534 19fe EF92      		push r14
 5535 1a00 FF92      		push r15
 5536 1a02 0F93      		push r16
 5537 1a04 1F93      		push r17
 5538 1a06 DF93      		push r29
 5539 1a08 CF93      		push r28
 5540 1a0a 00D0      		rcall .
 5541 1a0c 00D0      		rcall .
 5542 1a0e 0F92      		push __tmp_reg__
 5543 1a10 CDB7      		in r28,__SP_L__
 5544 1a12 DEB7      		in r29,__SP_H__
 5545               	/* prologue: function */
 5546               	/* frame size = 5 */
 5547 1a14 6C01      		movw r12,r24
 5548               	.LM910:
 5549 1a16 EE24      		clr r14
 5550 1a18 FF24      		clr r15
 5551               	.LVL454:
 5552 1a1a 00C0      		rjmp .L468
 5553               	.LVL455:
 5554               	.L469:
 5555               	.LBB326:
 5556               	.LBB327:
 5557               	.LBB328:
 5558               	.LBB329:
 5559               	.LM911:
 5560 1a1c F701      		movw r30,r14
 5561 1a1e E050      		subi r30,lo8(-(buf))
 5562 1a20 F040      		sbci r31,hi8(-(buf))
 5563 1a22 86AB      		std Z+54,r24
 5564               	.LM912:
 5565 1a24 0894      		sec
 5566 1a26 E11C      		adc r14,__zero_reg__
 5567 1a28 F11C      		adc r15,__zero_reg__
 5568               	.LVL456:
 5569               	.L468:
 5570               	.LBB330:
 5571               	.LM913:
 5572 1a2a F701      		movw r30,r14
 5573 1a2c E050      		subi r30,lo8(-(__c.3263))
 5574 1a2e F040      		sbci r31,hi8(-(__c.3263))
 5575               	/* #APP */
 5576               	 ;  463 "ip_arp_udp_tcp.c" 1
 5577 1a30 8491      		lpm r24, Z
 5578               		
 5579               	 ;  0 "" 2
 5580               	/* #NOAPP */
 5581               	.LBE330:
 5582 1a32 8823      		tst r24
 5583 1a34 01F4      		brne .L469
 5584 1a36 86E3      		ldi r24,lo8(54)
 5585 1a38 90E0      		ldi r25,hi8(54)
 5586               	.LVL457:
 5587 1a3a E80E      		add r14,r24
 5588 1a3c F91E      		adc r15,r25
 5589 1a3e D601      		movw r26,r12
 5590 1a40 AE0D      		add r26,r14
 5591 1a42 BF1D      		adc r27,r15
 5592 1a44 8AEC      		ldi r24,lo8(-54)
 5593 1a46 9FEF      		ldi r25,hi8(-54)
 5594 1a48 E80E      		add r14,r24
 5595 1a4a F91E      		adc r15,r25
 5596               	.LM914:
 5597 1a4c 80E0      		ldi r24,lo8(__c.3272)
 5598 1a4e 90E0      		ldi r25,hi8(__c.3272)
 5599               	.LVL458:
 5600 1a50 00C0      		rjmp .L470
 5601               	.LVL459:
 5602               	.L471:
 5603               	.LBE329:
 5604               	.LBE328:
 5605               	.LBE327:
 5606               	.LBE326:
 5607               	.LBB331:
 5608               	.LBB332:
 5609               	.LM915:
 5610 1a52 2D93      		st X+,r18
 5611               	.LM916:
 5612 1a54 0894      		sec
 5613 1a56 E11C      		adc r14,__zero_reg__
 5614 1a58 F11C      		adc r15,__zero_reg__
 5615               	.L470:
 5616 1a5a FC01      		movw r30,r24
 5617               	.LBB333:
 5618               	.LM917:
 5619 1a5c 0196      		adiw r24,1
 5620               	/* #APP */
 5621               	 ;  463 "ip_arp_udp_tcp.c" 1
 5622 1a5e 2491      		lpm r18, Z
 5623               		
 5624               	 ;  0 "" 2
 5625               	/* #NOAPP */
 5626               	.LBE333:
 5627 1a60 2223      		tst r18
 5628 1a62 01F4      		brne .L471
 5629               	.LBE332:
 5630               	.LBE331:
 5631               	.LBB334:
 5632               	.LBB335:
 5633               	.LM918:
 5634 1a64 8091 0000 		lds r24,waitgwmac
 5635               	.LVL460:
 5636 1a68 81FD      		sbrc r24,1
 5637 1a6a 00C0      		rjmp .L472
 5638 1a6c 86E3      		ldi r24,lo8(54)
 5639 1a6e 90E0      		ldi r25,hi8(54)
 5640 1a70 E80E      		add r14,r24
 5641 1a72 F91E      		adc r15,r25
 5642 1a74 D601      		movw r26,r12
 5643 1a76 AE0D      		add r26,r14
 5644 1a78 BF1D      		adc r27,r15
 5645 1a7a 8AEC      		ldi r24,lo8(-54)
 5646 1a7c 9FEF      		ldi r25,hi8(-54)
 5647 1a7e E80E      		add r14,r24
 5648 1a80 F91E      		adc r15,r25
 5649               	.LM919:
 5650 1a82 80E0      		ldi r24,lo8(__c.3274)
 5651 1a84 90E0      		ldi r25,hi8(__c.3274)
 5652               	.LVL461:
 5653 1a86 00C0      		rjmp .L473
 5654               	.LVL462:
 5655               	.L472:
 5656               	.LBE335:
 5657               	.LBE334:
 5658               	.LM920:
 5659 1a88 8091 0000 		lds r24,dns_state
 5660 1a8c 9701      		movw r18,r14
 5661               	.LVL463:
 5662 1a8e 2A5C      		subi r18,lo8(-(54))
 5663 1a90 3F4F      		sbci r19,hi8(-(54))
 5664 1a92 8130      		cpi r24,lo8(1)
 5665 1a94 01F0      		breq .L474
 5666 1a96 D601      		movw r26,r12
 5667 1a98 A20F      		add r26,r18
 5668 1a9a B31F      		adc r27,r19
 5669               	.LM921:
 5670 1a9c 80E0      		ldi r24,lo8(__c.3278)
 5671 1a9e 90E0      		ldi r25,hi8(__c.3278)
 5672               	.LVL464:
 5673 1aa0 00C0      		rjmp .L475
 5674               	.LVL465:
 5675               	.L474:
 5676 1aa2 D601      		movw r26,r12
 5677 1aa4 A20F      		add r26,r18
 5678 1aa6 B31F      		adc r27,r19
 5679               	.LM922:
 5680 1aa8 80E0      		ldi r24,lo8(__c.3276)
 5681 1aaa 90E0      		ldi r25,hi8(__c.3276)
 5682               	.LVL466:
 5683 1aac 00C0      		rjmp .L476
 5684               	.LVL467:
 5685               	.L477:
 5686               	.LBB336:
 5687               	.LBB337:
 5688               	.LM923:
 5689 1aae 2D93      		st X+,r18
 5690               	.LM924:
 5691 1ab0 0894      		sec
 5692 1ab2 E11C      		adc r14,__zero_reg__
 5693 1ab4 F11C      		adc r15,__zero_reg__
 5694               	.LVL468:
 5695               	.L473:
 5696 1ab6 FC01      		movw r30,r24
 5697               	.LVL469:
 5698               	.LBB338:
 5699               	.LM925:
 5700 1ab8 0196      		adiw r24,1
 5701               	/* #APP */
 5702               	 ;  463 "ip_arp_udp_tcp.c" 1
 5703 1aba 2491      		lpm r18, Z
 5704               		
 5705               	 ;  0 "" 2
 5706               	.LVL470:
 5707               	/* #NOAPP */
 5708               	.LBE338:
 5709 1abc 2223      		tst r18
 5710 1abe 01F4      		brne .L477
 5711 1ac0 00C0      		rjmp .L478
 5712               	.LVL471:
 5713               	.L479:
 5714               	.LBE337:
 5715               	.LBE336:
 5716               	.LBB339:
 5717               	.LBB340:
 5718               	.LM926:
 5719 1ac2 2D93      		st X+,r18
 5720               	.LM927:
 5721 1ac4 0894      		sec
 5722 1ac6 E11C      		adc r14,__zero_reg__
 5723 1ac8 F11C      		adc r15,__zero_reg__
 5724               	.LVL472:
 5725               	.L476:
 5726 1aca FC01      		movw r30,r24
 5727               	.LVL473:
 5728               	.LBB341:
 5729               	.LM928:
 5730 1acc 0196      		adiw r24,1
 5731               	/* #APP */
 5732               	 ;  463 "ip_arp_udp_tcp.c" 1
 5733 1ace 2491      		lpm r18, Z
 5734               		
 5735               	 ;  0 "" 2
 5736               	/* #NOAPP */
 5737               	.LBE341:
 5738 1ad0 2223      		tst r18
 5739 1ad2 01F4      		brne .L479
 5740 1ad4 00C0      		rjmp .L478
 5741               	.LVL474:
 5742               	.L480:
 5743               	.LBE340:
 5744               	.LBE339:
 5745               	.LBB342:
 5746               	.LBB343:
 5747               	.LM929:
 5748 1ad6 2D93      		st X+,r18
 5749               	.LM930:
 5750 1ad8 0894      		sec
 5751 1ada E11C      		adc r14,__zero_reg__
 5752 1adc F11C      		adc r15,__zero_reg__
 5753               	.LVL475:
 5754               	.L475:
 5755 1ade FC01      		movw r30,r24
 5756               	.LVL476:
 5757               	.LBB344:
 5758               	.LM931:
 5759 1ae0 0196      		adiw r24,1
 5760               	/* #APP */
 5761               	 ;  463 "ip_arp_udp_tcp.c" 1
 5762 1ae2 2491      		lpm r18, Z
 5763               		
 5764               	 ;  0 "" 2
 5765               	/* #NOAPP */
 5766               	.LBE344:
 5767 1ae4 2223      		tst r18
 5768 1ae6 01F4      		brne .L480
 5769               	.LBE343:
 5770               	.LBE342:
 5771               	.LM932:
 5772 1ae8 8091 0000 		lds r24,web_client_attempts
 5773               	.LVL477:
 5774 1aec 90E0      		ldi r25,lo8(0)
 5775 1aee 8E01      		movw r16,r28
 5776 1af0 0F5F      		subi r16,lo8(-(1))
 5777 1af2 1F4F      		sbci r17,hi8(-(1))
 5778 1af4 B801      		movw r22,r16
 5779 1af6 4AE0      		ldi r20,lo8(10)
 5780 1af8 50E0      		ldi r21,hi8(10)
 5781 1afa 0E94 0000 		call itoa
 5782               	.LVL478:
 5783               	.LM933:
 5784 1afe C601      		movw r24,r12
 5785 1b00 B701      		movw r22,r14
 5786 1b02 A801      		movw r20,r16
 5787 1b04 0E94 0000 		call fill_tcp_data
 5788 1b08 7C01      		movw r14,r24
 5789               	.LVL479:
 5790 1b0a 86E3      		ldi r24,lo8(54)
 5791 1b0c 90E0      		ldi r25,hi8(54)
 5792 1b0e E80E      		add r14,r24
 5793 1b10 F91E      		adc r15,r25
 5794 1b12 D601      		movw r26,r12
 5795 1b14 AE0D      		add r26,r14
 5796 1b16 BF1D      		adc r27,r15
 5797 1b18 8AEC      		ldi r24,lo8(-54)
 5798 1b1a 9FEF      		ldi r25,hi8(-54)
 5799 1b1c E80E      		add r14,r24
 5800 1b1e F91E      		adc r15,r25
 5801               	.LM934:
 5802 1b20 80E0      		ldi r24,lo8(__c.3280)
 5803 1b22 90E0      		ldi r25,hi8(__c.3280)
 5804               	.LVL480:
 5805 1b24 00C0      		rjmp .L481
 5806               	.LVL481:
 5807               	.L482:
 5808               	.LBB345:
 5809               	.LBB346:
 5810               	.LM935:
 5811 1b26 2D93      		st X+,r18
 5812               	.LM936:
 5813 1b28 0894      		sec
 5814 1b2a E11C      		adc r14,__zero_reg__
 5815 1b2c F11C      		adc r15,__zero_reg__
 5816               	.L481:
 5817 1b2e FC01      		movw r30,r24
 5818               	.LBB347:
 5819               	.LM937:
 5820 1b30 0196      		adiw r24,1
 5821               	/* #APP */
 5822               	 ;  463 "ip_arp_udp_tcp.c" 1
 5823 1b32 2491      		lpm r18, Z
 5824               		
 5825               	 ;  0 "" 2
 5826               	/* #NOAPP */
 5827               	.LBE347:
 5828 1b34 2223      		tst r18
 5829 1b36 01F4      		brne .L482
 5830               	.LBE346:
 5831               	.LBE345:
 5832               	.LM938:
 5833 1b38 8091 0000 		lds r24,web_client_sendok
 5834               	.LVL482:
 5835 1b3c 90E0      		ldi r25,lo8(0)
 5836 1b3e 8E01      		movw r16,r28
 5837 1b40 0F5F      		subi r16,lo8(-(1))
 5838 1b42 1F4F      		sbci r17,hi8(-(1))
 5839 1b44 B801      		movw r22,r16
 5840 1b46 4AE0      		ldi r20,lo8(10)
 5841 1b48 50E0      		ldi r21,hi8(10)
 5842 1b4a 0E94 0000 		call itoa
 5843               	.LVL483:
 5844               	.LM939:
 5845 1b4e C601      		movw r24,r12
 5846 1b50 B701      		movw r22,r14
 5847 1b52 A801      		movw r20,r16
 5848 1b54 0E94 0000 		call fill_tcp_data
 5849 1b58 7C01      		movw r14,r24
 5850               	.LVL484:
 5851 1b5a 86E3      		ldi r24,lo8(54)
 5852 1b5c 90E0      		ldi r25,hi8(54)
 5853 1b5e E80E      		add r14,r24
 5854 1b60 F91E      		adc r15,r25
 5855 1b62 D601      		movw r26,r12
 5856 1b64 AE0D      		add r26,r14
 5857 1b66 BF1D      		adc r27,r15
 5858 1b68 8AEC      		ldi r24,lo8(-54)
 5859 1b6a 9FEF      		ldi r25,hi8(-54)
 5860 1b6c E80E      		add r14,r24
 5861 1b6e F91E      		adc r15,r25
 5862               	.LM940:
 5863 1b70 80E0      		ldi r24,lo8(__c.3282)
 5864 1b72 90E0      		ldi r25,hi8(__c.3282)
 5865               	.LVL485:
 5866 1b74 00C0      		rjmp .L483
 5867               	.LVL486:
 5868               	.L484:
 5869               	.LBB348:
 5870               	.LBB349:
 5871               	.LM941:
 5872 1b76 2D93      		st X+,r18
 5873               	.LM942:
 5874 1b78 0894      		sec
 5875 1b7a E11C      		adc r14,__zero_reg__
 5876 1b7c F11C      		adc r15,__zero_reg__
 5877               	.L483:
 5878 1b7e FC01      		movw r30,r24
 5879               	.LBB350:
 5880               	.LM943:
 5881 1b80 0196      		adiw r24,1
 5882               	/* #APP */
 5883               	 ;  463 "ip_arp_udp_tcp.c" 1
 5884 1b82 2491      		lpm r18, Z
 5885               		
 5886               	 ;  0 "" 2
 5887               	/* #NOAPP */
 5888               	.LBE350:
 5889 1b84 2223      		tst r18
 5890 1b86 01F4      		brne .L484
 5891 1b88 86E3      		ldi r24,lo8(54)
 5892 1b8a 90E0      		ldi r25,hi8(54)
 5893               	.LVL487:
 5894 1b8c E80E      		add r14,r24
 5895 1b8e F91E      		adc r15,r25
 5896 1b90 D601      		movw r26,r12
 5897 1b92 AE0D      		add r26,r14
 5898 1b94 BF1D      		adc r27,r15
 5899 1b96 8AEC      		ldi r24,lo8(-54)
 5900 1b98 9FEF      		ldi r25,hi8(-54)
 5901 1b9a E80E      		add r14,r24
 5902 1b9c F91E      		adc r15,r25
 5903               	.LM944:
 5904 1b9e 80E0      		ldi r24,lo8(__c.3284)
 5905 1ba0 90E0      		ldi r25,hi8(__c.3284)
 5906               	.LVL488:
 5907 1ba2 00C0      		rjmp .L485
 5908               	.LVL489:
 5909               	.L486:
 5910               	.LBE349:
 5911               	.LBE348:
 5912               	.LBB351:
 5913               	.LBB352:
 5914               	.LM945:
 5915 1ba4 2D93      		st X+,r18
 5916               	.LM946:
 5917 1ba6 0894      		sec
 5918 1ba8 E11C      		adc r14,__zero_reg__
 5919 1baa F11C      		adc r15,__zero_reg__
 5920               	.LVL490:
 5921               	.L485:
 5922 1bac FC01      		movw r30,r24
 5923               	.LVL491:
 5924               	.LBB353:
 5925               	.LM947:
 5926 1bae 0196      		adiw r24,1
 5927               	/* #APP */
 5928               	 ;  463 "ip_arp_udp_tcp.c" 1
 5929 1bb0 2491      		lpm r18, Z
 5930               		
 5931               	 ;  0 "" 2
 5932               	.LVL492:
 5933               	/* #NOAPP */
 5934               	.LBE353:
 5935 1bb2 2223      		tst r18
 5936 1bb4 01F4      		brne .L486
 5937               	.LVL493:
 5938               	.L478:
 5939               	.LBE352:
 5940               	.LBE351:
 5941               	.LM948:
 5942 1bb6 C701      		movw r24,r14
 5943               	.LVL494:
 5944               	/* epilogue start */
 5945 1bb8 0F90      		pop __tmp_reg__
 5946 1bba 0F90      		pop __tmp_reg__
 5947 1bbc 0F90      		pop __tmp_reg__
 5948 1bbe 0F90      		pop __tmp_reg__
 5949 1bc0 0F90      		pop __tmp_reg__
 5950 1bc2 CF91      		pop r28
 5951 1bc4 DF91      		pop r29
 5952 1bc6 1F91      		pop r17
 5953 1bc8 0F91      		pop r16
 5954 1bca FF90      		pop r15
 5955 1bcc EF90      		pop r14
 5956 1bce DF90      		pop r13
 5957 1bd0 CF90      		pop r12
 5958               	.LVL495:
 5959 1bd2 0895      		ret
 5960               	.LFE75:
 5962               		.data
 5963               	.LC1:
 5964 0004 3F61 3D6F 		.string	"?a=on&b=on&t=1114"
 5964      6E26 623D 
 5964      6F6E 2674 
 5964      3D31 3131 
 5964      3400 
 5965               	.LC2:
 5966 0016 3F61 3D6F 		.string	"?a=on&b=off&t=1114"
 5966      6E26 623D 
 5966      6F66 6626 
 5966      743D 3131 
 5966      3134 00
 5967               	.LC3:
 5968 0029 3F61 3D6F 		.string	"?a=off&b=on&t=1114"
 5968      6666 2662 
 5968      3D6F 6E26 
 5968      743D 3131 
 5968      3134 00
 5969               	.LC4:
 5970 003c 3F61 3D6F 		.string	"?a=off&b=off&t=1114"
 5970      6666 2662 
 5970      3D6F 6666 
 5970      2674 3D31 
 5970      3131 3400 
 5971               	.LC5:
 5972 0050 4745 5420 		.string	"GET "
 5972      00
 5973               	.LC6:
 5974 0055 2F20 00   		.string	"/ "
 5975               		.text
 5976               	.global	main
 5978               	main:
 5979               	.LFB81:
 5980               	.LM949:
 5981 1bd4 2F92      		push r2
 5982 1bd6 3F92      		push r3
 5983 1bd8 4F92      		push r4
 5984 1bda 5F92      		push r5
 5985 1bdc 6F92      		push r6
 5986 1bde 7F92      		push r7
 5987 1be0 8F92      		push r8
 5988 1be2 9F92      		push r9
 5989 1be4 AF92      		push r10
 5990 1be6 BF92      		push r11
 5991 1be8 CF92      		push r12
 5992 1bea DF92      		push r13
 5993 1bec EF92      		push r14
 5994 1bee FF92      		push r15
 5995 1bf0 0F93      		push r16
 5996 1bf2 1F93      		push r17
 5997 1bf4 CF93      		push r28
 5998 1bf6 DF93      		push r29
 5999               	/* prologue: function */
 6000               	/* frame size = 0 */
 6001               	.LBB354:
 6002               	.LBB355:
 6003               	.LM950:
 6004 1bf8 10E0      		ldi r17,lo8(0)
 6005 1bfa 812F      		mov r24,r17
 6006               	.LVL496:
 6007               	/* #APP */
 6008               	 ;  83 "c:/winavr/lib/gcc/../../avr/include/util/delay_basic.h" 1
 6009 1bfc 8A95      		1: dec r24
 6010 1bfe 01F4      		brne 1b
 6011               	 ;  0 "" 2
 6012               	/* #NOAPP */
 6013               	.LBE355:
 6014               	.LBE354:
 6015               	.LM951:
 6016 1c00 80E0      		ldi r24,lo8(mymac)
 6017 1c02 90E0      		ldi r25,hi8(mymac)
 6018               	.LVL497:
 6019 1c04 0E94 0000 		call enc28j60Init
 6020               	.LM952:
 6021 1c08 82E0      		ldi r24,lo8(2)
 6022 1c0a 0E94 0000 		call enc28j60clkout
 6023               	.LBB356:
 6024               	.LBB357:
 6025               	.LM953:
 6026               	/* #APP */
 6027               	 ;  83 "c:/winavr/lib/gcc/../../avr/include/util/delay_basic.h" 1
 6028 1c0e 1A95      		1: dec r17
 6029 1c10 01F4      		brne 1b
 6030               	 ;  0 "" 2
 6031               	.LVL498:
 6032               	/* #NOAPP */
 6033               	.LBE357:
 6034               	.LBE356:
 6035               	.LBB358:
 6036               	.LBB359:
 6037               	.LM954:
 6038 1c12 1092 0000 		sts cnt2step,__zero_reg__
 6039               	.LM955:
 6040 1c16 85E0      		ldi r24,lo8(5)
 6041 1c18 83BF      		out 83-32,r24
 6042               	.LM956:
 6043 1c1a 12BE      		out 82-32,__zero_reg__
 6044               	.LM957:
 6045 1c1c 81E0      		ldi r24,lo8(1)
 6046 1c1e 89BF      		out 89-32,r24
 6047               	.LBE359:
 6048               	.LBE358:
 6049               	.LM958:
 6050               	/* #APP */
 6051               	 ;  188 "main.c" 1
 6052 1c20 7894      		sei
 6053               	 ;  0 "" 2
 6054               	.LM959:
 6055               	/* #NOAPP */
 6056 1c22 84E1      		ldi r24,lo8(20)
 6057 1c24 66E7      		ldi r22,lo8(1142)
 6058 1c26 74E0      		ldi r23,hi8(1142)
 6059 1c28 0E94 0000 		call enc28j60PhyWrite
 6060               	.LM960:
 6061 1c2c 11BA      		out 49-32,__zero_reg__
 6062               	.LM961:
 6063 1c2e 8FEF      		ldi r24,lo8(-1)
 6064 1c30 82BB      		out 50-32,r24
 6065               	.LM962:
 6066 1c32 D69A      		sbi 58-32,6
 6067               	.LM963:
 6068 1c34 DE9A      		sbi 59-32,6
 6069               	.LBB360:
 6070               	.LBB361:
 6071               	.LM964:
 6072 1c36 1092 0000 		sts wwwport_h,__zero_reg__
 6073               	.LM965:
 6074 1c3a 80E5      		ldi r24,lo8(80)
 6075 1c3c 8093 0000 		sts wwwport_l,r24
 6076 1c40 20E0      		ldi r18,lo8(0)
 6077 1c42 30E0      		ldi r19,hi8(0)
 6078               	.L489:
 6079               	.LM966:
 6080 1c44 F901      		movw r30,r18
 6081 1c46 E050      		subi r30,lo8(-(ipaddr))
 6082 1c48 F040      		sbci r31,hi8(-(ipaddr))
 6083 1c4a D901      		movw r26,r18
 6084 1c4c A050      		subi r26,lo8(-(myip))
 6085 1c4e B040      		sbci r27,hi8(-(myip))
 6086 1c50 8C91      		ld r24,X
 6087 1c52 8083      		st Z,r24
 6088 1c54 2F5F      		subi r18,lo8(-(1))
 6089 1c56 3F4F      		sbci r19,hi8(-(1))
 6090               	.LM967:
 6091 1c58 2430      		cpi r18,4
 6092 1c5a 3105      		cpc r19,__zero_reg__
 6093 1c5c 01F4      		brne .L489
 6094 1c5e 20E0      		ldi r18,lo8(0)
 6095 1c60 30E0      		ldi r19,hi8(0)
 6096               	.L490:
 6097               	.LM968:
 6098 1c62 F901      		movw r30,r18
 6099 1c64 E050      		subi r30,lo8(-(macaddr))
 6100 1c66 F040      		sbci r31,hi8(-(macaddr))
 6101 1c68 D901      		movw r26,r18
 6102 1c6a A050      		subi r26,lo8(-(mymac))
 6103 1c6c B040      		sbci r27,hi8(-(mymac))
 6104 1c6e 8C91      		ld r24,X
 6105 1c70 8083      		st Z,r24
 6106 1c72 2F5F      		subi r18,lo8(-(1))
 6107 1c74 3F4F      		sbci r19,hi8(-(1))
 6108               	.LM969:
 6109 1c76 2630      		cpi r18,6
 6110 1c78 3105      		cpc r19,__zero_reg__
 6111 1c7a 01F4      		brne .L490
 6112               	.LBE361:
 6113               	.LBE360:
 6114               	.LBB362:
 6115               	.LBB363:
 6116               	.LM970:
 6117 1c7c 81E0      		ldi r24,lo8(1)
 6118 1c7e 8093 0000 		sts waitgwmac,r24
 6119 1c82 80E0      		ldi r24,lo8(gwip)
 6120 1c84 90E0      		ldi r25,hi8(gwip)
 6121               	.L491:
 6122               	.LM971:
 6123 1c86 0196      		adiw r24,1
 6124               	.LM972:
 6125 1c88 20E0      		ldi r18,hi8(gwip+4)
 6126 1c8a 8030      		cpi r24,lo8(gwip+4)
 6127 1c8c 9207      		cpc r25,r18
 6128 1c8e 01F4      		brne .L491
 6129               	.LBE363:
 6130               	.LBE362:
 6131               	.LBB364:
 6132               	.LBB365:
 6133               	.LM973:
 6134 1c90 80E0      		ldi r24,lo8(gs(ping_callback))
 6135 1c92 90E0      		ldi r25,hi8(gs(ping_callback))
 6136 1c94 9093 0000 		sts (icmp_callback)+1,r25
 6137 1c98 8093 0000 		sts icmp_callback,r24
 6138               	.LBE365:
 6139               	.LBE364:
 6140               	.LBB366:
 6141               	.LBB367:
 6142               	.LM974:
 6143 1c9c E0E0      		ldi r30,lo8(__c.3357)
 6144 1c9e 4E2E      		mov r4,r30
 6145 1ca0 E0E0      		ldi r30,hi8(__c.3357)
 6146 1ca2 5E2E      		mov r5,r30
 6147               	.LM975:
 6148 1ca4 70E0      		ldi r23,lo8(urlvarstr)
 6149 1ca6 672E      		mov r6,r23
 6150 1ca8 70E0      		ldi r23,hi8(urlvarstr)
 6151 1caa 772E      		mov r7,r23
 6152               	.LM976:
 6153 1cac 60E0      		ldi r22,lo8(__c.3359)
 6154 1cae A62E      		mov r10,r22
 6155 1cb0 60E0      		ldi r22,hi8(__c.3359)
 6156 1cb2 B62E      		mov r11,r22
 6157               	.LM977:
 6158 1cb4 50E0      		ldi r21,lo8(gs(browserresult_callback))
 6159 1cb6 852E      		mov r8,r21
 6160 1cb8 50E0      		ldi r21,hi8(gs(browserresult_callback))
 6161 1cba 952E      		mov r9,r21
 6162               	.LBB368:
 6163               	.LBB369:
 6164               	.LM978:
 6165 1cbc 40E0      		ldi r20,lo8(gs(www_client_internal_result_callback))
 6166 1cbe E42E      		mov r14,r20
 6167 1cc0 40E0      		ldi r20,hi8(gs(www_client_internal_result_callback))
 6168 1cc2 F42E      		mov r15,r20
 6169               	.LM979:
 6170 1cc4 30E0      		ldi r19,lo8(gs(www_client_internal_datafill_callback))
 6171 1cc6 C32E      		mov r12,r19
 6172 1cc8 30E0      		ldi r19,hi8(gs(www_client_internal_datafill_callback))
 6173 1cca D32E      		mov r13,r19
 6174               	.LM980:
 6175 1ccc 20E5      		ldi r18,lo8(80)
 6176 1cce 222E      		mov r2,r18
 6177               	.LM981:
 6178 1cd0 3324      		clr r3
 6179 1cd2 3394      		inc r3
 6180               	.LVL499:
 6181               	.L523:
 6182               	.LBE369:
 6183               	.LBE368:
 6184               	.LBE367:
 6185               	.LBE366:
 6186               	.LM982:
 6187 1cd4 8AE8      		ldi r24,lo8(650)
 6188 1cd6 92E0      		ldi r25,hi8(650)
 6189 1cd8 60E0      		ldi r22,lo8(buf)
 6190 1cda 70E0      		ldi r23,hi8(buf)
 6191 1cdc 0E94 0000 		call enc28j60PacketReceive
 6192 1ce0 EC01      		movw r28,r24
 6193               	.LM983:
 6194 1ce2 80E0      		ldi r24,lo8(buf)
 6195 1ce4 90E0      		ldi r25,hi8(buf)
 6196 1ce6 BE01      		movw r22,r28
 6197 1ce8 0E94 0000 		call packetloop_icmp_tcp
 6198 1cec 8C01      		movw r16,r24
 6199               	.LM984:
 6200 1cee 2097      		sbiw r28,0
 6201 1cf0 01F0      		breq .+2
 6202 1cf2 00C0      		rjmp .L492
 6203               	.LBB373:
 6204               	.LBB374:
 6205               	.LM985:
 6206 1cf4 8091 0000 		lds r24,waitgwmac
 6207 1cf8 81FF      		sbrs r24,1
 6208 1cfa 00C0      		rjmp .L523
 6209               	.LBE374:
 6210               	.LBE373:
 6211               	.LM986:
 6212 1cfc 8091 0000 		lds r24,dns_state
 6213 1d00 8823      		tst r24
 6214 1d02 01F4      		brne .L494
 6215               	.LM987:
 6216 1d04 1092 0000 		sts sec,__zero_reg__
 6217               	.LM988:
 6218 1d08 3092 0000 		sts dns_state,r3
 6219               	.LM989:
 6220 1d0c 80E0      		ldi r24,lo8(buf)
 6221 1d0e 90E0      		ldi r25,hi8(buf)
 6222 1d10 60E0      		ldi r22,lo8(__c.3355)
 6223 1d12 70E0      		ldi r23,hi8(__c.3355)
 6224 1d14 0E94 0000 		call dnslkup_request
 6225 1d18 00C0      		rjmp .L523
 6226               	.L494:
 6227               	.LM990:
 6228 1d1a 8130      		cpi r24,lo8(1)
 6229 1d1c 01F4      		brne .L495
 6230 1d1e 8091 0000 		lds r24,haveDNSanswer
 6231 1d22 8823      		tst r24
 6232 1d24 01F0      		breq .L495
 6233               	.LM991:
 6234 1d26 82E0      		ldi r24,lo8(2)
 6235 1d28 8093 0000 		sts dns_state,r24
 6236 1d2c 20E0      		ldi r18,lo8(0)
 6237 1d2e 30E0      		ldi r19,hi8(0)
 6238               	.L496:
 6239               	.LBB375:
 6240               	.LBB376:
 6241               	.LM992:
 6242 1d30 F901      		movw r30,r18
 6243 1d32 E050      		subi r30,lo8(-(tcpsrvip))
 6244 1d34 F040      		sbci r31,hi8(-(tcpsrvip))
 6245 1d36 D901      		movw r26,r18
 6246 1d38 A050      		subi r26,lo8(-(dns_answerip))
 6247 1d3a B040      		sbci r27,hi8(-(dns_answerip))
 6248 1d3c 8C91      		ld r24,X
 6249 1d3e 8083      		st Z,r24
 6250 1d40 2F5F      		subi r18,lo8(-(1))
 6251 1d42 3F4F      		sbci r19,hi8(-(1))
 6252               	.LM993:
 6253 1d44 2430      		cpi r18,4
 6254 1d46 3105      		cpc r19,__zero_reg__
 6255 1d48 01F4      		brne .L496
 6256               	.L495:
 6257               	.LBE376:
 6258               	.LBE375:
 6259               	.LM994:
 6260 1d4a 9091 0000 		lds r25,dns_state
 6261 1d4e 9230      		cpi r25,lo8(2)
 6262 1d50 01F0      		breq .L497
 6263               	.LM995:
 6264 1d52 8091 0000 		lds r24,sec
 6265 1d56 8D33      		cpi r24,lo8(61)
 6266 1d58 00F4      		brsh .+2
 6267 1d5a 00C0      		rjmp .L523
 6268               	.LM996:
 6269 1d5c 1092 0000 		sts dns_state,__zero_reg__
 6270 1d60 00C0      		rjmp .L523
 6271               	.L497:
 6272               	.LM997:
 6273 1d62 8091 0000 		lds r24,start_web_client
 6274 1d66 8130      		cpi r24,lo8(1)
 6275 1d68 01F0      		breq .+2
 6276 1d6a 00C0      		rjmp .L498
 6277               	.LM998:
 6278 1d6c DE98      		cbi 59-32,6
 6279               	.LM999:
 6280 1d6e 1092 0000 		sts sec,__zero_reg__
 6281               	.LM1000:
 6282 1d72 9093 0000 		sts start_web_client,r25
 6283               	.LM1001:
 6284 1d76 8091 0000 		lds r24,web_client_attempts
 6285 1d7a 8F5F      		subi r24,lo8(-(1))
 6286 1d7c 8093 0000 		sts web_client_attempts,r24
 6287               	.LM1002:
 6288 1d80 80B3      		in r24,48-32
 6289 1d82 90E0      		ldi r25,lo8(0)
 6290 1d84 8370      		andi r24,lo8(3)
 6291 1d86 9070      		andi r25,hi8(3)
 6292 1d88 892B      		or r24,r25
 6293 1d8a 01F4      		brne .L499
 6294               	.LM1003:
 6295 1d8c 80E0      		ldi r24,lo8(urlvarstr)
 6296 1d8e 90E0      		ldi r25,hi8(urlvarstr)
 6297 1d90 60E0      		ldi r22,lo8(.LC1)
 6298 1d92 70E0      		ldi r23,hi8(.LC1)
 6299 1d94 00C0      		rjmp .L524
 6300               	.L499:
 6301               	.LM1004:
 6302 1d96 80B3      		in r24,48-32
 6303 1d98 8370      		andi r24,lo8(3)
 6304 1d9a 8130      		cpi r24,lo8(1)
 6305 1d9c 01F4      		brne .L501
 6306               	.LM1005:
 6307 1d9e 80E0      		ldi r24,lo8(urlvarstr)
 6308 1da0 90E0      		ldi r25,hi8(urlvarstr)
 6309 1da2 60E0      		ldi r22,lo8(.LC2)
 6310 1da4 70E0      		ldi r23,hi8(.LC2)
 6311 1da6 00C0      		rjmp .L524
 6312               	.L501:
 6313               	.LM1006:
 6314 1da8 80B3      		in r24,48-32
 6315 1daa 8370      		andi r24,lo8(3)
 6316 1dac 8230      		cpi r24,lo8(2)
 6317 1dae 01F4      		brne .L502
 6318               	.LM1007:
 6319 1db0 80E0      		ldi r24,lo8(urlvarstr)
 6320 1db2 90E0      		ldi r25,hi8(urlvarstr)
 6321 1db4 60E0      		ldi r22,lo8(.LC3)
 6322 1db6 70E0      		ldi r23,hi8(.LC3)
 6323 1db8 00C0      		rjmp .L524
 6324               	.L502:
 6325               	.LM1008:
 6326 1dba 80E0      		ldi r24,lo8(urlvarstr)
 6327 1dbc 90E0      		ldi r25,hi8(urlvarstr)
 6328 1dbe 60E0      		ldi r22,lo8(.LC4)
 6329 1dc0 70E0      		ldi r23,hi8(.LC4)
 6330               	.L524:
 6331 1dc2 0E94 0000 		call strcpy
 6332               	.LBB377:
 6333               	.LBB372:
 6334               	.LM1009:
 6335 1dc6 5092 0000 		sts (client_urlbuf)+1,r5
 6336 1dca 4092 0000 		sts client_urlbuf,r4
 6337               	.LM1010:
 6338 1dce 7092 0000 		sts (client_urlbuf_var)+1,r7
 6339 1dd2 6092 0000 		sts client_urlbuf_var,r6
 6340               	.LM1011:
 6341 1dd6 B092 0000 		sts (client_hoststr)+1,r11
 6342 1dda A092 0000 		sts client_hoststr,r10
 6343               	.LM1012:
 6344 1dde 1092 0000 		sts browsertype,__zero_reg__
 6345               	.LM1013:
 6346 1de2 9092 0000 		sts (client_browser_callback)+1,r9
 6347 1de6 8092 0000 		sts client_browser_callback,r8
 6348               	.LBB371:
 6349               	.LBB370:
 6350               	.LM1014:
 6351 1dea F092 0000 		sts (client_tcp_result_callback)+1,r15
 6352 1dee E092 0000 		sts client_tcp_result_callback,r14
 6353               	.LM1015:
 6354 1df2 D092 0000 		sts (client_tcp_datafill_callback)+1,r13
 6355 1df6 C092 0000 		sts client_tcp_datafill_callback,r12
 6356               	.LM1016:
 6357 1dfa 1092 0000 		sts tcp_client_port_h,__zero_reg__
 6358               	.LM1017:
 6359 1dfe 2092 0000 		sts tcp_client_port_l,r2
 6360               	.LM1018:
 6361 1e02 3092 0000 		sts tcp_client_state,r3
 6362               	.LM1019:
 6363 1e06 8091 0000 		lds r24,tcp_fd
 6364 1e0a 8F5F      		subi r24,lo8(-(1))
 6365 1e0c 8093 0000 		sts tcp_fd,r24
 6366               	.LM1020:
 6367 1e10 8830      		cpi r24,lo8(8)
 6368 1e12 00F0      		brlo .L503
 6369               	.LM1021:
 6370 1e14 1092 0000 		sts tcp_fd,__zero_reg__
 6371               	.L503:
 6372               	.LBE370:
 6373               	.LBE371:
 6374               	.LM1022:
 6375 1e18 8091 0000 		lds r24,tcp_fd
 6376 1e1c 8093 0000 		sts www_fd,r24
 6377               	.L498:
 6378               	.LBE372:
 6379               	.LBE377:
 6380               	.LM1023:
 6381 1e20 8091 0000 		lds r24,sec
 6382 1e24 8D33      		cpi r24,lo8(61)
 6383 1e26 00F4      		brsh .+2
 6384 1e28 00C0      		rjmp .L523
 6385 1e2a 8091 0000 		lds r24,start_web_client
 6386 1e2e 8230      		cpi r24,lo8(2)
 6387 1e30 01F0      		breq .+2
 6388 1e32 00C0      		rjmp .L523
 6389               	.LM1024:
 6390 1e34 1092 0000 		sts start_web_client,__zero_reg__
 6391 1e38 00C0      		rjmp .L523
 6392               	.L492:
 6393               	.LM1025:
 6394 1e3a 0097      		sbiw r24,0
 6395 1e3c 01F4      		brne .L504
 6396               	.LVL500:
 6397               	.LM1026:
 6398 1e3e 80E0      		ldi r24,lo8(buf)
 6399 1e40 90E0      		ldi r25,hi8(buf)
 6400               	.LVL501:
 6401 1e42 BE01      		movw r22,r28
 6402 1e44 0E94 0000 		call udp_client_check_for_dns_answer
 6403 1e48 00C0      		rjmp .L523
 6404               	.LVL502:
 6405               	.L504:
 6406               	.LM1027:
 6407 1e4a BC01      		movw r22,r24
 6408 1e4c 6050      		subi r22,lo8(-(buf))
 6409 1e4e 7040      		sbci r23,hi8(-(buf))
 6410 1e50 80E0      		ldi r24,lo8(.LC5)
 6411 1e52 90E0      		ldi r25,hi8(.LC5)
 6412               	.LVL503:
 6413 1e54 44E0      		ldi r20,lo8(4)
 6414 1e56 50E0      		ldi r21,hi8(4)
 6415 1e58 0E94 0000 		call strncmp
 6416 1e5c 0097      		sbiw r24,0
 6417 1e5e 01F0      		breq .L505
 6418 1e60 60E0      		ldi r22,lo8(0)
 6419 1e62 70E0      		ldi r23,hi8(0)
 6420               	.LVL504:
 6421 1e64 00C0      		rjmp .L506
 6422               	.LVL505:
 6423               	.L507:
 6424               	.LBB378:
 6425               	.LBB379:
 6426               	.LBB380:
 6427               	.LBB381:
 6428               	.LM1028:
 6429 1e66 FB01      		movw r30,r22
 6430 1e68 E050      		subi r30,lo8(-(buf))
 6431 1e6a F040      		sbci r31,hi8(-(buf))
 6432 1e6c 86AB      		std Z+54,r24
 6433               	.LM1029:
 6434 1e6e 6F5F      		subi r22,lo8(-(1))
 6435 1e70 7F4F      		sbci r23,hi8(-(1))
 6436               	.L506:
 6437               	.LBB382:
 6438               	.LM1030:
 6439 1e72 FB01      		movw r30,r22
 6440 1e74 E050      		subi r30,lo8(-(__c.3263))
 6441 1e76 F040      		sbci r31,hi8(-(__c.3263))
 6442               	/* #APP */
 6443               	 ;  463 "ip_arp_udp_tcp.c" 1
 6444 1e78 8491      		lpm r24, Z
 6445               		
 6446               	 ;  0 "" 2
 6447               	/* #NOAPP */
 6448               	.LBE382:
 6449 1e7a 8823      		tst r24
 6450 1e7c 01F4      		brne .L507
 6451 1e7e DB01      		movw r26,r22
 6452 1e80 A050      		subi r26,lo8(-(buf+54))
 6453 1e82 B040      		sbci r27,hi8(-(buf+54))
 6454               	.LM1031:
 6455 1e84 80E0      		ldi r24,lo8(__c.3361)
 6456 1e86 90E0      		ldi r25,hi8(__c.3361)
 6457               	.LVL506:
 6458 1e88 00C0      		rjmp .L508
 6459               	.LVL507:
 6460               	.L509:
 6461               	.LBE381:
 6462               	.LBE380:
 6463               	.LBE379:
 6464               	.LBE378:
 6465               	.LBB383:
 6466               	.LBB384:
 6467               	.LM1032:
 6468 1e8a 2D93      		st X+,r18
 6469               	.LM1033:
 6470 1e8c 6F5F      		subi r22,lo8(-(1))
 6471 1e8e 7F4F      		sbci r23,hi8(-(1))
 6472               	.L508:
 6473 1e90 FC01      		movw r30,r24
 6474               	.LBB385:
 6475               	.LM1034:
 6476 1e92 0196      		adiw r24,1
 6477               	/* #APP */
 6478               	 ;  463 "ip_arp_udp_tcp.c" 1
 6479 1e94 2491      		lpm r18, Z
 6480               		
 6481               	 ;  0 "" 2
 6482               	/* #NOAPP */
 6483               	.LBE385:
 6484 1e96 2223      		tst r18
 6485 1e98 01F4      		brne .L509
 6486 1e9a 00C0      		rjmp .L510
 6487               	.LVL508:
 6488               	.L505:
 6489               	.LBE384:
 6490               	.LBE383:
 6491               	.LM1035:
 6492 1e9c 0050      		subi r16,lo8(-(buf+4))
 6493 1e9e 1040      		sbci r17,hi8(-(buf+4))
 6494 1ea0 80E0      		ldi r24,lo8(.LC6)
 6495 1ea2 90E0      		ldi r25,hi8(.LC6)
 6496 1ea4 B801      		movw r22,r16
 6497 1ea6 42E0      		ldi r20,lo8(2)
 6498 1ea8 50E0      		ldi r21,hi8(2)
 6499 1eaa 0E94 0000 		call strncmp
 6500 1eae 0097      		sbiw r24,0
 6501 1eb0 01F0      		breq .L511
 6502 1eb2 60E0      		ldi r22,lo8(0)
 6503 1eb4 70E0      		ldi r23,hi8(0)
 6504               	.LVL509:
 6505 1eb6 00C0      		rjmp .L512
 6506               	.LVL510:
 6507               	.L511:
 6508 1eb8 80E0      		ldi r24,lo8(0)
 6509 1eba 90E0      		ldi r25,hi8(0)
 6510               	.LVL511:
 6511 1ebc 00C0      		rjmp .L513
 6512               	.LVL512:
 6513               	.L514:
 6514               	.LBB386:
 6515               	.LBB387:
 6516               	.LBB388:
 6517               	.LBB389:
 6518               	.LM1036:
 6519 1ebe FC01      		movw r30,r24
 6520 1ec0 E050      		subi r30,lo8(-(buf))
 6521 1ec2 F040      		sbci r31,hi8(-(buf))
 6522 1ec4 26AB      		std Z+54,r18
 6523               	.LM1037:
 6524 1ec6 0196      		adiw r24,1
 6525               	.L513:
 6526               	.LBB390:
 6527               	.LM1038:
 6528 1ec8 FC01      		movw r30,r24
 6529 1eca E050      		subi r30,lo8(-(__c.3263))
 6530 1ecc F040      		sbci r31,hi8(-(__c.3263))
 6531               	/* #APP */
 6532               	 ;  463 "ip_arp_udp_tcp.c" 1
 6533 1ece 2491      		lpm r18, Z
 6534               		
 6535               	 ;  0 "" 2
 6536               	/* #NOAPP */
 6537               	.LBE390:
 6538 1ed0 2223      		tst r18
 6539 1ed2 01F4      		brne .L514
 6540               	.LBE389:
 6541               	.LBE388:
 6542               	.LBE387:
 6543               	.LBE386:
 6544               	.LM1039:
 6545 1ed4 80E0      		ldi r24,lo8(buf)
 6546 1ed6 90E0      		ldi r25,hi8(buf)
 6547               	.LVL513:
 6548 1ed8 0E94 0000 		call print_webpage
 6549               	.LVL514:
 6550 1edc BC01      		movw r22,r24
 6551               	.LVL515:
 6552 1ede 00C0      		rjmp .L510
 6553               	.LVL516:
 6554               	.L515:
 6555               	.LBB391:
 6556               	.LBB392:
 6557               	.LM1040:
 6558 1ee0 FB01      		movw r30,r22
 6559 1ee2 E050      		subi r30,lo8(-(buf))
 6560 1ee4 F040      		sbci r31,hi8(-(buf))
 6561 1ee6 86AB      		std Z+54,r24
 6562               	.LM1041:
 6563 1ee8 6F5F      		subi r22,lo8(-(1))
 6564 1eea 7F4F      		sbci r23,hi8(-(1))
 6565               	.L512:
 6566               	.LBB393:
 6567               	.LM1042:
 6568 1eec FB01      		movw r30,r22
 6569 1eee E050      		subi r30,lo8(-(__c.3364))
 6570 1ef0 F040      		sbci r31,hi8(-(__c.3364))
 6571               	/* #APP */
 6572               	 ;  463 "ip_arp_udp_tcp.c" 1
 6573 1ef2 8491      		lpm r24, Z
 6574               		
 6575               	 ;  0 "" 2
 6576               	/* #NOAPP */
 6577               	.LBE393:
 6578 1ef4 8823      		tst r24
 6579 1ef6 01F4      		brne .L515
 6580               	.LVL517:
 6581               	.L510:
 6582               	.LBE392:
 6583               	.LBE391:
 6584               	.LM1043:
 6585 1ef8 80E0      		ldi r24,lo8(buf)
 6586 1efa 90E0      		ldi r25,hi8(buf)
 6587               	.LVL518:
 6588 1efc 0E94 0000 		call www_server_reply
 6589               	.LVL519:
 6590 1f00 00C0      		rjmp .L523
 6591               	.LFE81:
 6593               	.global	www_client_internal_datafill_callback
 6595               	www_client_internal_datafill_callback:
 6596               	.LFB56:
 6597               	.LM1044:
 6598               	.LVL520:
 6599 1f02 CF92      		push r12
 6600 1f04 DF92      		push r13
 6601 1f06 EF92      		push r14
 6602 1f08 FF92      		push r15
 6603 1f0a 0F93      		push r16
 6604 1f0c 1F93      		push r17
 6605 1f0e DF93      		push r29
 6606 1f10 CF93      		push r28
 6607 1f12 00D0      		rcall .
 6608 1f14 00D0      		rcall .
 6609 1f16 0F92      		push __tmp_reg__
 6610 1f18 CDB7      		in r28,__SP_L__
 6611 1f1a DEB7      		in r29,__SP_H__
 6612               	/* prologue: function */
 6613               	/* frame size = 5 */
 6614               	.LM1045:
 6615 1f1c 9091 0000 		lds r25,www_fd
 6616 1f20 8917      		cp r24,r25
 6617 1f22 01F0      		breq .L526
 6618 1f24 40E0      		ldi r20,lo8(0)
 6619 1f26 50E0      		ldi r21,hi8(0)
 6620               	.LVL521:
 6621 1f28 00C0      		rjmp .L527
 6622               	.LVL522:
 6623               	.L526:
 6624               	.LM1046:
 6625 1f2a 8091 0000 		lds r24,browsertype
 6626               	.LVL523:
 6627 1f2e 0091 0000 		lds r16,bufptr
 6628 1f32 1091 0000 		lds r17,(bufptr)+1
 6629 1f36 8823      		tst r24
 6630 1f38 01F0      		breq .+2
 6631 1f3a 00C0      		rjmp .L528
 6632               	.LM1047:
 6633 1f3c D801      		movw r26,r16
 6634 1f3e D696      		adiw r26,54
 6635 1f40 60E0      		ldi r22,lo8(0)
 6636 1f42 70E0      		ldi r23,hi8(0)
 6637               	.LVL524:
 6638 1f44 00C0      		rjmp .L529
 6639               	.LVL525:
 6640               	.L530:
 6641               	.LBB394:
 6642               	.LBB395:
 6643               	.LM1048:
 6644 1f46 8D93      		st X+,r24
 6645               	.LM1049:
 6646 1f48 6F5F      		subi r22,lo8(-(1))
 6647 1f4a 7F4F      		sbci r23,hi8(-(1))
 6648               	.L529:
 6649               	.LBB396:
 6650               	.LM1050:
 6651 1f4c FB01      		movw r30,r22
 6652 1f4e E050      		subi r30,lo8(-(__c.2799))
 6653 1f50 F040      		sbci r31,hi8(-(__c.2799))
 6654               	/* #APP */
 6655               	 ;  463 "ip_arp_udp_tcp.c" 1
 6656 1f52 8491      		lpm r24, Z
 6657               		
 6658               	 ;  0 "" 2
 6659               	/* #NOAPP */
 6660               	.LBE396:
 6661 1f54 8823      		tst r24
 6662 1f56 01F4      		brne .L530
 6663               	.LBE395:
 6664               	.LBE394:
 6665               	.LM1051:
 6666 1f58 6A5C      		subi r22,lo8(-(54))
 6667 1f5a 7F4F      		sbci r23,hi8(-(54))
 6668 1f5c D801      		movw r26,r16
 6669 1f5e A60F      		add r26,r22
 6670 1f60 B71F      		adc r27,r23
 6671 1f62 6653      		subi r22,lo8(-(-54))
 6672 1f64 7040      		sbci r23,hi8(-(-54))
 6673 1f66 8091 0000 		lds r24,client_urlbuf
 6674               	.LVL526:
 6675 1f6a 9091 0000 		lds r25,client_urlbuf+1
 6676               	.LVL527:
 6677 1f6e 9C01      		movw r18,r24
 6678               	.LVL528:
 6679 1f70 00C0      		rjmp .L531
 6680               	.LVL529:
 6681               	.L532:
 6682               	.LBB397:
 6683               	.LBB398:
 6684               	.LM1052:
 6685 1f72 8D93      		st X+,r24
 6686               	.LM1053:
 6687 1f74 6F5F      		subi r22,lo8(-(1))
 6688 1f76 7F4F      		sbci r23,hi8(-(1))
 6689               	.L531:
 6690 1f78 F901      		movw r30,r18
 6691               	.LBB399:
 6692               	.LM1054:
 6693 1f7a 2F5F      		subi r18,lo8(-(1))
 6694 1f7c 3F4F      		sbci r19,hi8(-(1))
 6695               	/* #APP */
 6696               	 ;  463 "ip_arp_udp_tcp.c" 1
 6697 1f7e 8491      		lpm r24, Z
 6698               		
 6699               	 ;  0 "" 2
 6700               	/* #NOAPP */
 6701               	.LBE399:
 6702 1f80 8823      		tst r24
 6703 1f82 01F4      		brne .L532
 6704               	.LBE398:
 6705               	.LBE397:
 6706               	.LM1055:
 6707 1f84 4091 0000 		lds r20,client_urlbuf_var
 6708 1f88 5091 0000 		lds r21,(client_urlbuf_var)+1
 6709 1f8c C801      		movw r24,r16
 6710               	.LVL530:
 6711 1f8e 0E94 0000 		call fill_tcp_data
 6712               	.LVL531:
 6713 1f92 AC01      		movw r20,r24
 6714               	.LVL532:
 6715 1f94 4A5C      		subi r20,lo8(-(54))
 6716 1f96 5F4F      		sbci r21,hi8(-(54))
 6717 1f98 D801      		movw r26,r16
 6718 1f9a A40F      		add r26,r20
 6719 1f9c B51F      		adc r27,r21
 6720 1f9e 4653      		subi r20,lo8(-(-54))
 6721 1fa0 5040      		sbci r21,hi8(-(-54))
 6722               	.LM1056:
 6723 1fa2 80E0      		ldi r24,lo8(__c.2801)
 6724 1fa4 90E0      		ldi r25,hi8(__c.2801)
 6725               	.LVL533:
 6726 1fa6 00C0      		rjmp .L533
 6727               	.LVL534:
 6728               	.L534:
 6729               	.LBB400:
 6730               	.LBB401:
 6731               	.LM1057:
 6732 1fa8 2D93      		st X+,r18
 6733               	.LM1058:
 6734 1faa 4F5F      		subi r20,lo8(-(1))
 6735 1fac 5F4F      		sbci r21,hi8(-(1))
 6736               	.L533:
 6737 1fae FC01      		movw r30,r24
 6738               	.LBB402:
 6739               	.LM1059:
 6740 1fb0 0196      		adiw r24,1
 6741               	/* #APP */
 6742               	 ;  463 "ip_arp_udp_tcp.c" 1
 6743 1fb2 2491      		lpm r18, Z
 6744               		
 6745               	 ;  0 "" 2
 6746               	/* #NOAPP */
 6747               	.LBE402:
 6748 1fb4 2223      		tst r18
 6749 1fb6 01F4      		brne .L534
 6750               	.LBE401:
 6751               	.LBE400:
 6752               	.LM1060:
 6753 1fb8 4A5C      		subi r20,lo8(-(54))
 6754 1fba 5F4F      		sbci r21,hi8(-(54))
 6755 1fbc D801      		movw r26,r16
 6756 1fbe A40F      		add r26,r20
 6757 1fc0 B51F      		adc r27,r21
 6758 1fc2 4653      		subi r20,lo8(-(-54))
 6759 1fc4 5040      		sbci r21,hi8(-(-54))
 6760 1fc6 8091 0000 		lds r24,client_hoststr
 6761               	.LVL535:
 6762 1fca 9091 0000 		lds r25,client_hoststr+1
 6763               	.LVL536:
 6764 1fce 9C01      		movw r18,r24
 6765               	.LVL537:
 6766 1fd0 00C0      		rjmp .L535
 6767               	.LVL538:
 6768               	.L536:
 6769               	.LBB403:
 6770               	.LBB404:
 6771               	.LM1061:
 6772 1fd2 8D93      		st X+,r24
 6773               	.LM1062:
 6774 1fd4 4F5F      		subi r20,lo8(-(1))
 6775 1fd6 5F4F      		sbci r21,hi8(-(1))
 6776               	.LVL539:
 6777               	.L535:
 6778 1fd8 F901      		movw r30,r18
 6779               	.LVL540:
 6780               	.LBB405:
 6781               	.LM1063:
 6782 1fda 2F5F      		subi r18,lo8(-(1))
 6783 1fdc 3F4F      		sbci r19,hi8(-(1))
 6784               	/* #APP */
 6785               	 ;  463 "ip_arp_udp_tcp.c" 1
 6786 1fde 8491      		lpm r24, Z
 6787               		
 6788               	 ;  0 "" 2
 6789               	/* #NOAPP */
 6790               	.LBE405:
 6791 1fe0 8823      		tst r24
 6792 1fe2 01F4      		brne .L536
 6793 1fe4 4A5C      		subi r20,lo8(-(54))
 6794 1fe6 5F4F      		sbci r21,hi8(-(54))
 6795 1fe8 D801      		movw r26,r16
 6796 1fea A40F      		add r26,r20
 6797 1fec B51F      		adc r27,r21
 6798 1fee 4653      		subi r20,lo8(-(-54))
 6799 1ff0 5040      		sbci r21,hi8(-(-54))
 6800               	.LM1064:
 6801 1ff2 80E0      		ldi r24,lo8(__c.2803)
 6802 1ff4 90E0      		ldi r25,hi8(__c.2803)
 6803               	.LVL541:
 6804 1ff6 00C0      		rjmp .L537
 6805               	.LVL542:
 6806               	.L538:
 6807               	.LBE404:
 6808               	.LBE403:
 6809               	.LBB406:
 6810               	.LBB407:
 6811               	.LM1065:
 6812 1ff8 2D93      		st X+,r18
 6813               	.LM1066:
 6814 1ffa 4F5F      		subi r20,lo8(-(1))
 6815 1ffc 5F4F      		sbci r21,hi8(-(1))
 6816               	.LVL543:
 6817               	.L537:
 6818 1ffe FC01      		movw r30,r24
 6819               	.LVL544:
 6820               	.LBB408:
 6821               	.LM1067:
 6822 2000 0196      		adiw r24,1
 6823               	/* #APP */
 6824               	 ;  463 "ip_arp_udp_tcp.c" 1
 6825 2002 2491      		lpm r18, Z
 6826               		
 6827               	 ;  0 "" 2
 6828               	.LVL545:
 6829               	/* #NOAPP */
 6830               	.LBE408:
 6831 2004 2223      		tst r18
 6832 2006 01F4      		brne .L538
 6833 2008 00C0      		rjmp .L527
 6834               	.LVL546:
 6835               	.L528:
 6836               	.LBE407:
 6837               	.LBE406:
 6838               	.LM1068:
 6839 200a D801      		movw r26,r16
 6840 200c D696      		adiw r26,54
 6841 200e EE24      		clr r14
 6842 2010 FF24      		clr r15
 6843               	.LVL547:
 6844 2012 00C0      		rjmp .L539
 6845               	.LVL548:
 6846               	.L540:
 6847               	.LBB409:
 6848               	.LBB410:
 6849               	.LM1069:
 6850 2014 8D93      		st X+,r24
 6851               	.LM1070:
 6852 2016 0894      		sec
 6853 2018 E11C      		adc r14,__zero_reg__
 6854 201a F11C      		adc r15,__zero_reg__
 6855               	.L539:
 6856               	.LBB411:
 6857               	.LM1071:
 6858 201c F701      		movw r30,r14
 6859 201e E050      		subi r30,lo8(-(__c.2805))
 6860 2020 F040      		sbci r31,hi8(-(__c.2805))
 6861               	/* #APP */
 6862               	 ;  463 "ip_arp_udp_tcp.c" 1
 6863 2022 8491      		lpm r24, Z
 6864               		
 6865               	 ;  0 "" 2
 6866               	/* #NOAPP */
 6867               	.LBE411:
 6868 2024 8823      		tst r24
 6869 2026 01F4      		brne .L540
 6870               	.LBE410:
 6871               	.LBE409:
 6872               	.LM1072:
 6873 2028 86E3      		ldi r24,lo8(54)
 6874 202a 90E0      		ldi r25,hi8(54)
 6875               	.LVL549:
 6876 202c E80E      		add r14,r24
 6877 202e F91E      		adc r15,r25
 6878 2030 D801      		movw r26,r16
 6879 2032 AE0D      		add r26,r14
 6880 2034 BF1D      		adc r27,r15
 6881 2036 8AEC      		ldi r24,lo8(-54)
 6882 2038 9FEF      		ldi r25,hi8(-54)
 6883 203a E80E      		add r14,r24
 6884 203c F91E      		adc r15,r25
 6885 203e 8091 0000 		lds r24,client_urlbuf
 6886               	.LVL550:
 6887 2042 9091 0000 		lds r25,client_urlbuf+1
 6888               	.LVL551:
 6889 2046 9C01      		movw r18,r24
 6890               	.LVL552:
 6891 2048 00C0      		rjmp .L541
 6892               	.LVL553:
 6893               	.L542:
 6894               	.LBB412:
 6895               	.LBB413:
 6896               	.LM1073:
 6897 204a 8D93      		st X+,r24
 6898               	.LM1074:
 6899 204c 0894      		sec
 6900 204e E11C      		adc r14,__zero_reg__
 6901 2050 F11C      		adc r15,__zero_reg__
 6902               	.L541:
 6903 2052 F901      		movw r30,r18
 6904               	.LBB414:
 6905               	.LM1075:
 6906 2054 2F5F      		subi r18,lo8(-(1))
 6907 2056 3F4F      		sbci r19,hi8(-(1))
 6908               	/* #APP */
 6909               	 ;  463 "ip_arp_udp_tcp.c" 1
 6910 2058 8491      		lpm r24, Z
 6911               		
 6912               	 ;  0 "" 2
 6913               	/* #NOAPP */
 6914               	.LBE414:
 6915 205a 8823      		tst r24
 6916 205c 01F4      		brne .L542
 6917 205e 86E3      		ldi r24,lo8(54)
 6918 2060 90E0      		ldi r25,hi8(54)
 6919               	.LVL554:
 6920 2062 E80E      		add r14,r24
 6921 2064 F91E      		adc r15,r25
 6922 2066 D801      		movw r26,r16
 6923 2068 AE0D      		add r26,r14
 6924 206a BF1D      		adc r27,r15
 6925 206c 8AEC      		ldi r24,lo8(-54)
 6926 206e 9FEF      		ldi r25,hi8(-54)
 6927 2070 E80E      		add r14,r24
 6928 2072 F91E      		adc r15,r25
 6929               	.LM1076:
 6930 2074 80E0      		ldi r24,lo8(__c.2807)
 6931 2076 90E0      		ldi r25,hi8(__c.2807)
 6932               	.LVL555:
 6933 2078 00C0      		rjmp .L543
 6934               	.LVL556:
 6935               	.L544:
 6936               	.LBE413:
 6937               	.LBE412:
 6938               	.LBB415:
 6939               	.LBB416:
 6940               	.LM1077:
 6941 207a 2D93      		st X+,r18
 6942               	.LM1078:
 6943 207c 0894      		sec
 6944 207e E11C      		adc r14,__zero_reg__
 6945 2080 F11C      		adc r15,__zero_reg__
 6946               	.LVL557:
 6947               	.L543:
 6948 2082 FC01      		movw r30,r24
 6949               	.LVL558:
 6950               	.LBB417:
 6951               	.LM1079:
 6952 2084 0196      		adiw r24,1
 6953               	/* #APP */
 6954               	 ;  463 "ip_arp_udp_tcp.c" 1
 6955 2086 2491      		lpm r18, Z
 6956               		
 6957               	 ;  0 "" 2
 6958               	.LVL559:
 6959               	/* #NOAPP */
 6960               	.LBE417:
 6961 2088 2223      		tst r18
 6962 208a 01F4      		brne .L544
 6963               	.LBE416:
 6964               	.LBE415:
 6965               	.LM1080:
 6966 208c 86E3      		ldi r24,lo8(54)
 6967 208e 90E0      		ldi r25,hi8(54)
 6968               	.LVL560:
 6969 2090 E80E      		add r14,r24
 6970 2092 F91E      		adc r15,r25
 6971 2094 D801      		movw r26,r16
 6972 2096 AE0D      		add r26,r14
 6973 2098 BF1D      		adc r27,r15
 6974 209a 8AEC      		ldi r24,lo8(-54)
 6975 209c 9FEF      		ldi r25,hi8(-54)
 6976 209e E80E      		add r14,r24
 6977 20a0 F91E      		adc r15,r25
 6978 20a2 8091 0000 		lds r24,client_hoststr
 6979               	.LVL561:
 6980 20a6 9091 0000 		lds r25,client_hoststr+1
 6981               	.LVL562:
 6982 20aa 9C01      		movw r18,r24
 6983               	.LVL563:
 6984 20ac 00C0      		rjmp .L545
 6985               	.LVL564:
 6986               	.L546:
 6987               	.LBB418:
 6988               	.LBB419:
 6989               	.LM1081:
 6990 20ae 8D93      		st X+,r24
 6991               	.LM1082:
 6992 20b0 0894      		sec
 6993 20b2 E11C      		adc r14,__zero_reg__
 6994 20b4 F11C      		adc r15,__zero_reg__
 6995               	.LVL565:
 6996               	.L545:
 6997 20b6 F901      		movw r30,r18
 6998               	.LVL566:
 6999               	.LBB420:
 7000               	.LM1083:
 7001 20b8 2F5F      		subi r18,lo8(-(1))
 7002 20ba 3F4F      		sbci r19,hi8(-(1))
 7003               	/* #APP */
 7004               	 ;  463 "ip_arp_udp_tcp.c" 1
 7005 20bc 8491      		lpm r24, Z
 7006               		
 7007               	 ;  0 "" 2
 7008               	/* #NOAPP */
 7009               	.LBE420:
 7010 20be 8823      		tst r24
 7011 20c0 01F4      		brne .L546
 7012               	.LBE419:
 7013               	.LBE418:
 7014               	.LM1084:
 7015 20c2 4091 0000 		lds r20,client_additionalheaderline
 7016 20c6 5091 0000 		lds r21,(client_additionalheaderline)+1
 7017 20ca 4115      		cp r20,__zero_reg__
 7018 20cc 5105      		cpc r21,__zero_reg__
 7019 20ce 01F0      		breq .L547
 7020 20d0 86E3      		ldi r24,lo8(54)
 7021 20d2 90E0      		ldi r25,hi8(54)
 7022               	.LVL567:
 7023 20d4 E80E      		add r14,r24
 7024 20d6 F91E      		adc r15,r25
 7025 20d8 D801      		movw r26,r16
 7026 20da AE0D      		add r26,r14
 7027 20dc BF1D      		adc r27,r15
 7028 20de 8AEC      		ldi r24,lo8(-54)
 7029 20e0 9FEF      		ldi r25,hi8(-54)
 7030 20e2 E80E      		add r14,r24
 7031 20e4 F91E      		adc r15,r25
 7032               	.LM1085:
 7033 20e6 80E0      		ldi r24,lo8(__c.2809)
 7034 20e8 90E0      		ldi r25,hi8(__c.2809)
 7035               	.LVL568:
 7036 20ea 00C0      		rjmp .L548
 7037               	.LVL569:
 7038               	.L549:
 7039               	.LBB421:
 7040               	.LBB422:
 7041               	.LM1086:
 7042 20ec 2D93      		st X+,r18
 7043               	.LM1087:
 7044 20ee 0894      		sec
 7045 20f0 E11C      		adc r14,__zero_reg__
 7046 20f2 F11C      		adc r15,__zero_reg__
 7047               	.LVL570:
 7048               	.L548:
 7049 20f4 FC01      		movw r30,r24
 7050               	.LVL571:
 7051               	.LBB423:
 7052               	.LM1088:
 7053 20f6 0196      		adiw r24,1
 7054               	/* #APP */
 7055               	 ;  463 "ip_arp_udp_tcp.c" 1
 7056 20f8 2491      		lpm r18, Z
 7057               		
 7058               	 ;  0 "" 2
 7059               	.LVL572:
 7060               	/* #NOAPP */
 7061               	.LBE423:
 7062 20fa 2223      		tst r18
 7063 20fc 01F4      		brne .L549
 7064 20fe 86E3      		ldi r24,lo8(54)
 7065 2100 90E0      		ldi r25,hi8(54)
 7066               	.LVL573:
 7067 2102 E80E      		add r14,r24
 7068 2104 F91E      		adc r15,r25
 7069 2106 D801      		movw r26,r16
 7070 2108 AE0D      		add r26,r14
 7071 210a BF1D      		adc r27,r15
 7072 210c 8AEC      		ldi r24,lo8(-54)
 7073 210e 9FEF      		ldi r25,hi8(-54)
 7074 2110 E80E      		add r14,r24
 7075 2112 F91E      		adc r15,r25
 7076 2114 CA01      		movw r24,r20
 7077               	.LVL574:
 7078 2116 00C0      		rjmp .L550
 7079               	.LVL575:
 7080               	.L551:
 7081               	.LBE422:
 7082               	.LBE421:
 7083               	.LBB424:
 7084               	.LBB425:
 7085               	.LM1089:
 7086 2118 2D93      		st X+,r18
 7087               	.LM1090:
 7088 211a 0894      		sec
 7089 211c E11C      		adc r14,__zero_reg__
 7090 211e F11C      		adc r15,__zero_reg__
 7091               	.LVL576:
 7092               	.L550:
 7093 2120 FC01      		movw r30,r24
 7094               	.LVL577:
 7095               	.LBB426:
 7096               	.LM1091:
 7097 2122 0196      		adiw r24,1
 7098               	/* #APP */
 7099               	 ;  463 "ip_arp_udp_tcp.c" 1
 7100 2124 2491      		lpm r18, Z
 7101               		
 7102               	 ;  0 "" 2
 7103               	.LVL578:
 7104               	/* #NOAPP */
 7105               	.LBE426:
 7106 2126 2223      		tst r18
 7107 2128 01F4      		brne .L551
 7108               	.LVL579:
 7109               	.L547:
 7110 212a 86E3      		ldi r24,lo8(54)
 7111 212c 90E0      		ldi r25,hi8(54)
 7112               	.LVL580:
 7113 212e E80E      		add r14,r24
 7114 2130 F91E      		adc r15,r25
 7115 2132 D801      		movw r26,r16
 7116 2134 AE0D      		add r26,r14
 7117 2136 BF1D      		adc r27,r15
 7118 2138 8AEC      		ldi r24,lo8(-54)
 7119 213a 9FEF      		ldi r25,hi8(-54)
 7120 213c E80E      		add r14,r24
 7121 213e F91E      		adc r15,r25
 7122               	.LM1092:
 7123 2140 80E0      		ldi r24,lo8(__c.2811)
 7124 2142 90E0      		ldi r25,hi8(__c.2811)
 7125               	.LVL581:
 7126 2144 00C0      		rjmp .L552
 7127               	.LVL582:
 7128               	.L553:
 7129               	.LBE425:
 7130               	.LBE424:
 7131               	.LBB427:
 7132               	.LBB428:
 7133               	.LM1093:
 7134 2146 2D93      		st X+,r18
 7135               	.LM1094:
 7136 2148 0894      		sec
 7137 214a E11C      		adc r14,__zero_reg__
 7138 214c F11C      		adc r15,__zero_reg__
 7139               	.LVL583:
 7140               	.L552:
 7141 214e FC01      		movw r30,r24
 7142               	.LVL584:
 7143               	.LBB429:
 7144               	.LM1095:
 7145 2150 0196      		adiw r24,1
 7146               	/* #APP */
 7147               	 ;  463 "ip_arp_udp_tcp.c" 1
 7148 2152 2491      		lpm r18, Z
 7149               		
 7150               	 ;  0 "" 2
 7151               	.LVL585:
 7152               	/* #NOAPP */
 7153               	.LBE429:
 7154 2154 2223      		tst r18
 7155 2156 01F4      		brne .L553
 7156 2158 86E3      		ldi r24,lo8(54)
 7157 215a 90E0      		ldi r25,hi8(54)
 7158               	.LVL586:
 7159 215c E80E      		add r14,r24
 7160 215e F91E      		adc r15,r25
 7161 2160 D801      		movw r26,r16
 7162 2162 AE0D      		add r26,r14
 7163 2164 BF1D      		adc r27,r15
 7164 2166 8AEC      		ldi r24,lo8(-54)
 7165 2168 9FEF      		ldi r25,hi8(-54)
 7166 216a E80E      		add r14,r24
 7167 216c F91E      		adc r15,r25
 7168               	.LM1096:
 7169 216e 80E0      		ldi r24,lo8(__c.2813)
 7170 2170 90E0      		ldi r25,hi8(__c.2813)
 7171               	.LVL587:
 7172 2172 00C0      		rjmp .L554
 7173               	.LVL588:
 7174               	.L555:
 7175               	.LBE428:
 7176               	.LBE427:
 7177               	.LBB430:
 7178               	.LBB431:
 7179               	.LM1097:
 7180 2174 2D93      		st X+,r18
 7181               	.LM1098:
 7182 2176 0894      		sec
 7183 2178 E11C      		adc r14,__zero_reg__
 7184 217a F11C      		adc r15,__zero_reg__
 7185               	.LVL589:
 7186               	.L554:
 7187 217c FC01      		movw r30,r24
 7188               	.LVL590:
 7189               	.LBB432:
 7190               	.LM1099:
 7191 217e 0196      		adiw r24,1
 7192               	/* #APP */
 7193               	 ;  463 "ip_arp_udp_tcp.c" 1
 7194 2180 2491      		lpm r18, Z
 7195               		
 7196               	 ;  0 "" 2
 7197               	.LVL591:
 7198               	/* #NOAPP */
 7199               	.LBE432:
 7200 2182 2223      		tst r18
 7201 2184 01F4      		brne .L555
 7202               	.LBE431:
 7203               	.LBE430:
 7204               	.LM1100:
 7205 2186 E091 0000 		lds r30,client_postval
 7206               	.LVL592:
 7207 218a F091 0000 		lds r31,client_postval+1
 7208 218e DF01      		movw r26,r30
 7209 2190 0D90      		ld __tmp_reg__,X+
 7210 2192 0020      		tst __tmp_reg__
 7211 2194 01F4      		brne .-6
 7212 2196 1197      		sbiw r26,1
 7213 2198 CD01      		movw r24,r26
 7214               	.LVL593:
 7215 219a 8E1B      		sub r24,r30
 7216 219c 9F0B      		sbc r25,r31
 7217 219e 8E01      		movw r16,r28
 7218 21a0 0F5F      		subi r16,lo8(-(1))
 7219 21a2 1F4F      		sbci r17,hi8(-(1))
 7220 21a4 B801      		movw r22,r16
 7221 21a6 4AE0      		ldi r20,lo8(10)
 7222 21a8 50E0      		ldi r21,hi8(10)
 7223 21aa 0E94 0000 		call itoa
 7224               	.LVL594:
 7225               	.LM1101:
 7226 21ae C090 0000 		lds r12,bufptr
 7227 21b2 D090 0000 		lds r13,(bufptr)+1
 7228 21b6 C601      		movw r24,r12
 7229 21b8 B701      		movw r22,r14
 7230 21ba A801      		movw r20,r16
 7231 21bc 0E94 0000 		call fill_tcp_data
 7232 21c0 BC01      		movw r22,r24
 7233               	.LVL595:
 7234 21c2 6A5C      		subi r22,lo8(-(54))
 7235 21c4 7F4F      		sbci r23,hi8(-(54))
 7236 21c6 D601      		movw r26,r12
 7237 21c8 A60F      		add r26,r22
 7238 21ca B71F      		adc r27,r23
 7239 21cc 6653      		subi r22,lo8(-(-54))
 7240 21ce 7040      		sbci r23,hi8(-(-54))
 7241               	.LM1102:
 7242 21d0 80E0      		ldi r24,lo8(__c.2815)
 7243 21d2 90E0      		ldi r25,hi8(__c.2815)
 7244               	.LVL596:
 7245 21d4 00C0      		rjmp .L556
 7246               	.LVL597:
 7247               	.L557:
 7248               	.LBB433:
 7249               	.LBB434:
 7250               	.LM1103:
 7251 21d6 2D93      		st X+,r18
 7252               	.LM1104:
 7253 21d8 6F5F      		subi r22,lo8(-(1))
 7254 21da 7F4F      		sbci r23,hi8(-(1))
 7255               	.L556:
 7256 21dc FC01      		movw r30,r24
 7257               	.LBB435:
 7258               	.LM1105:
 7259 21de 0196      		adiw r24,1
 7260               	/* #APP */
 7261               	 ;  463 "ip_arp_udp_tcp.c" 1
 7262 21e0 2491      		lpm r18, Z
 7263               		
 7264               	 ;  0 "" 2
 7265               	/* #NOAPP */
 7266               	.LBE435:
 7267 21e2 2223      		tst r18
 7268 21e4 01F4      		brne .L557
 7269               	.LBE434:
 7270               	.LBE433:
 7271               	.LM1106:
 7272 21e6 4091 0000 		lds r20,client_postval
 7273 21ea 5091 0000 		lds r21,(client_postval)+1
 7274 21ee C601      		movw r24,r12
 7275               	.LVL598:
 7276 21f0 0E94 0000 		call fill_tcp_data
 7277               	.LVL599:
 7278 21f4 AC01      		movw r20,r24
 7279               	.LVL600:
 7280               	.L527:
 7281               	.LM1107:
 7282 21f6 CA01      		movw r24,r20
 7283               	.LVL601:
 7284               	/* epilogue start */
 7285 21f8 0F90      		pop __tmp_reg__
 7286 21fa 0F90      		pop __tmp_reg__
 7287 21fc 0F90      		pop __tmp_reg__
 7288 21fe 0F90      		pop __tmp_reg__
 7289 2200 0F90      		pop __tmp_reg__
 7290 2202 CF91      		pop r28
 7291 2204 DF91      		pop r29
 7292 2206 1F91      		pop r17
 7293 2208 0F91      		pop r16
 7294 220a FF90      		pop r15
 7295 220c EF90      		pop r14
 7296 220e DF90      		pop r13
 7297 2210 CF90      		pop r12
 7298 2212 0895      		ret
 7299               	.LFE56:
 7301               	.global	arpreqhdr
 7302               		.section	.progmem.data,"a",@progbits
 7305               	arpreqhdr:
 7306 0000 00        		.byte	0
 7307 0001 01        		.byte	1
 7308 0002 08        		.byte	8
 7309 0003 00        		.byte	0
 7310 0004 06        		.byte	6
 7311 0005 04        		.byte	4
 7312 0006 00        		.byte	0
 7313 0007 01        		.byte	1
 7314               	.global	iphdr
 7317               	iphdr:
 7318 0008 45        		.byte	69
 7319 0009 00        		.byte	0
 7320 000a 00        		.byte	0
 7321 000b 82        		.byte	-126
 7322 000c 00        		.byte	0
 7323 000d 00        		.byte	0
 7324 000e 40        		.byte	64
 7325 000f 00        		.byte	0
 7326 0010 20        		.byte	32
 7327               		.data
 7330               	mymac:
 7331 0058 54        		.byte	84
 7332 0059 55        		.byte	85
 7333 005a 58        		.byte	88
 7334 005b 10        		.byte	16
 7335 005c 00        		.byte	0
 7336 005d 29        		.byte	41
 7339               	myip:
 7340 005e C0        		.byte	-64
 7341 005f A8        		.byte	-88
 7342 0060 01        		.byte	1
 7343 0061 5C        		.byte	92
 7346               	gwip:
 7347 0062 C0        		.byte	-64
 7348 0063 A8        		.byte	-88
 7349 0064 01        		.byte	1
 7350 0065 01        		.byte	1
 7351               		.lcomm dns_state,1
 7352               		.lcomm sec,1
 7353               		.lcomm start_web_client,1
 7354               		.lcomm web_client_attempts,1
 7355               		.section	.progmem.data
 7358               	__c.3364:
 7359 0011 4854 5450 		.ascii	"HTTP/1.0 401 Un"
 7359      2F31 2E30 
 7359      2034 3031 
 7359      2055 6E
 7360 0020 6175 7468 		.string	"authorized\r\nContent-Type: text/html\r\n\r\n<h1>401 Unauthorized</h1>"
 7360      6F72 697A 
 7360      6564 0D0A 
 7360      436F 6E74 
 7360      656E 742D 
 7363               	__c.3361:
 7364 0061 3C68 313E 		.string	"<h1>200 OK</h1>"
 7364      3230 3020 
 7364      4F4B 3C2F 
 7364      6831 3E00 
 7367               	__c.3359:
 7368 0071 6C6F 6769 		.string	"logicbrigade.com"
 7368      6362 7269 
 7368      6761 6465 
 7368      2E63 6F6D 
 7368      00
 7371               	__c.3357:
 7372 0082 2F6B 756B 		.string	"/kukrokoo/tdata.php"
 7372      726F 6B6F 
 7372      6F2F 7464 
 7372      6174 612E 
 7372      7068 7000 
 7375               	__c.3355:
 7376 0096 6C6F 6769 		.string	"logicbrigade.com"
 7376      6362 7269 
 7376      6761 6465 
 7376      2E63 6F6D 
 7376      00
 7377               		.lcomm web_client_sendok,1
 7378               		.lcomm cnt2step,1
 7379               		.lcomm tick,1
 7382               	__c.3284:
 7383 00a7 0A3C 2F70 		.string	"\n</pre><br><hr>"
 7383      7265 3E3C 
 7383      6272 3E3C 
 7383      6872 3E00 
 7386               	__c.3282:
 7387 00b7 0A63 6865 		.ascii	"\ncheck result: <a href=http://tuxg"
 7387      636B 2072 
 7387      6573 756C 
 7387      743A 203C 
 7387      6120 6872 
 7388 00d9 7261 7068 		.string	"raphics.org/cgi-bin/upld>http://tuxgraphics.org/cgi-bin/upld</a>"
 7388      6963 732E 
 7388      6F72 672F 
 7388      6367 692D 
 7388      6269 6E2F 
 7391               	__c.3280:
 7392 011a 0A4E 756D 		.string	"\nNumber successful data uploads to web: "
 7392      6265 7220 
 7392      7375 6363 
 7392      6573 7366 
 7392      756C 2064 
 7395               	__c.3278:
 7396 0143 4E75 6D62 		.string	"Number of data uploads started by ping: "
 7396      6572 206F 
 7396      6620 6461 
 7396      7461 2075 
 7396      706C 6F61 
 7399               	__c.3276:
 7400 016c 7761 6974 		.string	"waiting for DNS answer.\n"
 7400      696E 6720 
 7400      666F 7220 
 7400      444E 5320 
 7400      616E 7377 
 7403               	__c.3274:
 7404 0185 7761 6974 		.string	"waiting for GW IP to answer arp.\n"
 7404      696E 6720 
 7404      666F 7220 
 7404      4757 2049 
 7404      5020 746F 
 7407               	__c.3272:
 7408 01a7 3C68 323E 		.string	"<h2>web client status</h2>\n<pre>\n"
 7408      7765 6220 
 7408      636C 6965 
 7408      6E74 2073 
 7408      7461 7475 
 7411               	__c.3263:
 7412 01c9 4854 5450 		.string	"HTTP/1.0 200 OK\r\nContent-Type: text/html\r\nPragma: no-cache\r\n\r\n"
 7412      2F31 2E30 
 7412      2032 3030 
 7412      204F 4B0D 
 7412      0A43 6F6E 
 7413               		.lcomm dnstid_l,1
 7414               		.lcomm dns_ansError,1
 7415               		.lcomm haveDNSanswer,1
 7416               		.data
 7419               	dnsip:
 7420 0066 08        		.byte	8
 7421 0067 08        		.byte	8
 7422 0068 08        		.byte	8
 7423 0069 08        		.byte	8
 7424               		.lcomm waitgwmac,1
 7427               	delaycnt:
 7428 006a 0100      		.word	1
 7429               		.lcomm tcp_client_state,1
 7432               	tcpclient_src_port_l:
 7433 006c 01        		.byte	1
 7434               		.lcomm tcp_fd,1
 7435               		.lcomm tcp_client_port_h,1
 7436               		.lcomm tcp_client_port_l,1
 7437               		.lcomm bufptr,2
 7438               		.lcomm wwwport_h,1
 7441               	wwwport_l:
 7442 006d 50        		.byte	80
 7443               		.lcomm info_data_len,2
 7444               		.lcomm browsertype,1
 7445               		.lcomm www_fd,1
 7446               		.section	.progmem.data
 7449               	__c.2815:
 7450 0208 0D0A 436F 		.string	"\r\nContent-Type: application/x-www-form-urlencoded\r\n\r\n"
 7450      6E74 656E 
 7450      742D 5479 
 7450      7065 3A20 
 7450      6170 706C 
 7453               	__c.2813:
 7454 023e 436F 6E74 		.string	"Content-Length: "
 7454      656E 742D 
 7454      4C65 6E67 
 7454      7468 3A20 
 7454      00
 7457               	__c.2811:
 7458 024f 0D0A 5573 		.string	"\r\nUser-Agent: tgr/1.1\r\nAccept: */*\r\nConnection: close\r\n"
 7458      6572 2D41 
 7458      6765 6E74 
 7458      3A20 7467 
 7458      722F 312E 
 7461               	__c.2809:
 7462 0287 0D0A 00   		.string	"\r\n"
 7465               	__c.2807:
 7466 028a 2048 5454 		.string	" HTTP/1.1\r\nHost: "
 7466      502F 312E 
 7466      310D 0A48 
 7466      6F73 743A 
 7466      2000 
 7469               	__c.2805:
 7470 029c 504F 5354 		.string	"POST "
 7470      2000 
 7473               	__c.2803:
 7474 02a2 0D0A 5573 		.string	"\r\nUser-Agent: tgr/1.0\r\nAccept: text/html\r\nConnection: close\r\n\r\n"
 7474      6572 2D41 
 7474      6765 6E74 
 7474      3A20 7467 
 7474      722F 312E 
 7477               	__c.2801:
 7478 02e2 2048 5454 		.string	" HTTP/1.1\r\nHost: "
 7478      502F 312E 
 7478      310D 0A48 
 7478      6F73 743A 
 7478      2000 
 7481               	__c.2799:
 7482 02f4 4745 5420 		.string	"GET "
 7482      00
 7483               		.data
 7486               	seqnum:
 7487 006e 0A        		.byte	10
 7488               		.lcomm Enc28j60Bank,1
 7489               		.lcomm gNextPacketPtr,2
 7490               		.lcomm tcpsrvip,4
 7491               		.lcomm client_tcp_result_callback,2
 7492               		.lcomm client_tcp_datafill_callback,2
 7493               		.lcomm client_browser_callback,2
 7494               		.lcomm client_additionalheaderline,2
 7495               		.lcomm client_postval,2
 7496               		.lcomm client_urlbuf,2
 7497               		.lcomm client_urlbuf_var,2
 7498               		.lcomm client_hoststr,2
 7499               		.lcomm icmp_callback,2
 7500               		.lcomm gwmacaddr,6
 7501               		.lcomm macaddr,6
 7502               		.lcomm ipaddr,4
 7503               		.lcomm dns_answerip,4
 7504               		.lcomm urlvarstr,21
 7505               		.lcomm buf,651
 7506               		.lcomm pingsrcip,4
 8123               	.Letext0:
DEFINED SYMBOLS
                            *ABS*:00000000 main.c
C:\DOCUME~1\LAB\LOCALS~1\Temp/ccCcOopn.s:2      *ABS*:0000003f __SREG__
C:\DOCUME~1\LAB\LOCALS~1\Temp/ccCcOopn.s:3      *ABS*:0000003e __SP_H__
C:\DOCUME~1\LAB\LOCALS~1\Temp/ccCcOopn.s:4      *ABS*:0000003d __SP_L__
C:\DOCUME~1\LAB\LOCALS~1\Temp/ccCcOopn.s:5      *ABS*:00000034 __CCP__
C:\DOCUME~1\LAB\LOCALS~1\Temp/ccCcOopn.s:6      *ABS*:00000000 __tmp_reg__
C:\DOCUME~1\LAB\LOCALS~1\Temp/ccCcOopn.s:7      *ABS*:00000001 __zero_reg__
C:\DOCUME~1\LAB\LOCALS~1\Temp/ccCcOopn.s:18     .text:00000000 enc28j60ReadOp
C:\DOCUME~1\LAB\LOCALS~1\Temp/ccCcOopn.s:63     .text:00000024 enc28j60WriteOp
C:\DOCUME~1\LAB\LOCALS~1\Temp/ccCcOopn.s:95     .text:0000003a enc28j60ReadBuffer
C:\DOCUME~1\LAB\LOCALS~1\Temp/ccCcOopn.s:151    .text:0000006c enc28j60WriteBuffer
C:\DOCUME~1\LAB\LOCALS~1\Temp/ccCcOopn.s:199    .text:00000094 enc28j60SetBank
C:\DOCUME~1\LAB\LOCALS~1\Temp/ccCcOopn.s:7445   .bss:00000016 Enc28j60Bank
C:\DOCUME~1\LAB\LOCALS~1\Temp/ccCcOopn.s:279    .text:000000e2 enc28j60Read
C:\DOCUME~1\LAB\LOCALS~1\Temp/ccCcOopn.s:303    .text:000000f6 enc28j60Write
C:\DOCUME~1\LAB\LOCALS~1\Temp/ccCcOopn.s:349    .text:0000011c enc28j60PhyReadH
C:\DOCUME~1\LAB\LOCALS~1\Temp/ccCcOopn.s:404    .text:0000014e enc28j60PhyWrite
C:\DOCUME~1\LAB\LOCALS~1\Temp/ccCcOopn.s:469    .text:0000018a enc28j60clkout
C:\DOCUME~1\LAB\LOCALS~1\Temp/ccCcOopn.s:488    .text:00000196 enc28j60Init
C:\DOCUME~1\LAB\LOCALS~1\Temp/ccCcOopn.s:7488   .bss:00000017 gNextPacketPtr
C:\DOCUME~1\LAB\LOCALS~1\Temp/ccCcOopn.s:752    .text:00000306 enc28j60getrev
C:\DOCUME~1\LAB\LOCALS~1\Temp/ccCcOopn.s:767    .text:0000030e enc28j60linkup
C:\DOCUME~1\LAB\LOCALS~1\Temp/ccCcOopn.s:788    .text:00000320 enc28j60PacketSend
C:\DOCUME~1\LAB\LOCALS~1\Temp/ccCcOopn.s:990    .text:000003f8 enc28j60hasRxPkt
C:\DOCUME~1\LAB\LOCALS~1\Temp/ccCcOopn.s:1007   .text:00000404 enc28j60PacketReceive
C:\DOCUME~1\LAB\LOCALS~1\Temp/ccCcOopn.s:1212   .text:00000538 checksum
C:\DOCUME~1\LAB\LOCALS~1\Temp/ccCcOopn.s:1389   .text:0000062e init_ip_arp_udp_tcp
C:\DOCUME~1\LAB\LOCALS~1\Temp/ccCcOopn.s:7437   .bss:00000011 wwwport_h
C:\DOCUME~1\LAB\LOCALS~1\Temp/ccCcOopn.s:7441   .data:0000006d wwwport_l
C:\DOCUME~1\LAB\LOCALS~1\Temp/ccCcOopn.s:7501   .bss:0000003b ipaddr
C:\DOCUME~1\LAB\LOCALS~1\Temp/ccCcOopn.s:7500   .bss:00000035 macaddr
C:\DOCUME~1\LAB\LOCALS~1\Temp/ccCcOopn.s:1450   .text:0000067e check_ip_message_is_from
C:\DOCUME~1\LAB\LOCALS~1\Temp/ccCcOopn.s:1489   .text:000006aa eth_type_is_arp_and_my_ip
C:\DOCUME~1\LAB\LOCALS~1\Temp/ccCcOopn.s:1537   .text:000006e2 eth_type_is_ip_and_my_ip
C:\DOCUME~1\LAB\LOCALS~1\Temp/ccCcOopn.s:1590   .text:00000722 make_eth
C:\DOCUME~1\LAB\LOCALS~1\Temp/ccCcOopn.s:1621   .text:0000073c fill_ip_hdr_checksum
C:\DOCUME~1\LAB\LOCALS~1\Temp/ccCcOopn.s:1665   .text:0000076a make_ip
C:\DOCUME~1\LAB\LOCALS~1\Temp/ccCcOopn.s:1700   .text:0000078c step_seq
C:\DOCUME~1\LAB\LOCALS~1\Temp/ccCcOopn.s:1750   .text:000007b6 make_tcphead
C:\DOCUME~1\LAB\LOCALS~1\Temp/ccCcOopn.s:1799   .text:000007e4 make_arp_answer_from_request
C:\DOCUME~1\LAB\LOCALS~1\Temp/ccCcOopn.s:1884   .text:0000084c make_echo_reply_from_request
C:\DOCUME~1\LAB\LOCALS~1\Temp/ccCcOopn.s:1954   .text:0000089c make_udp_reply_from_request
C:\DOCUME~1\LAB\LOCALS~1\Temp/ccCcOopn.s:2084   .text:00000942 make_tcp_synack_from_syn
C:\DOCUME~1\LAB\LOCALS~1\Temp/ccCcOopn.s:7486   .data:0000006e seqnum
C:\DOCUME~1\LAB\LOCALS~1\Temp/ccCcOopn.s:2189   .text:000009c8 get_tcp_data_len
C:\DOCUME~1\LAB\LOCALS~1\Temp/ccCcOopn.s:2237   .text:000009fe fill_tcp_data_p
C:\DOCUME~1\LAB\LOCALS~1\Temp/ccCcOopn.s:2286   .text:00000a24 fill_tcp_data_len
C:\DOCUME~1\LAB\LOCALS~1\Temp/ccCcOopn.s:2328   .text:00000a4a make_tcp_ack_from_any
C:\DOCUME~1\LAB\LOCALS~1\Temp/ccCcOopn.s:2420   .text:00000ab8 make_tcp_ack_with_data_noflags
C:\DOCUME~1\LAB\LOCALS~1\Temp/ccCcOopn.s:2485   .text:00000b08 www_server_reply
C:\DOCUME~1\LAB\LOCALS~1\Temp/ccCcOopn.s:7438   .bss:00000012 info_data_len
C:\DOCUME~1\LAB\LOCALS~1\Temp/ccCcOopn.s:2525   .text:00000b3a fill_buf_p
C:\DOCUME~1\LAB\LOCALS~1\Temp/ccCcOopn.s:2564   .text:00000b52 send_udp_prepare
C:\DOCUME~1\LAB\LOCALS~1\Temp/ccCcOopn.s:7499   .bss:0000002f gwmacaddr
C:\DOCUME~1\LAB\LOCALS~1\Temp/ccCcOopn.s:7317   .progmem.data:00000008 iphdr
C:\DOCUME~1\LAB\LOCALS~1\Temp/ccCcOopn.s:2710   .text:00000bfc send_udp_transmit
C:\DOCUME~1\LAB\LOCALS~1\Temp/ccCcOopn.s:2767   .text:00000c46 send_udp
C:\DOCUME~1\LAB\LOCALS~1\Temp/ccCcOopn.s:2846   .text:00000ca6 client_arp_whohas
C:\DOCUME~1\LAB\LOCALS~1\Temp/ccCcOopn.s:7305   .progmem.data:00000000 arpreqhdr
C:\DOCUME~1\LAB\LOCALS~1\Temp/ccCcOopn.s:7415   .bss:0000000a waitgwmac
C:\DOCUME~1\LAB\LOCALS~1\Temp/ccCcOopn.s:2974   .text:00000d46 client_waiting_gw
C:\DOCUME~1\LAB\LOCALS~1\Temp/ccCcOopn.s:2991   .text:00000d52 client_store_gw_mac
C:\DOCUME~1\LAB\LOCALS~1\Temp/ccCcOopn.s:7346   .data:00000062 gwip
C:\DOCUME~1\LAB\LOCALS~1\Temp/ccCcOopn.s:3046   .text:00000d94 client_gw_arp_refresh
C:\DOCUME~1\LAB\LOCALS~1\Temp/ccCcOopn.s:3064   .text:00000da4 client_set_gwip
C:\DOCUME~1\LAB\LOCALS~1\Temp/ccCcOopn.s:3100   .text:00000dcc client_tcp_set_serverip
C:\DOCUME~1\LAB\LOCALS~1\Temp/ccCcOopn.s:7489   .bss:00000019 tcpsrvip
C:\DOCUME~1\LAB\LOCALS~1\Temp/ccCcOopn.s:3134   .text:00000dee client_syn
C:\DOCUME~1\LAB\LOCALS~1\Temp/ccCcOopn.s:3339   .text:00000ef2 client_tcp_req
C:\DOCUME~1\LAB\LOCALS~1\Temp/ccCcOopn.s:7490   .bss:0000001d client_tcp_result_callback
C:\DOCUME~1\LAB\LOCALS~1\Temp/ccCcOopn.s:7491   .bss:0000001f client_tcp_datafill_callback
C:\DOCUME~1\LAB\LOCALS~1\Temp/ccCcOopn.s:7434   .bss:0000000d tcp_client_port_h
C:\DOCUME~1\LAB\LOCALS~1\Temp/ccCcOopn.s:7435   .bss:0000000e tcp_client_port_l
C:\DOCUME~1\LAB\LOCALS~1\Temp/ccCcOopn.s:7424   .bss:0000000b tcp_client_state
C:\DOCUME~1\LAB\LOCALS~1\Temp/ccCcOopn.s:7429   .bss:0000000c tcp_fd
C:\DOCUME~1\LAB\LOCALS~1\Temp/ccCcOopn.s:3378   .text:00000f28 client_browse_url
C:\DOCUME~1\LAB\LOCALS~1\Temp/ccCcOopn.s:7495   .bss:00000027 client_urlbuf
C:\DOCUME~1\LAB\LOCALS~1\Temp/ccCcOopn.s:7496   .bss:00000029 client_urlbuf_var
C:\DOCUME~1\LAB\LOCALS~1\Temp/ccCcOopn.s:7497   .bss:0000002b client_hoststr
C:\DOCUME~1\LAB\LOCALS~1\Temp/ccCcOopn.s:7443   .bss:00000014 browsertype
C:\DOCUME~1\LAB\LOCALS~1\Temp/ccCcOopn.s:7492   .bss:00000021 client_browser_callback
C:\DOCUME~1\LAB\LOCALS~1\Temp/ccCcOopn.s:5064   .text:000017b4 www_client_internal_result_callback
C:\DOCUME~1\LAB\LOCALS~1\Temp/ccCcOopn.s:6595   .text:00001f02 www_client_internal_datafill_callback
C:\DOCUME~1\LAB\LOCALS~1\Temp/ccCcOopn.s:7444   .bss:00000015 www_fd
C:\DOCUME~1\LAB\LOCALS~1\Temp/ccCcOopn.s:3441   .text:00000f90 client_http_post
C:\DOCUME~1\LAB\LOCALS~1\Temp/ccCcOopn.s:7493   .bss:00000023 client_additionalheaderline
C:\DOCUME~1\LAB\LOCALS~1\Temp/ccCcOopn.s:7494   .bss:00000025 client_postval
C:\DOCUME~1\LAB\LOCALS~1\Temp/ccCcOopn.s:3515   .text:00001008 register_ping_rec_callback
C:\DOCUME~1\LAB\LOCALS~1\Temp/ccCcOopn.s:7498   .bss:0000002d icmp_callback
C:\DOCUME~1\LAB\LOCALS~1\Temp/ccCcOopn.s:3531   .text:00001012 packetloop_icmp_tcp
C:\DOCUME~1\LAB\LOCALS~1\Temp/ccCcOopn.s:7427   .data:0000006a delaycnt
C:\DOCUME~1\LAB\LOCALS~1\Temp/ccCcOopn.s:7432   .data:0000006c tcpclient_src_port_l
C:\DOCUME~1\LAB\LOCALS~1\Temp/ccCcOopn.s:7436   .bss:0000000f bufptr
C:\DOCUME~1\LAB\LOCALS~1\Temp/ccCcOopn.s:4141   .text:000013ce find_key_val
C:\DOCUME~1\LAB\LOCALS~1\Temp/ccCcOopn.s:4282   .text:00001466 h2int
C:\DOCUME~1\LAB\LOCALS~1\Temp/ccCcOopn.s:4320   .text:0000148a urldecode
C:\DOCUME~1\LAB\LOCALS~1\Temp/ccCcOopn.s:4450   .text:00001510 int2h
C:\DOCUME~1\LAB\LOCALS~1\Temp/ccCcOopn.s:4501   .text:00001544 dnslkup_haveanswer
C:\DOCUME~1\LAB\LOCALS~1\Temp/ccCcOopn.s:7414   .bss:00000009 haveDNSanswer
C:\DOCUME~1\LAB\LOCALS~1\Temp/ccCcOopn.s:4514   .text:0000154a dnslkup_get_error_info
C:\DOCUME~1\LAB\LOCALS~1\Temp/ccCcOopn.s:7413   .bss:00000008 dns_ansError
C:\DOCUME~1\LAB\LOCALS~1\Temp/ccCcOopn.s:4527   .text:00001550 dnslkup_getip
C:\DOCUME~1\LAB\LOCALS~1\Temp/ccCcOopn.s:7502   .bss:0000003f dns_answerip
C:\DOCUME~1\LAB\LOCALS~1\Temp/ccCcOopn.s:4541   .text:00001556 dnslkup_request
C:\DOCUME~1\LAB\LOCALS~1\Temp/ccCcOopn.s:7379   .bss:00000007 dnstid_l
C:\DOCUME~1\LAB\LOCALS~1\Temp/ccCcOopn.s:7419   .data:00000066 dnsip
C:\DOCUME~1\LAB\LOCALS~1\Temp/ccCcOopn.s:4715   .text:00001628 udp_client_check_for_dns_answer
C:\DOCUME~1\LAB\LOCALS~1\Temp/ccCcOopn.s:4853   .text:000016da http200ok
C:\DOCUME~1\LAB\LOCALS~1\Temp/ccCcOopn.s:7504   .bss:00000058 buf
C:\DOCUME~1\LAB\LOCALS~1\Temp/ccCcOopn.s:7411   .progmem.data:000001c9 __c.3263
C:\DOCUME~1\LAB\LOCALS~1\Temp/ccCcOopn.s:4901   .text:000016fc trigger
C:\DOCUME~1\LAB\LOCALS~1\Temp/ccCcOopn.s:7352   .bss:00000002 start_web_client
C:\DOCUME~1\LAB\LOCALS~1\Temp/ccCcOopn.s:4919   .text:0000170c init_cnt2
C:\DOCUME~1\LAB\LOCALS~1\Temp/ccCcOopn.s:7377   .bss:00000005 cnt2step
C:\DOCUME~1\LAB\LOCALS~1\Temp/ccCcOopn.s:4941   .text:0000171c __vector_9
C:\DOCUME~1\LAB\LOCALS~1\Temp/ccCcOopn.s:7351   .bss:00000001 sec
C:\DOCUME~1\LAB\LOCALS~1\Temp/ccCcOopn.s:7378   .bss:00000006 tick
C:\DOCUME~1\LAB\LOCALS~1\Temp/ccCcOopn.s:5001   .text:00001778 ping_callback
C:\DOCUME~1\LAB\LOCALS~1\Temp/ccCcOopn.s:7505   .bss:000002e3 pingsrcip
C:\DOCUME~1\LAB\LOCALS~1\Temp/ccCcOopn.s:5037   .text:000017a2 browserresult_callback
C:\DOCUME~1\LAB\LOCALS~1\Temp/ccCcOopn.s:7354   .bss:00000004 web_client_sendok
C:\DOCUME~1\LAB\LOCALS~1\Temp/ccCcOopn.s:5177   .text:0000185c mk_net_str
C:\DOCUME~1\LAB\LOCALS~1\Temp/ccCcOopn.s:5273   .text:000018ce parse_ip
C:\DOCUME~1\LAB\LOCALS~1\Temp/ccCcOopn.s:5381   .text:00001952 urlencode
C:\DOCUME~1\LAB\LOCALS~1\Temp/ccCcOopn.s:5465   .text:000019b8 fill_tcp_data
C:\DOCUME~1\LAB\LOCALS~1\Temp/ccCcOopn.s:5528   .text:000019fa print_webpage
C:\DOCUME~1\LAB\LOCALS~1\Temp/ccCcOopn.s:7407   .progmem.data:000001a7 __c.3272
C:\DOCUME~1\LAB\LOCALS~1\Temp/ccCcOopn.s:7403   .progmem.data:00000185 __c.3274
                             .bss:00000000 dns_state
C:\DOCUME~1\LAB\LOCALS~1\Temp/ccCcOopn.s:7395   .progmem.data:00000143 __c.3278
C:\DOCUME~1\LAB\LOCALS~1\Temp/ccCcOopn.s:7399   .progmem.data:0000016c __c.3276
C:\DOCUME~1\LAB\LOCALS~1\Temp/ccCcOopn.s:7353   .bss:00000003 web_client_attempts
C:\DOCUME~1\LAB\LOCALS~1\Temp/ccCcOopn.s:7391   .progmem.data:0000011a __c.3280
C:\DOCUME~1\LAB\LOCALS~1\Temp/ccCcOopn.s:7386   .progmem.data:000000b7 __c.3282
C:\DOCUME~1\LAB\LOCALS~1\Temp/ccCcOopn.s:7382   .progmem.data:000000a7 __c.3284
C:\DOCUME~1\LAB\LOCALS~1\Temp/ccCcOopn.s:5978   .text:00001bd4 main
C:\DOCUME~1\LAB\LOCALS~1\Temp/ccCcOopn.s:7330   .data:00000058 mymac
C:\DOCUME~1\LAB\LOCALS~1\Temp/ccCcOopn.s:7339   .data:0000005e myip
C:\DOCUME~1\LAB\LOCALS~1\Temp/ccCcOopn.s:7371   .progmem.data:00000082 __c.3357
C:\DOCUME~1\LAB\LOCALS~1\Temp/ccCcOopn.s:7503   .bss:00000043 urlvarstr
C:\DOCUME~1\LAB\LOCALS~1\Temp/ccCcOopn.s:7367   .progmem.data:00000071 __c.3359
C:\DOCUME~1\LAB\LOCALS~1\Temp/ccCcOopn.s:7375   .progmem.data:00000096 __c.3355
C:\DOCUME~1\LAB\LOCALS~1\Temp/ccCcOopn.s:7363   .progmem.data:00000061 __c.3361
C:\DOCUME~1\LAB\LOCALS~1\Temp/ccCcOopn.s:7358   .progmem.data:00000011 __c.3364
C:\DOCUME~1\LAB\LOCALS~1\Temp/ccCcOopn.s:7481   .progmem.data:000002f4 __c.2799
C:\DOCUME~1\LAB\LOCALS~1\Temp/ccCcOopn.s:7477   .progmem.data:000002e2 __c.2801
C:\DOCUME~1\LAB\LOCALS~1\Temp/ccCcOopn.s:7473   .progmem.data:000002a2 __c.2803
C:\DOCUME~1\LAB\LOCALS~1\Temp/ccCcOopn.s:7469   .progmem.data:0000029c __c.2805
C:\DOCUME~1\LAB\LOCALS~1\Temp/ccCcOopn.s:7465   .progmem.data:0000028a __c.2807
C:\DOCUME~1\LAB\LOCALS~1\Temp/ccCcOopn.s:7461   .progmem.data:00000287 __c.2809
C:\DOCUME~1\LAB\LOCALS~1\Temp/ccCcOopn.s:7457   .progmem.data:0000024f __c.2811
C:\DOCUME~1\LAB\LOCALS~1\Temp/ccCcOopn.s:7453   .progmem.data:0000023e __c.2813
C:\DOCUME~1\LAB\LOCALS~1\Temp/ccCcOopn.s:7449   .progmem.data:00000208 __c.2815

UNDEFINED SYMBOLS
strncmp
itoa
atoi
isalnum
strcpy
__do_copy_data
__do_clear_bss
