   1               		.file	"main.c"
   2               	__SREG__ = 0x3f
   3               	__SP_H__ = 0x3e
   4               	__SP_L__ = 0x3d
   5               	__CCP__  = 0x34
   6               	__tmp_reg__ = 0
   7               	__zero_reg__ = 1
  15               	.Ltext0:
  16               	.global	enc28j60ReadOp
  18               	enc28j60ReadOp:
  19               	.LFB6:
  20               	.LM1:
  21               	.LVL0:
  22               	/* prologue: function */
  23               	/* frame size = 0 */
  24               	.LM2:
  25 0000 C498      		cbi 56-32,4
  26               	.LM3:
  27 0002 962F      		mov r25,r22
  28 0004 9F71      		andi r25,lo8(31)
  29 0006 982B      		or r25,r24
  30 0008 9FB9      		out 47-32,r25
  31               	.L2:
  32               	.LM4:
  33 000a 779B      		sbis 46-32,7
  34 000c 00C0      		rjmp .L2
  35               	.LM5:
  36 000e 1FB8      		out 47-32,__zero_reg__
  37               	.L3:
  38               	.LM6:
  39 0010 779B      		sbis 46-32,7
  40 0012 00C0      		rjmp .L3
  41               	.LM7:
  42 0014 67FF      		sbrs r22,7
  43 0016 00C0      		rjmp .L4
  44               	.LM8:
  45 0018 1FB8      		out 47-32,__zero_reg__
  46               	.L5:
  47               	.LM9:
  48 001a 779B      		sbis 46-32,7
  49 001c 00C0      		rjmp .L5
  50               	.L4:
  51               	.LM10:
  52 001e C49A      		sbi 56-32,4
  53               	.LM11:
  54 0020 8FB1      		in r24,47-32
  55               	.LVL1:
  56               	/* epilogue start */
  57               	.LM12:
  58 0022 0895      		ret
  59               	.LFE6:
  61               	.global	enc28j60WriteOp
  63               	enc28j60WriteOp:
  64               	.LFB7:
  65               	.LM13:
  66               	.LVL2:
  67               	/* prologue: function */
  68               	/* frame size = 0 */
  69               	.LM14:
  70 0024 C498      		cbi 56-32,4
  71               	.LM15:
  72 0026 6F71      		andi r22,lo8(31)
  73               	.LVL3:
  74 0028 682B      		or r22,r24
  75 002a 6FB9      		out 47-32,r22
  76               	.L11:
  77               	.LM16:
  78 002c 779B      		sbis 46-32,7
  79 002e 00C0      		rjmp .L11
  80               	.LM17:
  81 0030 4FB9      		out 47-32,r20
  82               	.L12:
  83               	.LM18:
  84 0032 779B      		sbis 46-32,7
  85 0034 00C0      		rjmp .L12
  86               	.LM19:
  87 0036 C49A      		sbi 56-32,4
  88               	/* epilogue start */
  89               	.LM20:
  90 0038 0895      		ret
  91               	.LFE7:
  93               	.global	enc28j60ReadBuffer
  95               	enc28j60ReadBuffer:
  96               	.LFB8:
  97               	.LM21:
  98               	.LVL4:
  99               	/* prologue: function */
 100               	/* frame size = 0 */
 101 003a AC01      		movw r20,r24
 102 003c FB01      		movw r30,r22
 103               	.LM22:
 104 003e C498      		cbi 56-32,4
 105               	.LM23:
 106 0040 8AE3      		ldi r24,lo8(58)
 107               	.LVL5:
 108 0042 8FB9      		out 47-32,r24
 109               	.LVL6:
 110               	.L17:
 111               	.LM24:
 112 0044 779B      		sbis 46-32,7
 113 0046 00C0      		rjmp .L17
 114 0048 9A01      		movw r18,r20
 115 004a DF01      		movw r26,r30
 116 004c 00C0      		rjmp .L18
 117               	.LVL7:
 118               	.L20:
 119               	.LM25:
 120 004e 1FB8      		out 47-32,__zero_reg__
 121               	.L19:
 122               	.LM26:
 123 0050 779B      		sbis 46-32,7
 124 0052 00C0      		rjmp .L19
 125               	.LM27:
 126 0054 2150      		subi r18,lo8(-(-1))
 127 0056 3040      		sbci r19,hi8(-(-1))
 128               	.LM28:
 129 0058 8FB1      		in r24,47-32
 130 005a 8D93      		st X+,r24
 131               	.LVL8:
 132               	.L18:
 133               	.LM29:
 134 005c 2115      		cp r18,__zero_reg__
 135 005e 3105      		cpc r19,__zero_reg__
 136 0060 01F4      		brne .L20
 137               	.LM30:
 138 0062 E40F      		add r30,r20
 139 0064 F51F      		adc r31,r21
 140               	.LVL9:
 141 0066 1082      		st Z,__zero_reg__
 142               	.LM31:
 143 0068 C49A      		sbi 56-32,4
 144               	/* epilogue start */
 145               	.LM32:
 146 006a 0895      		ret
 147               	.LFE8:
 149               	.global	enc28j60WriteBuffer
 151               	enc28j60WriteBuffer:
 152               	.LFB9:
 153               	.LM33:
 154               	.LVL10:
 155               	/* prologue: function */
 156               	/* frame size = 0 */
 157 006c 9C01      		movw r18,r24
 158 006e FB01      		movw r30,r22
 159               	.LM34:
 160 0070 C498      		cbi 56-32,4
 161               	.LM35:
 162 0072 8AE7      		ldi r24,lo8(122)
 163               	.LVL11:
 164 0074 8FB9      		out 47-32,r24
 165               	.LVL12:
 166               	.L25:
 167               	.LM36:
 168 0076 779B      		sbis 46-32,7
 169 0078 00C0      		rjmp .L25
 170 007a 00C0      		rjmp .L32
 171               	.L28:
 172               	.LM37:
 173 007c 8081      		ld r24,Z
 174 007e 8FB9      		out 47-32,r24
 175               	.L27:
 176               	.LM38:
 177 0080 779B      		sbis 46-32,7
 178 0082 00C0      		rjmp .L27
 179               	.LM39:
 180 0084 2150      		subi r18,lo8(-(-1))
 181 0086 3040      		sbci r19,hi8(-(-1))
 182               	.LM40:
 183 0088 3196      		adiw r30,1
 184               	.LVL13:
 185               	.L32:
 186               	.LM41:
 187 008a 2115      		cp r18,__zero_reg__
 188 008c 3105      		cpc r19,__zero_reg__
 189 008e 01F4      		brne .L28
 190               	.LM42:
 191 0090 C49A      		sbi 56-32,4
 192               	/* epilogue start */
 193               	.LM43:
 194 0092 0895      		ret
 195               	.LFE9:
 197               	.global	enc28j60SetBank
 199               	enc28j60SetBank:
 200               	.LFB10:
 201               	.LM44:
 202               	.LVL14:
 203               	/* prologue: function */
 204               	/* frame size = 0 */
 205 0094 482F      		mov r20,r24
 206               	.LM45:
 207 0096 282F      		mov r18,r24
 208 0098 30E0      		ldi r19,lo8(0)
 209 009a 2076      		andi r18,lo8(96)
 210 009c 3070      		andi r19,hi8(96)
 211 009e 8091 0000 		lds r24,Enc28j60Bank
 212               	.LVL15:
 213 00a2 90E0      		ldi r25,lo8(0)
 214 00a4 2817      		cp r18,r24
 215 00a6 3907      		cpc r19,r25
 216 00a8 01F0      		breq .L39
 217               	.LBB246:
 218               	.LBB247:
 219               	.LM46:
 220 00aa C498      		cbi 56-32,4
 221               	.LM47:
 222 00ac 8FEB      		ldi r24,lo8(-65)
 223 00ae 8FB9      		out 47-32,r24
 224               	.L35:
 225               	.LM48:
 226 00b0 779B      		sbis 46-32,7
 227 00b2 00C0      		rjmp .L35
 228               	.LM49:
 229 00b4 83E0      		ldi r24,lo8(3)
 230 00b6 8FB9      		out 47-32,r24
 231               	.L36:
 232               	.LM50:
 233 00b8 779B      		sbis 46-32,7
 234 00ba 00C0      		rjmp .L36
 235               	.LM51:
 236 00bc C49A      		sbi 56-32,4
 237               	.LBE247:
 238               	.LBE246:
 239               	.LBB248:
 240               	.LBB249:
 241               	.LM52:
 242 00be C498      		cbi 56-32,4
 243               	.LM53:
 244 00c0 8FE9      		ldi r24,lo8(-97)
 245 00c2 8FB9      		out 47-32,r24
 246               	.L37:
 247               	.LM54:
 248 00c4 779B      		sbis 46-32,7
 249 00c6 00C0      		rjmp .L37
 250               	.LBE249:
 251               	.LBE248:
 252               	.LM55:
 253 00c8 85E0      		ldi r24,5
 254 00ca 3595      	1:	asr r19
 255 00cc 2795      		ror r18
 256 00ce 8A95      		dec r24
 257 00d0 01F4      		brne 1b
 258               	.LBB251:
 259               	.LBB250:
 260               	.LM56:
 261 00d2 2FB9      		out 47-32,r18
 262               	.L38:
 263               	.LM57:
 264 00d4 779B      		sbis 46-32,7
 265 00d6 00C0      		rjmp .L38
 266               	.LM58:
 267 00d8 C49A      		sbi 56-32,4
 268               	.LBE250:
 269               	.LBE251:
 270               	.LM59:
 271 00da 4076      		andi r20,lo8(96)
 272 00dc 4093 0000 		sts Enc28j60Bank,r20
 273               	.L39:
 274 00e0 0895      		ret
 275               	.LFE10:
 277               	.global	enc28j60Read
 279               	enc28j60Read:
 280               	.LFB11:
 281               	.LM60:
 282               	.LVL16:
 283 00e2 1F93      		push r17
 284               	/* prologue: function */
 285               	/* frame size = 0 */
 286 00e4 182F      		mov r17,r24
 287               	.LM61:
 288 00e6 0E94 0000 		call enc28j60SetBank
 289               	.LVL17:
 290               	.LM62:
 291 00ea 80E0      		ldi r24,lo8(0)
 292 00ec 612F      		mov r22,r17
 293 00ee 0E94 0000 		call enc28j60ReadOp
 294               	/* epilogue start */
 295               	.LM63:
 296 00f2 1F91      		pop r17
 297               	.LVL18:
 298 00f4 0895      		ret
 299               	.LFE11:
 301               	.global	enc28j60Write
 303               	enc28j60Write:
 304               	.LFB13:
 305               	.LM64:
 306               	.LVL19:
 307 00f6 0F93      		push r16
 308 00f8 1F93      		push r17
 309               	/* prologue: function */
 310               	/* frame size = 0 */
 311 00fa 182F      		mov r17,r24
 312 00fc 062F      		mov r16,r22
 313               	.LM65:
 314 00fe 0E94 0000 		call enc28j60SetBank
 315               	.LVL20:
 316               	.LBB252:
 317               	.LBB253:
 318               	.LM66:
 319 0102 C498      		cbi 56-32,4
 320               	.LM67:
 321 0104 1F71      		andi r17,lo8(31)
 322 0106 1064      		ori r17,lo8(64)
 323 0108 1FB9      		out 47-32,r17
 324               	.L47:
 325               	.LM68:
 326 010a 779B      		sbis 46-32,7
 327 010c 00C0      		rjmp .L47
 328               	.LM69:
 329 010e 0FB9      		out 47-32,r16
 330               	.L48:
 331               	.LM70:
 332 0110 779B      		sbis 46-32,7
 333 0112 00C0      		rjmp .L48
 334               	.LM71:
 335 0114 C49A      		sbi 56-32,4
 336               	/* epilogue start */
 337               	.LBE253:
 338               	.LBE252:
 339               	.LM72:
 340 0116 1F91      		pop r17
 341               	.LVL21:
 342 0118 0F91      		pop r16
 343               	.LVL22:
 344 011a 0895      		ret
 345               	.LFE13:
 347               	.global	enc28j60PhyReadH
 349               	enc28j60PhyReadH:
 350               	.LFB12:
 351               	.LM73:
 352               	.LVL23:
 353               	/* prologue: function */
 354               	/* frame size = 0 */
 355 011c 682F      		mov r22,r24
 356               	.LM74:
 357 011e 84ED      		ldi r24,lo8(-44)
 358               	.LVL24:
 359 0120 0E94 0000 		call enc28j60Write
 360               	.LVL25:
 361               	.LM75:
 362 0124 82ED      		ldi r24,lo8(-46)
 363 0126 61E0      		ldi r22,lo8(1)
 364 0128 0E94 0000 		call enc28j60Write
 365               	.LBB254:
 366               	.LBB255:
 367               	.LBB256:
 368               	.LBB257:
 369               	.LM76:
 370 012c 80E5      		ldi r24,lo8(80)
 371               	.LVL26:
 372               	/* #APP */
 373               	 ;  83 "c:/winavr/lib/gcc/../../avr/include/util/delay_basic.h" 1
 374 012e 8A95      		1: dec r24
 375 0130 01F4      		brne 1b
 376               	 ;  0 "" 2
 377               	/* #NOAPP */
 378               	.L53:
 379               	.LBE257:
 380               	.LBE256:
 381               	.LBE255:
 382               	.LBE254:
 383               	.LM77:
 384 0132 8AEE      		ldi r24,lo8(-22)
 385               	.LVL27:
 386 0134 0E94 0000 		call enc28j60Read
 387 0138 80FD      		sbrc r24,0
 388 013a 00C0      		rjmp .L53
 389               	.LM78:
 390 013c 82ED      		ldi r24,lo8(-46)
 391 013e 60E0      		ldi r22,lo8(0)
 392 0140 0E94 0000 		call enc28j60Write
 393               	.LM79:
 394 0144 89ED      		ldi r24,lo8(-39)
 395 0146 0E94 0000 		call enc28j60Read
 396               	.LM80:
 397 014a 90E0      		ldi r25,lo8(0)
 398               	/* epilogue start */
 399 014c 0895      		ret
 400               	.LFE12:
 402               	.global	enc28j60PhyWrite
 404               	enc28j60PhyWrite:
 405               	.LFB14:
 406               	.LM81:
 407               	.LVL28:
 408 014e 0F93      		push r16
 409 0150 1F93      		push r17
 410               	/* prologue: function */
 411               	/* frame size = 0 */
 412 0152 982F      		mov r25,r24
 413 0154 162F      		mov r17,r22
 414 0156 072F      		mov r16,r23
 415               	.LVL29:
 416               	.LM82:
 417 0158 84ED      		ldi r24,lo8(-44)
 418               	.LVL30:
 419 015a 692F      		mov r22,r25
 420               	.LVL31:
 421 015c 0E94 0000 		call enc28j60Write
 422               	.LVL32:
 423               	.LM83:
 424 0160 86ED      		ldi r24,lo8(-42)
 425 0162 612F      		mov r22,r17
 426 0164 0E94 0000 		call enc28j60Write
 427               	.LM84:
 428 0168 87ED      		ldi r24,lo8(-41)
 429 016a 602F      		mov r22,r16
 430 016c 0E94 0000 		call enc28j60Write
 431               	.LBB258:
 432               	.LBB259:
 433               	.LBB260:
 434               	.LBB261:
 435               	.LM85:
 436 0170 10E5      		ldi r17,lo8(80)
 437               	.LVL33:
 438 0172 00C0      		rjmp .L57
 439               	.L58:
 440 0174 812F      		mov r24,r17
 441               	.LVL34:
 442               	/* #APP */
 443               	 ;  83 "c:/winavr/lib/gcc/../../avr/include/util/delay_basic.h" 1
 444 0176 8A95      		1: dec r24
 445 0178 01F4      		brne 1b
 446               	 ;  0 "" 2
 447               	/* #NOAPP */
 448               	.L57:
 449               	.LBE261:
 450               	.LBE260:
 451               	.LBE259:
 452               	.LBE258:
 453               	.LM86:
 454 017a 8AEE      		ldi r24,lo8(-22)
 455               	.LVL35:
 456 017c 0E94 0000 		call enc28j60Read
 457 0180 80FD      		sbrc r24,0
 458 0182 00C0      		rjmp .L58
 459               	/* epilogue start */
 460               	.LM87:
 461 0184 1F91      		pop r17
 462 0186 0F91      		pop r16
 463               	.LVL36:
 464 0188 0895      		ret
 465               	.LFE14:
 467               	.global	enc28j60clkout
 469               	enc28j60clkout:
 470               	.LFB15:
 471               	.LM88:
 472               	.LVL37:
 473               	/* prologue: function */
 474               	/* frame size = 0 */
 475               	.LM89:
 476 018a 682F      		mov r22,r24
 477 018c 6770      		andi r22,lo8(7)
 478 018e 85E7      		ldi r24,lo8(117)
 479               	.LVL38:
 480 0190 0E94 0000 		call enc28j60Write
 481               	/* epilogue start */
 482               	.LM90:
 483 0194 0895      		ret
 484               	.LFE15:
 486               	.global	enc28j60Init
 488               	enc28j60Init:
 489               	.LFB16:
 490               	.LM91:
 491               	.LVL39:
 492 0196 CF93      		push r28
 493 0198 DF93      		push r29
 494               	/* prologue: function */
 495               	/* frame size = 0 */
 496 019a EC01      		movw r28,r24
 497               	.LM92:
 498 019c BC9A      		sbi 55-32,4
 499               	.LM93:
 500 019e C49A      		sbi 56-32,4
 501               	.LM94:
 502 01a0 87B3      		in r24,55-32
 503               	.LVL40:
 504 01a2 806A      		ori r24,lo8(-96)
 505 01a4 87BB      		out 55-32,r24
 506               	.LM95:
 507 01a6 BE98      		cbi 55-32,6
 508               	.LM96:
 509 01a8 C598      		cbi 56-32,5
 510               	.LM97:
 511 01aa C798      		cbi 56-32,7
 512               	.LM98:
 513 01ac 81E5      		ldi r24,lo8(81)
 514 01ae 8DB9      		out 45-32,r24
 515               	.LM99:
 516 01b0 709A      		sbi 46-32,0
 517               	.LBB262:
 518               	.LBB263:
 519               	.LM100:
 520 01b2 C498      		cbi 56-32,4
 521               	.LM101:
 522 01b4 8FEF      		ldi r24,lo8(-1)
 523 01b6 8FB9      		out 47-32,r24
 524               	.L63:
 525               	.LM102:
 526 01b8 779B      		sbis 46-32,7
 527 01ba 00C0      		rjmp .L63
 528               	.LM103:
 529 01bc 8FEF      		ldi r24,lo8(-1)
 530 01be 8FB9      		out 47-32,r24
 531               	.L64:
 532               	.LM104:
 533 01c0 779B      		sbis 46-32,7
 534 01c2 00C0      		rjmp .L64
 535               	.LM105:
 536 01c4 C49A      		sbi 56-32,4
 537               	.LBE263:
 538               	.LBE262:
 539               	.LBB264:
 540               	.LBB265:
 541               	.LM106:
 542 01c6 8DEC      		ldi r24,lo8(-51)
 543               	.LVL41:
 544               	/* #APP */
 545               	 ;  83 "c:/winavr/lib/gcc/../../avr/include/util/delay_basic.h" 1
 546 01c8 8A95      		1: dec r24
 547 01ca 01F4      		brne 1b
 548               	 ;  0 "" 2
 549               	/* #NOAPP */
 550               	.LBE265:
 551               	.LBE264:
 552               	.LM107:
 553 01cc 1092 0000 		sts (gNextPacketPtr)+1,__zero_reg__
 554 01d0 1092 0000 		sts gNextPacketPtr,__zero_reg__
 555               	.LM108:
 556 01d4 88E0      		ldi r24,lo8(8)
 557               	.LVL42:
 558 01d6 60E0      		ldi r22,lo8(0)
 559 01d8 0E94 0000 		call enc28j60Write
 560               	.LM109:
 561 01dc 89E0      		ldi r24,lo8(9)
 562 01de 60E0      		ldi r22,lo8(0)
 563 01e0 0E94 0000 		call enc28j60Write
 564               	.LM110:
 565 01e4 8CE0      		ldi r24,lo8(12)
 566 01e6 60E0      		ldi r22,lo8(0)
 567 01e8 0E94 0000 		call enc28j60Write
 568               	.LM111:
 569 01ec 8DE0      		ldi r24,lo8(13)
 570 01ee 60E0      		ldi r22,lo8(0)
 571 01f0 0E94 0000 		call enc28j60Write
 572               	.LM112:
 573 01f4 8AE0      		ldi r24,lo8(10)
 574 01f6 6EEF      		ldi r22,lo8(-2)
 575 01f8 0E94 0000 		call enc28j60Write
 576               	.LM113:
 577 01fc 8BE0      		ldi r24,lo8(11)
 578 01fe 69E1      		ldi r22,lo8(25)
 579 0200 0E94 0000 		call enc28j60Write
 580               	.LM114:
 581 0204 84E0      		ldi r24,lo8(4)
 582 0206 6FEF      		ldi r22,lo8(-1)
 583 0208 0E94 0000 		call enc28j60Write
 584               	.LM115:
 585 020c 85E0      		ldi r24,lo8(5)
 586 020e 69E1      		ldi r22,lo8(25)
 587 0210 0E94 0000 		call enc28j60Write
 588               	.LM116:
 589 0214 86E0      		ldi r24,lo8(6)
 590 0216 6FEF      		ldi r22,lo8(-1)
 591 0218 0E94 0000 		call enc28j60Write
 592               	.LM117:
 593 021c 87E0      		ldi r24,lo8(7)
 594 021e 6FE1      		ldi r22,lo8(31)
 595 0220 0E94 0000 		call enc28j60Write
 596               	.LM118:
 597 0224 88E3      		ldi r24,lo8(56)
 598 0226 60EB      		ldi r22,lo8(-80)
 599 0228 0E94 0000 		call enc28j60Write
 600               	.LM119:
 601 022c 88E2      		ldi r24,lo8(40)
 602 022e 6FE3      		ldi r22,lo8(63)
 603 0230 0E94 0000 		call enc28j60Write
 604               	.LM120:
 605 0234 89E2      		ldi r24,lo8(41)
 606 0236 60E3      		ldi r22,lo8(48)
 607 0238 0E94 0000 		call enc28j60Write
 608               	.LM121:
 609 023c 80E3      		ldi r24,lo8(48)
 610 023e 69EF      		ldi r22,lo8(-7)
 611 0240 0E94 0000 		call enc28j60Write
 612               	.LM122:
 613 0244 81E3      		ldi r24,lo8(49)
 614 0246 67EF      		ldi r22,lo8(-9)
 615 0248 0E94 0000 		call enc28j60Write
 616               	.LM123:
 617 024c 80EC      		ldi r24,lo8(-64)
 618 024e 6DE0      		ldi r22,lo8(13)
 619 0250 0E94 0000 		call enc28j60Write
 620               	.LM124:
 621 0254 81EC      		ldi r24,lo8(-63)
 622 0256 60E0      		ldi r22,lo8(0)
 623 0258 0E94 0000 		call enc28j60Write
 624               	.LBB266:
 625               	.LBB267:
 626               	.LM125:
 627 025c C498      		cbi 56-32,4
 628               	.LM126:
 629 025e 82E8      		ldi r24,lo8(-126)
 630 0260 8FB9      		out 47-32,r24
 631               	.L65:
 632               	.LM127:
 633 0262 779B      		sbis 46-32,7
 634 0264 00C0      		rjmp .L65
 635               	.LM128:
 636 0266 82E3      		ldi r24,lo8(50)
 637 0268 8FB9      		out 47-32,r24
 638               	.L66:
 639               	.LM129:
 640 026a 779B      		sbis 46-32,7
 641 026c 00C0      		rjmp .L66
 642               	.LM130:
 643 026e C49A      		sbi 56-32,4
 644               	.LBE267:
 645               	.LBE266:
 646               	.LM131:
 647 0270 86EC      		ldi r24,lo8(-58)
 648 0272 62E1      		ldi r22,lo8(18)
 649 0274 0E94 0000 		call enc28j60Write
 650               	.LM132:
 651 0278 87EC      		ldi r24,lo8(-57)
 652 027a 6CE0      		ldi r22,lo8(12)
 653 027c 0E94 0000 		call enc28j60Write
 654               	.LM133:
 655 0280 84EC      		ldi r24,lo8(-60)
 656 0282 62E1      		ldi r22,lo8(18)
 657 0284 0E94 0000 		call enc28j60Write
 658               	.LM134:
 659 0288 8AEC      		ldi r24,lo8(-54)
 660 028a 6CED      		ldi r22,lo8(-36)
 661 028c 0E94 0000 		call enc28j60Write
 662               	.LM135:
 663 0290 8BEC      		ldi r24,lo8(-53)
 664 0292 65E0      		ldi r22,lo8(5)
 665 0294 0E94 0000 		call enc28j60Write
 666               	.LM136:
 667 0298 84EE      		ldi r24,lo8(-28)
 668 029a 6881      		ld r22,Y
 669 029c 0E94 0000 		call enc28j60Write
 670               	.LM137:
 671 02a0 85EE      		ldi r24,lo8(-27)
 672 02a2 6981      		ldd r22,Y+1
 673 02a4 0E94 0000 		call enc28j60Write
 674               	.LM138:
 675 02a8 82EE      		ldi r24,lo8(-30)
 676 02aa 6A81      		ldd r22,Y+2
 677 02ac 0E94 0000 		call enc28j60Write
 678               	.LM139:
 679 02b0 83EE      		ldi r24,lo8(-29)
 680 02b2 6B81      		ldd r22,Y+3
 681 02b4 0E94 0000 		call enc28j60Write
 682               	.LM140:
 683 02b8 80EE      		ldi r24,lo8(-32)
 684 02ba 6C81      		ldd r22,Y+4
 685 02bc 0E94 0000 		call enc28j60Write
 686               	.LM141:
 687 02c0 81EE      		ldi r24,lo8(-31)
 688 02c2 6D81      		ldd r22,Y+5
 689 02c4 0E94 0000 		call enc28j60Write
 690               	.LM142:
 691 02c8 80E1      		ldi r24,lo8(16)
 692 02ca 60E0      		ldi r22,lo8(256)
 693 02cc 71E0      		ldi r23,hi8(256)
 694 02ce 0E94 0000 		call enc28j60PhyWrite
 695               	.LM143:
 696 02d2 8FE1      		ldi r24,lo8(31)
 697 02d4 0E94 0000 		call enc28j60SetBank
 698               	.LBB268:
 699               	.LBB269:
 700               	.LM144:
 701 02d8 C498      		cbi 56-32,4
 702               	.LM145:
 703 02da 8BE9      		ldi r24,lo8(-101)
 704 02dc 8FB9      		out 47-32,r24
 705               	.L67:
 706               	.LM146:
 707 02de 779B      		sbis 46-32,7
 708 02e0 00C0      		rjmp .L67
 709               	.LM147:
 710 02e2 80EC      		ldi r24,lo8(-64)
 711 02e4 8FB9      		out 47-32,r24
 712               	.L68:
 713               	.LM148:
 714 02e6 779B      		sbis 46-32,7
 715 02e8 00C0      		rjmp .L68
 716               	.LM149:
 717 02ea C49A      		sbi 56-32,4
 718               	.LBE269:
 719               	.LBE268:
 720               	.LBB270:
 721               	.LBB271:
 722               	.LM150:
 723 02ec C498      		cbi 56-32,4
 724               	.LM151:
 725 02ee 8FE9      		ldi r24,lo8(-97)
 726 02f0 8FB9      		out 47-32,r24
 727               	.L69:
 728               	.LM152:
 729 02f2 779B      		sbis 46-32,7
 730 02f4 00C0      		rjmp .L69
 731               	.LM153:
 732 02f6 84E0      		ldi r24,lo8(4)
 733 02f8 8FB9      		out 47-32,r24
 734               	.L70:
 735               	.LM154:
 736 02fa 779B      		sbis 46-32,7
 737 02fc 00C0      		rjmp .L70
 738               	.LM155:
 739 02fe C49A      		sbi 56-32,4
 740               	/* epilogue start */
 741               	.LBE271:
 742               	.LBE270:
 743               	.LM156:
 744 0300 DF91      		pop r29
 745 0302 CF91      		pop r28
 746               	.LVL43:
 747 0304 0895      		ret
 748               	.LFE16:
 750               	.global	enc28j60getrev
 752               	enc28j60getrev:
 753               	.LFB17:
 754               	.LM157:
 755               	/* prologue: function */
 756               	/* frame size = 0 */
 757               	.LM158:
 758 0306 82E7      		ldi r24,lo8(114)
 759 0308 0E94 0000 		call enc28j60Read
 760               	/* epilogue start */
 761               	.LM159:
 762 030c 0895      		ret
 763               	.LFE17:
 765               	.global	enc28j60linkup
 767               	enc28j60linkup:
 768               	.LFB18:
 769               	.LM160:
 770               	/* prologue: function */
 771               	/* frame size = 0 */
 772               	.LM161:
 773 030e 81E1      		ldi r24,lo8(17)
 774 0310 0E94 0000 		call enc28j60PhyReadH
 775 0314 20E0      		ldi r18,lo8(0)
 776 0316 892B      		or r24,r25
 777 0318 01F0      		breq .L83
 778 031a 21E0      		ldi r18,lo8(1)
 779               	.L83:
 780               	.LM162:
 781 031c 822F      		mov r24,r18
 782               	/* epilogue start */
 783 031e 0895      		ret
 784               	.LFE18:
 786               	.global	enc28j60PacketSend
 788               	enc28j60PacketSend:
 789               	.LFB19:
 790               	.LM163:
 791               	.LVL44:
 792 0320 DF92      		push r13
 793 0322 EF92      		push r14
 794 0324 FF92      		push r15
 795 0326 0F93      		push r16
 796 0328 1F93      		push r17
 797 032a CF93      		push r28
 798 032c DF93      		push r29
 799               	/* prologue: function */
 800               	/* frame size = 0 */
 801 032e EC01      		movw r28,r24
 802 0330 8B01      		movw r16,r22
 803               	.LBB272:
 804               	.LBB273:
 805               	.LM164:
 806 0332 3FE9      		ldi r19,lo8(-97)
 807 0334 D32E      		mov r13,r19
 808               	.LM165:
 809 0336 20E8      		ldi r18,lo8(-128)
 810 0338 F22E      		mov r15,r18
 811               	.LBE273:
 812               	.LBE272:
 813               	.LBB275:
 814               	.LBB276:
 815               	.LM166:
 816 033a 9FEB      		ldi r25,lo8(-65)
 817 033c E92E      		mov r14,r25
 818 033e 00C0      		rjmp .L113
 819               	.LVL45:
 820               	.L91:
 821               	.LBE276:
 822               	.LBE275:
 823               	.LM167:
 824 0340 8CE1      		ldi r24,lo8(28)
 825 0342 0E94 0000 		call enc28j60Read
 826 0346 81FF      		sbrs r24,1
 827 0348 00C0      		rjmp .L113
 828               	.LBB278:
 829               	.LBB274:
 830               	.LM168:
 831 034a C498      		cbi 56-32,4
 832               	.LM169:
 833 034c DFB8      		out 47-32,r13
 834               	.L87:
 835               	.LM170:
 836 034e 779B      		sbis 46-32,7
 837 0350 00C0      		rjmp .L87
 838               	.LM171:
 839 0352 FFB8      		out 47-32,r15
 840               	.L88:
 841               	.LM172:
 842 0354 779B      		sbis 46-32,7
 843 0356 00C0      		rjmp .L88
 844               	.LM173:
 845 0358 C49A      		sbi 56-32,4
 846               	.LBE274:
 847               	.LBE278:
 848               	.LBB279:
 849               	.LBB277:
 850               	.LM174:
 851 035a C498      		cbi 56-32,4
 852               	.LM175:
 853 035c EFB8      		out 47-32,r14
 854               	.L89:
 855               	.LM176:
 856 035e 779B      		sbis 46-32,7
 857 0360 00C0      		rjmp .L89
 858               	.LM177:
 859 0362 FFB8      		out 47-32,r15
 860               	.L90:
 861               	.LM178:
 862 0364 779B      		sbis 46-32,7
 863 0366 00C0      		rjmp .L90
 864               	.LM179:
 865 0368 C49A      		sbi 56-32,4
 866               	.LVL46:
 867               	.L113:
 868               	.LBE277:
 869               	.LBE279:
 870               	.LM180:
 871 036a 80E0      		ldi r24,lo8(0)
 872 036c 6FE1      		ldi r22,lo8(31)
 873 036e 0E94 0000 		call enc28j60ReadOp
 874 0372 83FD      		sbrc r24,3
 875 0374 00C0      		rjmp .L91
 876               	.LM181:
 877 0376 82E0      		ldi r24,lo8(2)
 878 0378 6FEF      		ldi r22,lo8(-1)
 879 037a 0E94 0000 		call enc28j60Write
 880               	.LM182:
 881 037e 83E0      		ldi r24,lo8(3)
 882 0380 69E1      		ldi r22,lo8(25)
 883 0382 0E94 0000 		call enc28j60Write
 884               	.LM183:
 885 0386 CE01      		movw r24,r28
 886 0388 8150      		subi r24,lo8(-(-1))
 887 038a 682F      		mov r22,r24
 888 038c 86E0      		ldi r24,lo8(6)
 889 038e 0E94 0000 		call enc28j60Write
 890               	.LM184:
 891 0392 9E01      		movw r18,r28
 892 0394 2150      		subi r18,lo8(-(6655))
 893 0396 364E      		sbci r19,hi8(-(6655))
 894 0398 87E0      		ldi r24,lo8(7)
 895 039a 632F      		mov r22,r19
 896 039c 0E94 0000 		call enc28j60Write
 897               	.LBB280:
 898               	.LBB281:
 899               	.LM185:
 900 03a0 C498      		cbi 56-32,4
 901               	.LM186:
 902 03a2 8AE7      		ldi r24,lo8(122)
 903 03a4 8FB9      		out 47-32,r24
 904               	.L92:
 905               	.LM187:
 906 03a6 779B      		sbis 46-32,7
 907 03a8 00C0      		rjmp .L92
 908               	.LM188:
 909 03aa 1FB8      		out 47-32,__zero_reg__
 910               	.L93:
 911               	.LM189:
 912 03ac 779B      		sbis 46-32,7
 913 03ae 00C0      		rjmp .L93
 914               	.LM190:
 915 03b0 C49A      		sbi 56-32,4
 916               	.LBE281:
 917               	.LBE280:
 918               	.LBB282:
 919               	.LBB283:
 920               	.LM191:
 921 03b2 C498      		cbi 56-32,4
 922               	.LM192:
 923 03b4 8AE7      		ldi r24,lo8(122)
 924 03b6 8FB9      		out 47-32,r24
 925               	.L94:
 926               	.LM193:
 927 03b8 779B      		sbis 46-32,7
 928 03ba 00C0      		rjmp .L94
 929 03bc 00C0      		rjmp .L114
 930               	.L97:
 931               	.LM194:
 932 03be F801      		movw r30,r16
 933 03c0 8081      		ld r24,Z
 934 03c2 8FB9      		out 47-32,r24
 935               	.L96:
 936               	.LM195:
 937 03c4 779B      		sbis 46-32,7
 938 03c6 00C0      		rjmp .L96
 939               	.LM196:
 940 03c8 2197      		sbiw r28,1
 941               	.LM197:
 942 03ca 0F5F      		subi r16,lo8(-(1))
 943 03cc 1F4F      		sbci r17,hi8(-(1))
 944               	.L114:
 945               	.LM198:
 946 03ce 2097      		sbiw r28,0
 947 03d0 01F4      		brne .L97
 948               	.LM199:
 949 03d2 C49A      		sbi 56-32,4
 950               	.LBE283:
 951               	.LBE282:
 952               	.LBB284:
 953               	.LBB285:
 954               	.LM200:
 955 03d4 C498      		cbi 56-32,4
 956               	.LM201:
 957 03d6 8FE9      		ldi r24,lo8(-97)
 958 03d8 8FB9      		out 47-32,r24
 959               	.L98:
 960               	.LM202:
 961 03da 779B      		sbis 46-32,7
 962 03dc 00C0      		rjmp .L98
 963               	.LM203:
 964 03de 88E0      		ldi r24,lo8(8)
 965 03e0 8FB9      		out 47-32,r24
 966               	.L99:
 967               	.LM204:
 968 03e2 779B      		sbis 46-32,7
 969 03e4 00C0      		rjmp .L99
 970               	.LM205:
 971 03e6 C49A      		sbi 56-32,4
 972               	/* epilogue start */
 973               	.LBE285:
 974               	.LBE284:
 975               	.LM206:
 976 03e8 DF91      		pop r29
 977 03ea CF91      		pop r28
 978               	.LVL47:
 979 03ec 1F91      		pop r17
 980 03ee 0F91      		pop r16
 981               	.LVL48:
 982 03f0 FF90      		pop r15
 983 03f2 EF90      		pop r14
 984 03f4 DF90      		pop r13
 985 03f6 0895      		ret
 986               	.LFE19:
 988               	.global	enc28j60hasRxPkt
 990               	enc28j60hasRxPkt:
 991               	.LFB20:
 992               	.LM207:
 993               	/* prologue: function */
 994               	/* frame size = 0 */
 995               	.LM208:
 996 03f8 89E3      		ldi r24,lo8(57)
 997 03fa 0E94 0000 		call enc28j60Read
 998 03fe 8111      		cpse r24,__zero_reg__
 999 0400 81E0      		ldi r24,lo8(1)
 1000               	.L116:
 1001               	.LM209:
 1002 0402 0895      		ret
 1003               	.LFE20:
 1005               	.global	enc28j60PacketReceive
 1007               	enc28j60PacketReceive:
 1008               	.LFB21:
 1009               	.LM210:
 1010               	.LVL49:
 1011 0404 8F92      		push r8
 1012 0406 9F92      		push r9
 1013 0408 AF92      		push r10
 1014 040a BF92      		push r11
 1015 040c CF92      		push r12
 1016 040e DF92      		push r13
 1017 0410 EF92      		push r14
 1018 0412 FF92      		push r15
 1019 0414 0F93      		push r16
 1020 0416 1F93      		push r17
 1021 0418 CF93      		push r28
 1022 041a DF93      		push r29
 1023               	/* prologue: function */
 1024               	/* frame size = 0 */
 1025 041c 5C01      		movw r10,r24
 1026 041e 4B01      		movw r8,r22
 1027               	.LM211:
 1028 0420 89E3      		ldi r24,lo8(57)
 1029               	.LVL50:
 1030 0422 0E94 0000 		call enc28j60Read
 1031               	.LVL51:
 1032 0426 8823      		tst r24
 1033 0428 01F4      		brne .L119
 1034 042a C0E0      		ldi r28,lo8(0)
 1035 042c D0E0      		ldi r29,hi8(0)
 1036               	.LVL52:
 1037 042e 00C0      		rjmp .L120
 1038               	.LVL53:
 1039               	.L119:
 1040               	.LM212:
 1041 0430 6091 0000 		lds r22,gNextPacketPtr
 1042 0434 1091 0000 		lds r17,gNextPacketPtr+1
 1043 0438 80E0      		ldi r24,lo8(0)
 1044 043a 0E94 0000 		call enc28j60Write
 1045               	.LM213:
 1046 043e 81E0      		ldi r24,lo8(1)
 1047 0440 612F      		mov r22,r17
 1048 0442 0E94 0000 		call enc28j60Write
 1049               	.LM214:
 1050 0446 8AE3      		ldi r24,lo8(58)
 1051 0448 60E0      		ldi r22,lo8(0)
 1052 044a 0E94 0000 		call enc28j60ReadOp
 1053 044e 182F      		mov r17,r24
 1054               	.LM215:
 1055 0450 8AE3      		ldi r24,lo8(58)
 1056 0452 60E0      		ldi r22,lo8(0)
 1057 0454 0E94 0000 		call enc28j60ReadOp
 1058 0458 382F      		mov r19,r24
 1059 045a 20E0      		ldi r18,lo8(0)
 1060 045c E12E      		mov r14,r17
 1061 045e FF24      		clr r15
 1062 0460 E22A      		or r14,r18
 1063 0462 F32A      		or r15,r19
 1064 0464 F092 0000 		sts (gNextPacketPtr)+1,r15
 1065 0468 E092 0000 		sts gNextPacketPtr,r14
 1066               	.LM216:
 1067 046c 8AE3      		ldi r24,lo8(58)
 1068 046e 60E0      		ldi r22,lo8(0)
 1069 0470 0E94 0000 		call enc28j60ReadOp
 1070 0474 C82E      		mov r12,r24
 1071               	.LM217:
 1072 0476 8AE3      		ldi r24,lo8(58)
 1073 0478 60E0      		ldi r22,lo8(0)
 1074 047a 0E94 0000 		call enc28j60ReadOp
 1075 047e D82E      		mov r13,r24
 1076               	.LM218:
 1077 0480 8AE3      		ldi r24,lo8(58)
 1078 0482 60E0      		ldi r22,lo8(0)
 1079 0484 0E94 0000 		call enc28j60ReadOp
 1080 0488 082F      		mov r16,r24
 1081               	.LVL54:
 1082 048a 10E0      		ldi r17,lo8(0)
 1083               	.LVL55:
 1084               	.LM219:
 1085 048c 8AE3      		ldi r24,lo8(58)
 1086 048e 60E0      		ldi r22,lo8(0)
 1087 0490 0E94 0000 		call enc28j60ReadOp
 1088               	.LM220:
 1089 0494 382F      		mov r19,r24
 1090 0496 20E0      		ldi r18,lo8(0)
 1091 0498 202B      		or r18,r16
 1092 049a 312B      		or r19,r17
 1093 049c 27FD      		sbrc r18,7
 1094 049e 00C0      		rjmp .L121
 1095 04a0 C0E0      		ldi r28,lo8(0)
 1096 04a2 D0E0      		ldi r29,hi8(0)
 1097               	.LVL56:
 1098 04a4 00C0      		rjmp .L122
 1099               	.LVL57:
 1100               	.L121:
 1101               	.LM221:
 1102 04a6 CC2D      		mov r28,r12
 1103               	.LVL58:
 1104 04a8 D0E0      		ldi r29,lo8(0)
 1105               	.LVL59:
 1106               	.LM222:
 1107 04aa 9D2D      		mov r25,r13
 1108 04ac 80E0      		ldi r24,lo8(0)
 1109 04ae C82B      		or r28,r24
 1110 04b0 D92B      		or r29,r25
 1111               	.LVL60:
 1112               	.LM223:
 1113 04b2 C501      		movw r24,r10
 1114 04b4 0197      		sbiw r24,1
 1115 04b6 2497      		sbiw r28,4
 1116 04b8 8C17      		cp r24,r28
 1117 04ba 9D07      		cpc r25,r29
 1118 04bc 00F4      		brsh .L123
 1119 04be EC01      		movw r28,r24
 1120               	.L123:
 1121               	.LM224:
 1122 04c0 CE01      		movw r24,r28
 1123 04c2 B401      		movw r22,r8
 1124 04c4 0E94 0000 		call enc28j60ReadBuffer
 1125               	.L122:
 1126               	.LM225:
 1127 04c8 DE2C      		mov r13,r14
 1128 04ca 8CE0      		ldi r24,lo8(12)
 1129 04cc 6E2D      		mov r22,r14
 1130 04ce 0E94 0000 		call enc28j60Write
 1131               	.LM226:
 1132 04d2 8DE0      		ldi r24,lo8(13)
 1133 04d4 6F2D      		mov r22,r15
 1134 04d6 0E94 0000 		call enc28j60Write
 1135               	.LM227:
 1136 04da 8701      		movw r16,r14
 1137               	.LVL61:
 1138 04dc 0150      		subi r16,lo8(-(-1))
 1139 04de 1040      		sbci r17,hi8(-(-1))
 1140 04e0 89E1      		ldi r24,hi8(6655)
 1141 04e2 0F3F      		cpi r16,lo8(6655)
 1142 04e4 1807      		cpc r17,r24
 1143 04e6 00F0      		brlo .L124
 1144               	.LM228:
 1145 04e8 8CE0      		ldi r24,lo8(12)
 1146 04ea 6EEF      		ldi r22,lo8(-2)
 1147 04ec 0E94 0000 		call enc28j60Write
 1148               	.LM229:
 1149 04f0 8DE0      		ldi r24,lo8(13)
 1150 04f2 69E1      		ldi r22,lo8(25)
 1151 04f4 00C0      		rjmp .L131
 1152               	.L124:
 1153               	.LM230:
 1154 04f6 DA94      		dec r13
 1155 04f8 8CE0      		ldi r24,lo8(12)
 1156 04fa 6D2D      		mov r22,r13
 1157 04fc 0E94 0000 		call enc28j60Write
 1158               	.LM231:
 1159 0500 8DE0      		ldi r24,lo8(13)
 1160 0502 612F      		mov r22,r17
 1161               	.LVL62:
 1162               	.L131:
 1163 0504 0E94 0000 		call enc28j60Write
 1164               	.LBB286:
 1165               	.LBB287:
 1166               	.LM232:
 1167 0508 C498      		cbi 56-32,4
 1168               	.LM233:
 1169 050a 8EE9      		ldi r24,lo8(-98)
 1170 050c 8FB9      		out 47-32,r24
 1171               	.L126:
 1172               	.LM234:
 1173 050e 779B      		sbis 46-32,7
 1174 0510 00C0      		rjmp .L126
 1175               	.LM235:
 1176 0512 80E4      		ldi r24,lo8(64)
 1177 0514 8FB9      		out 47-32,r24
 1178               	.L127:
 1179               	.LM236:
 1180 0516 779B      		sbis 46-32,7
 1181 0518 00C0      		rjmp .L127
 1182               	.LM237:
 1183 051a C49A      		sbi 56-32,4
 1184               	.L120:
 1185               	.LBE287:
 1186               	.LBE286:
 1187               	.LM238:
 1188 051c CE01      		movw r24,r28
 1189               	.LVL63:
 1190               	/* epilogue start */
 1191 051e DF91      		pop r29
 1192               	.LVL64:
 1193 0520 CF91      		pop r28
 1194 0522 1F91      		pop r17
 1195               	.LVL65:
 1196 0524 0F91      		pop r16
 1197 0526 FF90      		pop r15
 1198 0528 EF90      		pop r14
 1199 052a DF90      		pop r13
 1200 052c CF90      		pop r12
 1201 052e BF90      		pop r11
 1202 0530 AF90      		pop r10
 1203               	.LVL66:
 1204 0532 9F90      		pop r9
 1205 0534 8F90      		pop r8
 1206               	.LVL67:
 1207 0536 0895      		ret
 1208               	.LFE21:
 1210               	.global	checksum
 1212               	checksum:
 1213               	.LFB22:
 1214               	.LM239:
 1215               	.LVL68:
 1216 0538 CF92      		push r12
 1217 053a DF92      		push r13
 1218 053c EF92      		push r14
 1219 053e FF92      		push r15
 1220 0540 0F93      		push r16
 1221 0542 1F93      		push r17
 1222 0544 CF93      		push r28
 1223 0546 DF93      		push r29
 1224               	/* prologue: function */
 1225               	/* frame size = 0 */
 1226 0548 6C01      		movw r12,r24
 1227               	.LM240:
 1228 054a 4130      		cpi r20,lo8(1)
 1229 054c 01F4      		brne .L133
 1230               	.LVL69:
 1231               	.LM241:
 1232 054e 6850      		subi r22,lo8(-(-8))
 1233 0550 7040      		sbci r23,hi8(-(-8))
 1234               	.LVL70:
 1235 0552 7B01      		movw r14,r22
 1236               	.LVL71:
 1237 0554 00E0      		ldi r16,lo8(0)
 1238 0556 10E0      		ldi r17,hi8(0)
 1239               	.LVL72:
 1240 0558 685F      		subi r22,lo8(-(8))
 1241 055a 7F4F      		sbci r23,hi8(-(8))
 1242 055c 21E1      		ldi r18,lo8(17)
 1243 055e 30E0      		ldi r19,hi8(17)
 1244 0560 40E0      		ldi r20,hlo8(17)
 1245 0562 50E0      		ldi r21,hhi8(17)
 1246 0564 E20E      		add r14,r18
 1247 0566 F31E      		adc r15,r19
 1248 0568 041F      		adc r16,r20
 1249 056a 151F      		adc r17,r21
 1250               	.LVL73:
 1251 056c 00C0      		rjmp .L134
 1252               	.LVL74:
 1253               	.L133:
 1254               	.LM242:
 1255 056e 4230      		cpi r20,lo8(2)
 1256 0570 01F0      		breq .L135
 1257 0572 EE24      		clr r14
 1258 0574 FF24      		clr r15
 1259 0576 8701      		movw r16,r14
 1260               	.LVL75:
 1261 0578 00C0      		rjmp .L134
 1262               	.LVL76:
 1263               	.L135:
 1264               	.LM243:
 1265 057a 6850      		subi r22,lo8(-(-8))
 1266 057c 7040      		sbci r23,hi8(-(-8))
 1267               	.LVL77:
 1268 057e 7B01      		movw r14,r22
 1269               	.LVL78:
 1270 0580 00E0      		ldi r16,lo8(0)
 1271 0582 10E0      		ldi r17,hi8(0)
 1272               	.LVL79:
 1273 0584 685F      		subi r22,lo8(-(8))
 1274 0586 7F4F      		sbci r23,hi8(-(8))
 1275 0588 86E0      		ldi r24,lo8(6)
 1276 058a 90E0      		ldi r25,hi8(6)
 1277 058c A0E0      		ldi r26,hlo8(6)
 1278 058e B0E0      		ldi r27,hhi8(6)
 1279 0590 E80E      		add r14,r24
 1280 0592 F91E      		adc r15,r25
 1281 0594 0A1F      		adc r16,r26
 1282 0596 1B1F      		adc r17,r27
 1283               	.LVL80:
 1284               	.L134:
 1285 0598 F601      		movw r30,r12
 1286 059a EB01      		movw r28,r22
 1287 059c 00C0      		rjmp .L136
 1288               	.LVL81:
 1289               	.L137:
 1290               	.LM244:
 1291 059e 8081      		ld r24,Z
 1292 05a0 90E0      		ldi r25,lo8(0)
 1293 05a2 A0E0      		ldi r26,lo8(0)
 1294 05a4 B0E0      		ldi r27,hi8(0)
 1295 05a6 BA2F      		mov r27,r26
 1296 05a8 A92F      		mov r26,r25
 1297 05aa 982F      		mov r25,r24
 1298 05ac 8827      		clr r24
 1299 05ae 2181      		ldd r18,Z+1
 1300 05b0 30E0      		ldi r19,lo8(0)
 1301 05b2 40E0      		ldi r20,lo8(0)
 1302 05b4 50E0      		ldi r21,hi8(0)
 1303               	.LVL82:
 1304 05b6 822B      		or r24,r18
 1305 05b8 932B      		or r25,r19
 1306 05ba A42B      		or r26,r20
 1307 05bc B52B      		or r27,r21
 1308 05be E80E      		add r14,r24
 1309 05c0 F91E      		adc r15,r25
 1310 05c2 0A1F      		adc r16,r26
 1311 05c4 1B1F      		adc r17,r27
 1312               	.LM245:
 1313 05c6 3296      		adiw r30,2
 1314               	.LM246:
 1315 05c8 2297      		sbiw r28,2
 1316               	.LVL83:
 1317               	.L136:
 1318               	.LM247:
 1319 05ca C230      		cpi r28,2
 1320 05cc D105      		cpc r29,__zero_reg__
 1321 05ce 00F4      		brsh .L137
 1322 05d0 FB01      		movw r30,r22
 1323               	.LVL84:
 1324 05d2 EE7F      		andi r30,lo8(-2)
 1325 05d4 EC0D      		add r30,r12
 1326 05d6 FD1D      		adc r31,r13
 1327               	.LM248:
 1328 05d8 60FF      		sbrs r22,0
 1329 05da 00C0      		rjmp .L141
 1330               	.LVL85:
 1331               	.LM249:
 1332 05dc 8081      		ld r24,Z
 1333 05de 90E0      		ldi r25,lo8(0)
 1334 05e0 A0E0      		ldi r26,lo8(0)
 1335 05e2 B0E0      		ldi r27,hi8(0)
 1336 05e4 BA2F      		mov r27,r26
 1337 05e6 A92F      		mov r26,r25
 1338 05e8 982F      		mov r25,r24
 1339 05ea 8827      		clr r24
 1340 05ec 00C0      		rjmp .L142
 1341               	.LVL86:
 1342               	.L139:
 1343               	.LM250:
 1344 05ee 2FEF      		ldi r18,lo8(65535)
 1345 05f0 3FEF      		ldi r19,hi8(65535)
 1346 05f2 40E0      		ldi r20,hlo8(65535)
 1347 05f4 50E0      		ldi r21,hhi8(65535)
 1348 05f6 E222      		and r14,r18
 1349 05f8 F322      		and r15,r19
 1350 05fa 0423      		and r16,r20
 1351 05fc 1523      		and r17,r21
 1352               	.LVL87:
 1353               	.L142:
 1354 05fe E80E      		add r14,r24
 1355 0600 F91E      		adc r15,r25
 1356 0602 0A1F      		adc r16,r26
 1357 0604 1B1F      		adc r17,r27
 1358               	.L141:
 1359               	.LM251:
 1360 0606 C801      		movw r24,r16
 1361 0608 AA27      		clr r26
 1362 060a BB27      		clr r27
 1363               	.LVL88:
 1364 060c 0097      		sbiw r24,0
 1365 060e A105      		cpc r26,__zero_reg__
 1366 0610 B105      		cpc r27,__zero_reg__
 1367 0612 01F4      		brne .L139
 1368 0614 9701      		movw r18,r14
 1369               	.LVL89:
 1370 0616 2095      		com r18
 1371 0618 3095      		com r19
 1372               	.LM252:
 1373 061a C901      		movw r24,r18
 1374               	/* epilogue start */
 1375 061c DF91      		pop r29
 1376 061e CF91      		pop r28
 1377 0620 1F91      		pop r17
 1378 0622 0F91      		pop r16
 1379               	.LVL90:
 1380 0624 FF90      		pop r15
 1381 0626 EF90      		pop r14
 1382 0628 DF90      		pop r13
 1383 062a CF90      		pop r12
 1384 062c 0895      		ret
 1385               	.LFE22:
 1387               	.global	init_ip_arp_udp_tcp
 1389               	init_ip_arp_udp_tcp:
 1390               	.LFB23:
 1391               	.LM253:
 1392               	.LVL91:
 1393 062e CF93      		push r28
 1394 0630 DF93      		push r29
 1395               	/* prologue: function */
 1396               	/* frame size = 0 */
 1397 0632 EC01      		movw r28,r24
 1398               	.LM254:
 1399 0634 5093 0000 		sts wwwport_h,r21
 1400               	.LVL92:
 1401               	.LM255:
 1402 0638 4093 0000 		sts wwwport_l,r20
 1403 063c 20E0      		ldi r18,lo8(0)
 1404 063e 30E0      		ldi r19,hi8(0)
 1405               	.LVL93:
 1406               	.L144:
 1407               	.LM256:
 1408 0640 F901      		movw r30,r18
 1409 0642 E050      		subi r30,lo8(-(ipaddr))
 1410 0644 F040      		sbci r31,hi8(-(ipaddr))
 1411 0646 DB01      		movw r26,r22
 1412 0648 A20F      		add r26,r18
 1413 064a B31F      		adc r27,r19
 1414 064c 8C91      		ld r24,X
 1415 064e 8083      		st Z,r24
 1416 0650 2F5F      		subi r18,lo8(-(1))
 1417 0652 3F4F      		sbci r19,hi8(-(1))
 1418               	.LM257:
 1419 0654 2430      		cpi r18,4
 1420 0656 3105      		cpc r19,__zero_reg__
 1421 0658 01F4      		brne .L144
 1422 065a 20E0      		ldi r18,lo8(0)
 1423 065c 30E0      		ldi r19,hi8(0)
 1424               	.L145:
 1425               	.LM258:
 1426 065e F901      		movw r30,r18
 1427 0660 E050      		subi r30,lo8(-(macaddr))
 1428 0662 F040      		sbci r31,hi8(-(macaddr))
 1429 0664 DE01      		movw r26,r28
 1430 0666 A20F      		add r26,r18
 1431 0668 B31F      		adc r27,r19
 1432 066a 8C91      		ld r24,X
 1433 066c 8083      		st Z,r24
 1434 066e 2F5F      		subi r18,lo8(-(1))
 1435 0670 3F4F      		sbci r19,hi8(-(1))
 1436               	.LM259:
 1437 0672 2630      		cpi r18,6
 1438 0674 3105      		cpc r19,__zero_reg__
 1439 0676 01F4      		brne .L145
 1440               	/* epilogue start */
 1441               	.LM260:
 1442 0678 DF91      		pop r29
 1443 067a CF91      		pop r28
 1444               	.LVL94:
 1445 067c 0895      		ret
 1446               	.LFE23:
 1448               	.global	check_ip_message_is_from
 1450               	check_ip_message_is_from:
 1451               	.LFB24:
 1452               	.LM261:
 1453               	.LVL95:
 1454               	/* prologue: function */
 1455               	/* frame size = 0 */
 1456               	.LM262:
 1457 067e DC01      		movw r26,r24
 1458               	.LVL96:
 1459 0680 20E0      		ldi r18,lo8(0)
 1460 0682 30E0      		ldi r19,hi8(0)
 1461               	.L152:
 1462               	.LM263:
 1463 0684 FB01      		movw r30,r22
 1464 0686 E20F      		add r30,r18
 1465 0688 F31F      		adc r31,r19
 1466 068a 5A96      		adiw r26,26
 1467 068c 9C91      		ld r25,X
 1468 068e 5A97      		sbiw r26,26
 1469 0690 8081      		ld r24,Z
 1470 0692 9817      		cp r25,r24
 1471 0694 01F0      		breq .L150
 1472 0696 80E0      		ldi r24,lo8(0)
 1473 0698 0895      		ret
 1474               	.L150:
 1475 069a 2F5F      		subi r18,lo8(-(1))
 1476 069c 3F4F      		sbci r19,hi8(-(1))
 1477 069e 1196      		adiw r26,1
 1478               	.LM264:
 1479 06a0 2430      		cpi r18,4
 1480 06a2 3105      		cpc r19,__zero_reg__
 1481 06a4 01F4      		brne .L152
 1482 06a6 81E0      		ldi r24,lo8(1)
 1483               	.LM265:
 1484 06a8 0895      		ret
 1485               	.LFE24:
 1487               	.global	eth_type_is_arp_and_my_ip
 1489               	eth_type_is_arp_and_my_ip:
 1490               	.LFB25:
 1491               	.LM266:
 1492               	.LVL97:
 1493               	/* prologue: function */
 1494               	/* frame size = 0 */
 1495 06aa FC01      		movw r30,r24
 1496               	.LM267:
 1497 06ac 6932      		cpi r22,41
 1498 06ae 7105      		cpc r23,__zero_reg__
 1499 06b0 00F0      		brlo .L156
 1500               	.LVL98:
 1501               	.LM268:
 1502 06b2 8485      		ldd r24,Z+12
 1503 06b4 8830      		cpi r24,lo8(8)
 1504 06b6 01F4      		brne .L156
 1505 06b8 8585      		ldd r24,Z+13
 1506 06ba 8630      		cpi r24,lo8(6)
 1507 06bc 01F4      		brne .L156
 1508 06be DF01      		movw r26,r30
 1509 06c0 9696      		adiw r26,38
 1510 06c2 E0E0      		ldi r30,lo8(ipaddr)
 1511 06c4 F0E0      		ldi r31,hi8(ipaddr)
 1512               	.LVL99:
 1513               	.L157:
 1514               	.LM269:
 1515 06c6 9C91      		ld r25,X
 1516 06c8 8081      		ld r24,Z
 1517 06ca 9817      		cp r25,r24
 1518 06cc 01F4      		brne .L156
 1519 06ce 1196      		adiw r26,1
 1520 06d0 3196      		adiw r30,1
 1521               	.LM270:
 1522 06d2 80E0      		ldi r24,hi8(ipaddr+4)
 1523 06d4 E030      		cpi r30,lo8(ipaddr+4)
 1524 06d6 F807      		cpc r31,r24
 1525 06d8 01F4      		brne .L157
 1526 06da 81E0      		ldi r24,lo8(1)
 1527 06dc 0895      		ret
 1528               	.LVL100:
 1529               	.L156:
 1530 06de 80E0      		ldi r24,lo8(0)
 1531               	.LM271:
 1532 06e0 0895      		ret
 1533               	.LFE25:
 1535               	.global	eth_type_is_ip_and_my_ip
 1537               	eth_type_is_ip_and_my_ip:
 1538               	.LFB26:
 1539               	.LM272:
 1540               	.LVL101:
 1541               	/* prologue: function */
 1542               	/* frame size = 0 */
 1543 06e2 FC01      		movw r30,r24
 1544               	.LM273:
 1545 06e4 6A32      		cpi r22,42
 1546 06e6 7105      		cpc r23,__zero_reg__
 1547 06e8 00F0      		brlo .L162
 1548               	.LVL102:
 1549               	.LM274:
 1550 06ea 8485      		ldd r24,Z+12
 1551 06ec 8830      		cpi r24,lo8(8)
 1552 06ee 01F4      		brne .L162
 1553 06f0 8585      		ldd r24,Z+13
 1554 06f2 8823      		tst r24
 1555 06f4 01F4      		brne .L162
 1556               	.LM275:
 1557 06f6 8685      		ldd r24,Z+14
 1558 06f8 8534      		cpi r24,lo8(69)
 1559 06fa 01F4      		brne .L162
 1560 06fc DF01      		movw r26,r30
 1561 06fe E0E0      		ldi r30,lo8(ipaddr)
 1562 0700 F0E0      		ldi r31,hi8(ipaddr)
 1563               	.LVL103:
 1564               	.L163:
 1565               	.LM276:
 1566 0702 5E96      		adiw r26,30
 1567 0704 9C91      		ld r25,X
 1568 0706 5E97      		sbiw r26,30
 1569 0708 8081      		ld r24,Z
 1570 070a 9817      		cp r25,r24
 1571 070c 01F4      		brne .L162
 1572 070e 1196      		adiw r26,1
 1573 0710 3196      		adiw r30,1
 1574               	.LM277:
 1575 0712 80E0      		ldi r24,hi8(ipaddr+4)
 1576 0714 E030      		cpi r30,lo8(ipaddr+4)
 1577 0716 F807      		cpc r31,r24
 1578 0718 01F4      		brne .L163
 1579 071a 81E0      		ldi r24,lo8(1)
 1580 071c 0895      		ret
 1581               	.LVL104:
 1582               	.L162:
 1583 071e 80E0      		ldi r24,lo8(0)
 1584               	.LM278:
 1585 0720 0895      		ret
 1586               	.LFE26:
 1588               	.global	make_eth
 1590               	make_eth:
 1591               	.LFB27:
 1592               	.LM279:
 1593               	.LVL105:
 1594               	/* prologue: function */
 1595               	/* frame size = 0 */
 1596               	.LM280:
 1597 0722 FC01      		movw r30,r24
 1598               	.LVL106:
 1599 0724 A0E0      		ldi r26,lo8(macaddr)
 1600 0726 B0E0      		ldi r27,hi8(macaddr)
 1601               	.L168:
 1602               	.LM281:
 1603 0728 8681      		ldd r24,Z+6
 1604 072a 8083      		st Z,r24
 1605               	.LM282:
 1606 072c 8D91      		ld r24,X+
 1607 072e 8683      		std Z+6,r24
 1608 0730 3196      		adiw r30,1
 1609               	.LM283:
 1610 0732 80E0      		ldi r24,hi8(macaddr+6)
 1611 0734 A030      		cpi r26,lo8(macaddr+6)
 1612 0736 B807      		cpc r27,r24
 1613 0738 01F4      		brne .L168
 1614               	/* epilogue start */
 1615               	.LM284:
 1616 073a 0895      		ret
 1617               	.LFE27:
 1619               	.global	fill_ip_hdr_checksum
 1621               	fill_ip_hdr_checksum:
 1622               	.LFB28:
 1623               	.LM285:
 1624               	.LVL107:
 1625 073c 0F93      		push r16
 1626 073e 1F93      		push r17
 1627               	/* prologue: function */
 1628               	/* frame size = 0 */
 1629 0740 8C01      		movw r16,r24
 1630               	.LM286:
 1631 0742 FC01      		movw r30,r24
 1632 0744 108E      		std Z+24,__zero_reg__
 1633               	.LM287:
 1634 0746 118E      		std Z+25,__zero_reg__
 1635               	.LM288:
 1636 0748 80E4      		ldi r24,lo8(64)
 1637               	.LVL108:
 1638 074a 848B      		std Z+20,r24
 1639               	.LM289:
 1640 074c 158A      		std Z+21,__zero_reg__
 1641               	.LM290:
 1642 074e 868B      		std Z+22,r24
 1643               	.LM291:
 1644 0750 C801      		movw r24,r16
 1645 0752 0E96      		adiw r24,14
 1646 0754 64E1      		ldi r22,lo8(20)
 1647 0756 70E0      		ldi r23,hi8(20)
 1648 0758 40E0      		ldi r20,lo8(0)
 1649 075a 0E94 0000 		call checksum
 1650               	.LM292:
 1651 075e F801      		movw r30,r16
 1652 0760 908F      		std Z+24,r25
 1653               	.LM293:
 1654 0762 818F      		std Z+25,r24
 1655               	/* epilogue start */
 1656               	.LM294:
 1657 0764 1F91      		pop r17
 1658 0766 0F91      		pop r16
 1659               	.LVL109:
 1660 0768 0895      		ret
 1661               	.LFE28:
 1663               	.global	make_ip
 1665               	make_ip:
 1666               	.LFB29:
 1667               	.LM295:
 1668               	.LVL110:
 1669               	/* prologue: function */
 1670               	/* frame size = 0 */
 1671 076a AC01      		movw r20,r24
 1672               	.LVL111:
 1673               	.LM296:
 1674 076c FC01      		movw r30,r24
 1675 076e A0E0      		ldi r26,lo8(ipaddr)
 1676 0770 B0E0      		ldi r27,hi8(ipaddr)
 1677               	.L174:
 1678               	.LM297:
 1679 0772 828D      		ldd r24,Z+26
 1680 0774 868F      		std Z+30,r24
 1681               	.LM298:
 1682 0776 8D91      		ld r24,X+
 1683 0778 828F      		std Z+26,r24
 1684 077a 3196      		adiw r30,1
 1685               	.LM299:
 1686 077c 80E0      		ldi r24,hi8(ipaddr+4)
 1687 077e A030      		cpi r26,lo8(ipaddr+4)
 1688 0780 B807      		cpc r27,r24
 1689 0782 01F4      		brne .L174
 1690               	.LM300:
 1691 0784 CA01      		movw r24,r20
 1692 0786 0E94 0000 		call fill_ip_hdr_checksum
 1693               	/* epilogue start */
 1694               	.LM301:
 1695 078a 0895      		ret
 1696               	.LFE29:
 1698               	.global	step_seq
 1700               	step_seq:
 1701               	.LFB30:
 1702               	.LM302:
 1703               	.LVL112:
 1704               	/* prologue: function */
 1705               	/* frame size = 0 */
 1706               	.LM303:
 1707 078c FC01      		movw r30,r24
 1708 078e B996      		adiw r30,41
 1709 0790 94E0      		ldi r25,lo8(4)
 1710               	.LVL113:
 1711               	.L181:
 1712               	.LM304:
 1713 0792 8081      		ld r24,Z
 1714               	.LVL114:
 1715 0794 680F      		add r22,r24
 1716 0796 711D      		adc r23,__zero_reg__
 1717               	.LVL115:
 1718               	.LM305:
 1719 0798 8481      		ldd r24,Z+4
 1720               	.LVL116:
 1721               	.LM306:
 1722 079a 6483      		std Z+4,r22
 1723               	.LM307:
 1724 079c 4423      		tst r20
 1725 079e 01F0      		breq .L178
 1726               	.LM308:
 1727 07a0 8083      		st Z,r24
 1728 07a2 00C0      		rjmp .L179
 1729               	.L178:
 1730               	.LM309:
 1731 07a4 1082      		st Z,__zero_reg__
 1732               	.L179:
 1733               	.LM310:
 1734 07a6 9150      		subi r25,lo8(-(-1))
 1735 07a8 3197      		sbiw r30,1
 1736               	.LM311:
 1737 07aa 9923      		tst r25
 1738 07ac 01F0      		breq .L182
 1739               	.LM312:
 1740 07ae 672F      		mov r22,r23
 1741 07b0 7727      		clr r23
 1742               	.LVL117:
 1743 07b2 00C0      		rjmp .L181
 1744               	.L182:
 1745 07b4 0895      		ret
 1746               	.LFE30:
 1748               	.global	make_tcphead
 1750               	make_tcphead:
 1751               	.LFB31:
 1752               	.LM313:
 1753               	.LVL118:
 1754 07b6 0F93      		push r16
 1755 07b8 1F93      		push r17
 1756               	/* prologue: function */
 1757               	/* frame size = 0 */
 1758 07ba 8C01      		movw r16,r24
 1759               	.LM314:
 1760 07bc FC01      		movw r30,r24
 1761 07be 94A1      		ldd r25,Z+36
 1762               	.LVL119:
 1763               	.LM315:
 1764 07c0 82A1      		ldd r24,Z+34
 1765               	.LVL120:
 1766 07c2 84A3      		std Z+36,r24
 1767               	.LM316:
 1768 07c4 92A3      		std Z+34,r25
 1769               	.LM317:
 1770 07c6 95A1      		ldd r25,Z+37
 1771               	.LVL121:
 1772               	.LM318:
 1773 07c8 83A1      		ldd r24,Z+35
 1774 07ca 85A3      		std Z+37,r24
 1775               	.LM319:
 1776 07cc 93A3      		std Z+35,r25
 1777               	.LM320:
 1778 07ce C801      		movw r24,r16
 1779 07d0 0E94 0000 		call step_seq
 1780               	.LVL122:
 1781               	.LM321:
 1782 07d4 F801      		movw r30,r16
 1783 07d6 12AA      		std Z+50,__zero_reg__
 1784               	.LM322:
 1785 07d8 13AA      		std Z+51,__zero_reg__
 1786               	.LM323:
 1787 07da 80E5      		ldi r24,lo8(80)
 1788 07dc 86A7      		std Z+46,r24
 1789               	/* epilogue start */
 1790               	.LM324:
 1791 07de 1F91      		pop r17
 1792 07e0 0F91      		pop r16
 1793               	.LVL123:
 1794 07e2 0895      		ret
 1795               	.LFE31:
 1797               	.global	make_arp_answer_from_request
 1799               	make_arp_answer_from_request:
 1800               	.LFB32:
 1801               	.LM325:
 1802               	.LVL124:
 1803 07e4 CF93      		push r28
 1804 07e6 DF93      		push r29
 1805               	/* prologue: function */
 1806               	/* frame size = 0 */
 1807 07e8 AC01      		movw r20,r24
 1808               	.LM326:
 1809 07ea EC01      		movw r28,r24
 1810 07ec 20E0      		ldi r18,lo8(macaddr)
 1811 07ee 30E0      		ldi r19,hi8(macaddr)
 1812 07f0 FC01      		movw r30,r24
 1813 07f2 D901      		movw r26,r18
 1814               	.L186:
 1815               	.LBB288:
 1816               	.LBB289:
 1817               	.LM327:
 1818 07f4 8681      		ldd r24,Z+6
 1819               	.LVL125:
 1820 07f6 8083      		st Z,r24
 1821               	.LM328:
 1822 07f8 8D91      		ld r24,X+
 1823 07fa 8683      		std Z+6,r24
 1824 07fc 3196      		adiw r30,1
 1825               	.LM329:
 1826 07fe 80E0      		ldi r24,hi8(macaddr+6)
 1827 0800 A030      		cpi r26,lo8(macaddr+6)
 1828 0802 B807      		cpc r27,r24
 1829 0804 01F4      		brne .L186
 1830               	.LBE289:
 1831               	.LBE288:
 1832               	.LM330:
 1833 0806 FA01      		movw r30,r20
 1834 0808 148A      		std Z+20,__zero_reg__
 1835               	.LM331:
 1836 080a 82E0      		ldi r24,lo8(2)
 1837 080c 858B      		std Z+21,r24
 1838               	.L187:
 1839               	.LM332:
 1840 080e 8E89      		ldd r24,Y+22
 1841 0810 88A3      		std Y+32,r24
 1842               	.LM333:
 1843 0812 F901      		movw r30,r18
 1844 0814 8191      		ld r24,Z+
 1845 0816 9F01      		movw r18,r30
 1846 0818 8E8B      		std Y+22,r24
 1847 081a 2196      		adiw r28,1
 1848               	.LM334:
 1849 081c F0E0      		ldi r31,hi8(macaddr+6)
 1850 081e 2030      		cpi r18,lo8(macaddr+6)
 1851 0820 3F07      		cpc r19,r31
 1852 0822 01F4      		brne .L187
 1853 0824 FA01      		movw r30,r20
 1854 0826 7C96      		adiw r30,28
 1855 0828 A0E0      		ldi r26,lo8(ipaddr)
 1856 082a B0E0      		ldi r27,hi8(ipaddr)
 1857               	.L188:
 1858               	.LM335:
 1859 082c 8081      		ld r24,Z
 1860 082e 8287      		std Z+10,r24
 1861               	.LM336:
 1862 0830 8D91      		ld r24,X+
 1863 0832 8193      		st Z+,r24
 1864               	.LM337:
 1865 0834 80E0      		ldi r24,hi8(ipaddr+4)
 1866 0836 A030      		cpi r26,lo8(ipaddr+4)
 1867 0838 B807      		cpc r27,r24
 1868 083a 01F4      		brne .L188
 1869               	.LM338:
 1870 083c 8AE2      		ldi r24,lo8(42)
 1871 083e 90E0      		ldi r25,hi8(42)
 1872 0840 BA01      		movw r22,r20
 1873 0842 0E94 0000 		call enc28j60PacketSend
 1874               	.LVL126:
 1875               	/* epilogue start */
 1876               	.LM339:
 1877 0846 DF91      		pop r29
 1878 0848 CF91      		pop r28
 1879 084a 0895      		ret
 1880               	.LFE32:
 1882               	.global	make_echo_reply_from_request
 1884               	make_echo_reply_from_request:
 1885               	.LFB33:
 1886               	.LM340:
 1887               	.LVL127:
 1888 084c 0F93      		push r16
 1889 084e 1F93      		push r17
 1890 0850 CF93      		push r28
 1891 0852 DF93      		push r29
 1892               	/* prologue: function */
 1893               	/* frame size = 0 */
 1894 0854 EC01      		movw r28,r24
 1895 0856 8B01      		movw r16,r22
 1896               	.LM341:
 1897 0858 FC01      		movw r30,r24
 1898 085a A0E0      		ldi r26,lo8(macaddr)
 1899 085c B0E0      		ldi r27,hi8(macaddr)
 1900               	.LVL128:
 1901               	.L194:
 1902               	.LBB290:
 1903               	.LBB291:
 1904               	.LM342:
 1905 085e 8681      		ldd r24,Z+6
 1906               	.LVL129:
 1907 0860 8083      		st Z,r24
 1908               	.LM343:
 1909 0862 8D91      		ld r24,X+
 1910 0864 8683      		std Z+6,r24
 1911 0866 3196      		adiw r30,1
 1912               	.LM344:
 1913 0868 80E0      		ldi r24,hi8(macaddr+6)
 1914 086a A030      		cpi r26,lo8(macaddr+6)
 1915 086c B807      		cpc r27,r24
 1916 086e 01F4      		brne .L194
 1917               	.LBE291:
 1918               	.LBE290:
 1919               	.LM345:
 1920 0870 CE01      		movw r24,r28
 1921 0872 0E94 0000 		call make_ip
 1922               	.LM346:
 1923 0876 1AA2      		std Y+34,__zero_reg__
 1924               	.LM347:
 1925 0878 8CA1      		ldd r24,Y+36
 1926 087a 883F      		cpi r24,lo8(-8)
 1927 087c 00F0      		brlo .L195
 1928               	.LM348:
 1929 087e 8DA1      		ldd r24,Y+37
 1930 0880 8F5F      		subi r24,lo8(-(1))
 1931 0882 8DA3      		std Y+37,r24
 1932               	.L195:
 1933               	.LM349:
 1934 0884 8CA1      		ldd r24,Y+36
 1935 0886 885F      		subi r24,lo8(-(8))
 1936 0888 8CA3      		std Y+36,r24
 1937               	.LM350:
 1938 088a C801      		movw r24,r16
 1939 088c BE01      		movw r22,r28
 1940 088e 0E94 0000 		call enc28j60PacketSend
 1941               	/* epilogue start */
 1942               	.LM351:
 1943 0892 DF91      		pop r29
 1944 0894 CF91      		pop r28
 1945               	.LVL130:
 1946 0896 1F91      		pop r17
 1947 0898 0F91      		pop r16
 1948               	.LVL131:
 1949 089a 0895      		ret
 1950               	.LFE33:
 1952               	.global	make_udp_reply_from_request
 1954               	make_udp_reply_from_request:
 1955               	.LFB34:
 1956               	.LM352:
 1957               	.LVL132:
 1958 089c DF92      		push r13
 1959 089e EF92      		push r14
 1960 08a0 FF92      		push r15
 1961 08a2 0F93      		push r16
 1962 08a4 1F93      		push r17
 1963 08a6 CF93      		push r28
 1964 08a8 DF93      		push r29
 1965               	/* prologue: function */
 1966               	/* frame size = 0 */
 1967 08aa EC01      		movw r28,r24
 1968 08ac 7B01      		movw r14,r22
 1969 08ae D22E      		mov r13,r18
 1970 08b0 132F      		mov r17,r19
 1971               	.LVL133:
 1972               	.LM353:
 1973 08b2 FC01      		movw r30,r24
 1974 08b4 A0E0      		ldi r26,lo8(macaddr)
 1975 08b6 B0E0      		ldi r27,hi8(macaddr)
 1976               	.LVL134:
 1977               	.L199:
 1978               	.LBB292:
 1979               	.LBB293:
 1980               	.LM354:
 1981 08b8 8681      		ldd r24,Z+6
 1982               	.LVL135:
 1983 08ba 8083      		st Z,r24
 1984               	.LM355:
 1985 08bc 8D91      		ld r24,X+
 1986 08be 8683      		std Z+6,r24
 1987 08c0 3196      		adiw r30,1
 1988               	.LM356:
 1989 08c2 80E0      		ldi r24,hi8(macaddr+6)
 1990 08c4 A030      		cpi r26,lo8(macaddr+6)
 1991 08c6 B807      		cpc r27,r24
 1992 08c8 01F4      		brne .L199
 1993 08ca 042F      		mov r16,r20
 1994 08cc 4D3D      		cpi r20,lo8(-35)
 1995 08ce 00F0      		brlo .L200
 1996 08d0 0CED      		ldi r16,lo8(-36)
 1997               	.LVL136:
 1998               	.L200:
 1999               	.LBE293:
 2000               	.LBE292:
 2001               	.LM357:
 2002 08d2 188A      		std Y+16,__zero_reg__
 2003               	.LM358:
 2004 08d4 045E      		subi r16,lo8(-(28))
 2005 08d6 098B      		std Y+17,r16
 2006               	.LM359:
 2007 08d8 CE01      		movw r24,r28
 2008 08da 0E94 0000 		call make_ip
 2009               	.LM360:
 2010 08de 8AA1      		ldd r24,Y+34
 2011 08e0 8CA3      		std Y+36,r24
 2012               	.LM361:
 2013 08e2 8BA1      		ldd r24,Y+35
 2014 08e4 8DA3      		std Y+37,r24
 2015               	.LM362:
 2016 08e6 1AA3      		std Y+34,r17
 2017               	.LM363:
 2018 08e8 DBA2      		std Y+35,r13
 2019               	.LM364:
 2020 08ea 1EA2      		std Y+38,__zero_reg__
 2021               	.LM365:
 2022 08ec 0451      		subi r16,lo8(-(-20))
 2023 08ee 0FA3      		std Y+39,r16
 2024 08f0 0850      		subi r16,lo8(-(-8))
 2025               	.LM366:
 2026 08f2 18A6      		std Y+40,__zero_reg__
 2027               	.LM367:
 2028 08f4 19A6      		std Y+41,__zero_reg__
 2029 08f6 DE01      		movw r26,r28
 2030 08f8 9A96      		adiw r26,42
 2031 08fa 20E0      		ldi r18,lo8(0)
 2032 08fc 30E0      		ldi r19,hi8(0)
 2033 08fe 00C0      		rjmp .L201
 2034               	.L202:
 2035               	.LM368:
 2036 0900 F701      		movw r30,r14
 2037 0902 E20F      		add r30,r18
 2038 0904 F31F      		adc r31,r19
 2039 0906 8081      		ld r24,Z
 2040 0908 8D93      		st X+,r24
 2041 090a 2F5F      		subi r18,lo8(-(1))
 2042 090c 3F4F      		sbci r19,hi8(-(1))
 2043               	.L201:
 2044               	.LM369:
 2045 090e 2017      		cp r18,r16
 2046 0910 00F0      		brlo .L202
 2047               	.LM370:
 2048 0912 10E0      		ldi r17,lo8(0)
 2049               	.LVL137:
 2050 0914 005F      		subi r16,lo8(-(16))
 2051 0916 1F4F      		sbci r17,hi8(-(16))
 2052               	.LVL138:
 2053 0918 CE01      		movw r24,r28
 2054 091a 4A96      		adiw r24,26
 2055 091c B801      		movw r22,r16
 2056 091e 41E0      		ldi r20,lo8(1)
 2057 0920 0E94 0000 		call checksum
 2058               	.LM371:
 2059 0924 98A7      		std Y+40,r25
 2060               	.LM372:
 2061 0926 89A7      		std Y+41,r24
 2062               	.LM373:
 2063 0928 C801      		movw r24,r16
 2064 092a 4A96      		adiw r24,26
 2065 092c BE01      		movw r22,r28
 2066 092e 0E94 0000 		call enc28j60PacketSend
 2067               	/* epilogue start */
 2068               	.LM374:
 2069 0932 DF91      		pop r29
 2070 0934 CF91      		pop r28
 2071               	.LVL139:
 2072 0936 1F91      		pop r17
 2073 0938 0F91      		pop r16
 2074 093a FF90      		pop r15
 2075 093c EF90      		pop r14
 2076               	.LVL140:
 2077 093e DF90      		pop r13
 2078               	.LVL141:
 2079 0940 0895      		ret
 2080               	.LFE34:
 2082               	.global	make_tcp_synack_from_syn
 2084               	make_tcp_synack_from_syn:
 2085               	.LFB35:
 2086               	.LM375:
 2087               	.LVL142:
 2088 0942 CF93      		push r28
 2089 0944 DF93      		push r29
 2090               	/* prologue: function */
 2091               	/* frame size = 0 */
 2092 0946 EC01      		movw r28,r24
 2093               	.LM376:
 2094 0948 FC01      		movw r30,r24
 2095 094a A0E0      		ldi r26,lo8(macaddr)
 2096 094c B0E0      		ldi r27,hi8(macaddr)
 2097               	.L206:
 2098               	.LBB294:
 2099               	.LBB295:
 2100               	.LM377:
 2101 094e 8681      		ldd r24,Z+6
 2102               	.LVL143:
 2103 0950 8083      		st Z,r24
 2104               	.LM378:
 2105 0952 8D91      		ld r24,X+
 2106 0954 8683      		std Z+6,r24
 2107 0956 3196      		adiw r30,1
 2108               	.LM379:
 2109 0958 80E0      		ldi r24,hi8(macaddr+6)
 2110 095a A030      		cpi r26,lo8(macaddr+6)
 2111 095c B807      		cpc r27,r24
 2112 095e 01F4      		brne .L206
 2113               	.LBE295:
 2114               	.LBE294:
 2115               	.LM380:
 2116 0960 188A      		std Y+16,__zero_reg__
 2117               	.LM381:
 2118 0962 8CE2      		ldi r24,lo8(44)
 2119 0964 898B      		std Y+17,r24
 2120               	.LM382:
 2121 0966 CE01      		movw r24,r28
 2122 0968 0E94 0000 		call make_ip
 2123               	.LM383:
 2124 096c 82E1      		ldi r24,lo8(18)
 2125 096e 8FA7      		std Y+47,r24
 2126               	.LM384:
 2127 0970 CE01      		movw r24,r28
 2128 0972 61E0      		ldi r22,lo8(1)
 2129 0974 70E0      		ldi r23,hi8(1)
 2130 0976 40E0      		ldi r20,lo8(0)
 2131 0978 0E94 0000 		call make_tcphead
 2132               	.LM385:
 2133 097c 1EA2      		std Y+38,__zero_reg__
 2134               	.LM386:
 2135 097e 1FA2      		std Y+39,__zero_reg__
 2136               	.LM387:
 2137 0980 8091 0000 		lds r24,seqnum
 2138 0984 88A7      		std Y+40,r24
 2139               	.LM388:
 2140 0986 19A6      		std Y+41,__zero_reg__
 2141               	.LM389:
 2142 0988 8D5F      		subi r24,lo8(-(3))
 2143 098a 8093 0000 		sts seqnum,r24
 2144               	.LM390:
 2145 098e 82E0      		ldi r24,lo8(2)
 2146 0990 8EAB      		std Y+54,r24
 2147               	.LM391:
 2148 0992 84E0      		ldi r24,lo8(4)
 2149 0994 8FAB      		std Y+55,r24
 2150               	.LM392:
 2151 0996 95E0      		ldi r25,lo8(5)
 2152 0998 98AF      		std Y+56,r25
 2153               	.LM393:
 2154 099a 19AE      		std Y+57,__zero_reg__
 2155               	.LM394:
 2156 099c 80E6      		ldi r24,lo8(96)
 2157 099e 8EA7      		std Y+46,r24
 2158               	.LM395:
 2159 09a0 98AB      		std Y+48,r25
 2160               	.LM396:
 2161 09a2 88E7      		ldi r24,lo8(120)
 2162 09a4 89AB      		std Y+49,r24
 2163               	.LM397:
 2164 09a6 CE01      		movw r24,r28
 2165 09a8 4A96      		adiw r24,26
 2166 09aa 60E2      		ldi r22,lo8(32)
 2167 09ac 70E0      		ldi r23,hi8(32)
 2168 09ae 42E0      		ldi r20,lo8(2)
 2169 09b0 0E94 0000 		call checksum
 2170               	.LM398:
 2171 09b4 9AAB      		std Y+50,r25
 2172               	.LM399:
 2173 09b6 8BAB      		std Y+51,r24
 2174               	.LM400:
 2175 09b8 8AE3      		ldi r24,lo8(58)
 2176 09ba 90E0      		ldi r25,hi8(58)
 2177 09bc BE01      		movw r22,r28
 2178 09be 0E94 0000 		call enc28j60PacketSend
 2179               	/* epilogue start */
 2180               	.LM401:
 2181 09c2 DF91      		pop r29
 2182 09c4 CF91      		pop r28
 2183               	.LVL144:
 2184 09c6 0895      		ret
 2185               	.LFE35:
 2187               	.global	get_tcp_data_len
 2189               	get_tcp_data_len:
 2190               	.LFB36:
 2191               	.LM402:
 2192               	.LVL145:
 2193               	/* prologue: function */
 2194               	/* frame size = 0 */
 2195 09c8 FC01      		movw r30,r24
 2196               	.LM403:
 2197 09ca 9089      		ldd r25,Z+16
 2198 09cc 80E0      		ldi r24,lo8(0)
 2199               	.LVL146:
 2200 09ce 2189      		ldd r18,Z+17
 2201 09d0 422F      		mov r20,r18
 2202               	.LVL147:
 2203 09d2 50E0      		ldi r21,lo8(0)
 2204               	.LVL148:
 2205 09d4 482B      		or r20,r24
 2206 09d6 592B      		or r21,r25
 2207               	.LVL149:
 2208               	.LM404:
 2209 09d8 26A5      		ldd r18,Z+46
 2210 09da 822F      		mov r24,r18
 2211 09dc 8295      		swap r24
 2212 09de 8F70      		andi r24,lo8(15)
 2213 09e0 90E0      		ldi r25,lo8(0)
 2214 09e2 880F      		lsl r24
 2215 09e4 991F      		rol r25
 2216 09e6 880F      		lsl r24
 2217 09e8 991F      		rol r25
 2218 09ea 481B      		sub r20,r24
 2219 09ec 590B      		sbc r21,r25
 2220               	.LM405:
 2221 09ee 4451      		subi r20,lo8(-(-20))
 2222 09f0 5040      		sbci r21,hi8(-(-20))
 2223 09f2 57FF      		sbrs r21,7
 2224 09f4 00C0      		rjmp .L210
 2225 09f6 40E0      		ldi r20,lo8(0)
 2226 09f8 50E0      		ldi r21,hi8(0)
 2227               	.L210:
 2228               	.LM406:
 2229 09fa CA01      		movw r24,r20
 2230               	.LVL150:
 2231               	/* epilogue start */
 2232 09fc 0895      		ret
 2233               	.LFE36:
 2235               	.global	fill_tcp_data_p
 2237               	fill_tcp_data_p:
 2238               	.LFB37:
 2239               	.LM407:
 2240               	.LVL151:
 2241               	/* prologue: function */
 2242               	/* frame size = 0 */
 2243               	.LM408:
 2244 09fe 6A5C      		subi r22,lo8(-(54))
 2245 0a00 7F4F      		sbci r23,hi8(-(54))
 2246               	.LVL152:
 2247 0a02 DC01      		movw r26,r24
 2248 0a04 A60F      		add r26,r22
 2249 0a06 B71F      		adc r27,r23
 2250 0a08 6653      		subi r22,lo8(-(-54))
 2251 0a0a 7040      		sbci r23,hi8(-(-54))
 2252 0a0c 00C0      		rjmp .L213
 2253               	.LVL153:
 2254               	.L214:
 2255               	.LM409:
 2256 0a0e 8D93      		st X+,r24
 2257               	.LM410:
 2258 0a10 6F5F      		subi r22,lo8(-(1))
 2259 0a12 7F4F      		sbci r23,hi8(-(1))
 2260               	.LVL154:
 2261               	.L213:
 2262 0a14 FA01      		movw r30,r20
 2263               	.LBB296:
 2264               	.LM411:
 2265 0a16 4F5F      		subi r20,lo8(-(1))
 2266 0a18 5F4F      		sbci r21,hi8(-(1))
 2267               	/* #APP */
 2268               	 ;  463 "ip_arp_udp_tcp.c" 1
 2269 0a1a 8491      		lpm r24, Z
 2270               		
 2271               	 ;  0 "" 2
 2272               	.LVL155:
 2273               	/* #NOAPP */
 2274               	.LBE296:
 2275 0a1c 8823      		tst r24
 2276 0a1e 01F4      		brne .L214
 2277               	.LM412:
 2278 0a20 CB01      		movw r24,r22
 2279               	.LVL156:
 2280               	/* epilogue start */
 2281 0a22 0895      		ret
 2282               	.LFE37:
 2284               	.global	fill_tcp_data_len
 2286               	fill_tcp_data_len:
 2287               	.LFB38:
 2288               	.LM413:
 2289               	.LVL157:
 2290               	/* prologue: function */
 2291               	/* frame size = 0 */
 2292 0a24 DA01      		movw r26,r20
 2293               	.LM414:
 2294 0a26 6A5C      		subi r22,lo8(-(54))
 2295 0a28 7F4F      		sbci r23,hi8(-(54))
 2296               	.LVL158:
 2297 0a2a FC01      		movw r30,r24
 2298 0a2c E60F      		add r30,r22
 2299 0a2e F71F      		adc r31,r23
 2300 0a30 6653      		subi r22,lo8(-(-54))
 2301 0a32 7040      		sbci r23,hi8(-(-54))
 2302 0a34 922F      		mov r25,r18
 2303 0a36 00C0      		rjmp .L217
 2304               	.LVL159:
 2305               	.L218:
 2306               	.LM415:
 2307 0a38 8D91      		ld r24,X+
 2308               	.LVL160:
 2309 0a3a 8193      		st Z+,r24
 2310               	.LM416:
 2311 0a3c 9150      		subi r25,lo8(-(-1))
 2312               	.LVL161:
 2313               	.L217:
 2314               	.LM417:
 2315 0a3e 9923      		tst r25
 2316 0a40 01F4      		brne .L218
 2317 0a42 CB01      		movw r24,r22
 2318               	.LVL162:
 2319 0a44 820F      		add r24,r18
 2320 0a46 911D      		adc r25,__zero_reg__
 2321               	/* epilogue start */
 2322               	.LM418:
 2323 0a48 0895      		ret
 2324               	.LFE38:
 2326               	.global	make_tcp_ack_from_any
 2328               	make_tcp_ack_from_any:
 2329               	.LFB40:
 2330               	.LM419:
 2331               	.LVL163:
 2332 0a4a CF93      		push r28
 2333 0a4c DF93      		push r29
 2334               	/* prologue: function */
 2335               	/* frame size = 0 */
 2336 0a4e EC01      		movw r28,r24
 2337               	.LM420:
 2338 0a50 FC01      		movw r30,r24
 2339 0a52 A0E0      		ldi r26,lo8(macaddr)
 2340 0a54 B0E0      		ldi r27,hi8(macaddr)
 2341               	.L221:
 2342               	.LBB297:
 2343               	.LBB298:
 2344               	.LM421:
 2345 0a56 8681      		ldd r24,Z+6
 2346               	.LVL164:
 2347 0a58 8083      		st Z,r24
 2348               	.LM422:
 2349 0a5a 8D91      		ld r24,X+
 2350 0a5c 8683      		std Z+6,r24
 2351 0a5e 3196      		adiw r30,1
 2352               	.LM423:
 2353 0a60 80E0      		ldi r24,hi8(macaddr+6)
 2354 0a62 A030      		cpi r26,lo8(macaddr+6)
 2355 0a64 B807      		cpc r27,r24
 2356 0a66 01F4      		brne .L221
 2357               	.LBE298:
 2358               	.LBE297:
 2359               	.LM424:
 2360 0a68 842F      		mov r24,r20
 2361 0a6a 8061      		ori r24,lo8(16)
 2362 0a6c 8FA7      		std Y+47,r24
 2363               	.LM425:
 2364 0a6e 4430      		cpi r20,lo8(4)
 2365 0a70 01F0      		breq .L224
 2366               	.L222:
 2367               	.LM426:
 2368 0a72 6115      		cp r22,__zero_reg__
 2369 0a74 7105      		cpc r23,__zero_reg__
 2370 0a76 01F4      		brne .L224
 2371 0a78 61E0      		ldi r22,lo8(1)
 2372 0a7a 70E0      		ldi r23,hi8(1)
 2373               	.LVL165:
 2374               	.L224:
 2375               	.LM427:
 2376 0a7c CE01      		movw r24,r28
 2377 0a7e 41E0      		ldi r20,lo8(1)
 2378               	.LVL166:
 2379 0a80 0E94 0000 		call make_tcphead
 2380               	.LVL167:
 2381               	.LM428:
 2382 0a84 188A      		std Y+16,__zero_reg__
 2383               	.LM429:
 2384 0a86 88E2      		ldi r24,lo8(40)
 2385 0a88 898B      		std Y+17,r24
 2386               	.LM430:
 2387 0a8a CE01      		movw r24,r28
 2388 0a8c 0E94 0000 		call make_ip
 2389               	.LM431:
 2390 0a90 84E0      		ldi r24,lo8(4)
 2391 0a92 88AB      		std Y+48,r24
 2392               	.LM432:
 2393 0a94 19AA      		std Y+49,__zero_reg__
 2394               	.LM433:
 2395 0a96 CE01      		movw r24,r28
 2396 0a98 4A96      		adiw r24,26
 2397 0a9a 6CE1      		ldi r22,lo8(28)
 2398 0a9c 70E0      		ldi r23,hi8(28)
 2399 0a9e 42E0      		ldi r20,lo8(2)
 2400 0aa0 0E94 0000 		call checksum
 2401               	.LM434:
 2402 0aa4 9AAB      		std Y+50,r25
 2403               	.LM435:
 2404 0aa6 8BAB      		std Y+51,r24
 2405               	.LM436:
 2406 0aa8 86E3      		ldi r24,lo8(54)
 2407 0aaa 90E0      		ldi r25,hi8(54)
 2408 0aac BE01      		movw r22,r28
 2409 0aae 0E94 0000 		call enc28j60PacketSend
 2410               	/* epilogue start */
 2411               	.LM437:
 2412 0ab2 DF91      		pop r29
 2413 0ab4 CF91      		pop r28
 2414               	.LVL168:
 2415 0ab6 0895      		ret
 2416               	.LFE40:
 2418               	.global	make_tcp_ack_with_data_noflags
 2420               	make_tcp_ack_with_data_noflags:
 2421               	.LFB41:
 2422               	.LM438:
 2423               	.LVL169:
 2424 0ab8 EF92      		push r14
 2425 0aba FF92      		push r15
 2426 0abc 0F93      		push r16
 2427 0abe 1F93      		push r17
 2428               	/* prologue: function */
 2429               	/* frame size = 0 */
 2430 0ac0 8C01      		movw r16,r24
 2431 0ac2 7B01      		movw r14,r22
 2432               	.LM439:
 2433 0ac4 CB01      		movw r24,r22
 2434               	.LVL170:
 2435 0ac6 8896      		adiw r24,40
 2436               	.LM440:
 2437 0ac8 F801      		movw r30,r16
 2438 0aca 908B      		std Z+16,r25
 2439               	.LVL171:
 2440               	.LM441:
 2441 0acc 818B      		std Z+17,r24
 2442               	.LM442:
 2443 0ace C801      		movw r24,r16
 2444               	.LVL172:
 2445 0ad0 0E94 0000 		call fill_ip_hdr_checksum
 2446               	.LVL173:
 2447               	.LM443:
 2448 0ad4 F801      		movw r30,r16
 2449 0ad6 12AA      		std Z+50,__zero_reg__
 2450               	.LM444:
 2451 0ad8 13AA      		std Z+51,__zero_reg__
 2452               	.LM445:
 2453 0ada 8CE1      		ldi r24,lo8(28)
 2454 0adc 90E0      		ldi r25,hi8(28)
 2455 0ade E80E      		add r14,r24
 2456 0ae0 F91E      		adc r15,r25
 2457 0ae2 C801      		movw r24,r16
 2458 0ae4 4A96      		adiw r24,26
 2459 0ae6 B701      		movw r22,r14
 2460 0ae8 42E0      		ldi r20,lo8(2)
 2461 0aea 0E94 0000 		call checksum
 2462               	.LM446:
 2463 0aee F801      		movw r30,r16
 2464 0af0 92AB      		std Z+50,r25
 2465               	.LM447:
 2466 0af2 83AB      		std Z+51,r24
 2467               	.LM448:
 2468 0af4 C701      		movw r24,r14
 2469 0af6 4A96      		adiw r24,26
 2470 0af8 B801      		movw r22,r16
 2471 0afa 0E94 0000 		call enc28j60PacketSend
 2472               	/* epilogue start */
 2473               	.LM449:
 2474 0afe 1F91      		pop r17
 2475 0b00 0F91      		pop r16
 2476               	.LVL174:
 2477 0b02 FF90      		pop r15
 2478 0b04 EF90      		pop r14
 2479               	.LVL175:
 2480 0b06 0895      		ret
 2481               	.LFE41:
 2483               	.global	www_server_reply
 2485               	www_server_reply:
 2486               	.LFB42:
 2487               	.LM450:
 2488               	.LVL176:
 2489 0b08 EF92      		push r14
 2490 0b0a FF92      		push r15
 2491 0b0c 0F93      		push r16
 2492 0b0e 1F93      		push r17
 2493               	/* prologue: function */
 2494               	/* frame size = 0 */
 2495 0b10 8C01      		movw r16,r24
 2496 0b12 7B01      		movw r14,r22
 2497               	.LM451:
 2498 0b14 6091 0000 		lds r22,info_data_len
 2499 0b18 7091 0000 		lds r23,(info_data_len)+1
 2500               	.LVL177:
 2501 0b1c 40E0      		ldi r20,lo8(0)
 2502 0b1e 0E94 0000 		call make_tcp_ack_from_any
 2503               	.LVL178:
 2504               	.LM452:
 2505 0b22 89E1      		ldi r24,lo8(25)
 2506 0b24 F801      		movw r30,r16
 2507 0b26 87A7      		std Z+47,r24
 2508               	.LM453:
 2509 0b28 C801      		movw r24,r16
 2510 0b2a B701      		movw r22,r14
 2511 0b2c 0E94 0000 		call make_tcp_ack_with_data_noflags
 2512               	/* epilogue start */
 2513               	.LM454:
 2514 0b30 1F91      		pop r17
 2515 0b32 0F91      		pop r16
 2516               	.LVL179:
 2517 0b34 FF90      		pop r15
 2518 0b36 EF90      		pop r14
 2519               	.LVL180:
 2520 0b38 0895      		ret
 2521               	.LFE42:
 2523               	.global	fill_buf_p
 2525               	fill_buf_p:
 2526               	.LFB43:
 2527               	.LM455:
 2528               	.LVL181:
 2529               	/* prologue: function */
 2530               	/* frame size = 0 */
 2531 0b3a DC01      		movw r26,r24
 2532 0b3c FA01      		movw r30,r20
 2533 0b3e 00C0      		rjmp .L232
 2534               	.LVL182:
 2535               	.L233:
 2536               	.LBB299:
 2537               	.LM456:
 2538               	/* #APP */
 2539               	 ;  579 "ip_arp_udp_tcp.c" 1
 2540 0b40 8491      		lpm r24, Z
 2541               		
 2542               	 ;  0 "" 2
 2543               	/* #NOAPP */
 2544               	.LBE299:
 2545 0b42 8D93      		st X+,r24
 2546               	.LM457:
 2547 0b44 3196      		adiw r30,1
 2548               	.LM458:
 2549 0b46 6150      		subi r22,lo8(-(-1))
 2550 0b48 7040      		sbci r23,hi8(-(-1))
 2551               	.LVL183:
 2552               	.L232:
 2553               	.LM459:
 2554 0b4a 6115      		cp r22,__zero_reg__
 2555 0b4c 7105      		cpc r23,__zero_reg__
 2556 0b4e 01F4      		brne .L233
 2557               	/* epilogue start */
 2558               	.LM460:
 2559 0b50 0895      		ret
 2560               	.LFE43:
 2562               	.global	send_udp_prepare
 2564               	send_udp_prepare:
 2565               	.LFB44:
 2566               	.LM461:
 2567               	.LVL184:
 2568 0b52 FF92      		push r15
 2569 0b54 0F93      		push r16
 2570 0b56 1F93      		push r17
 2571 0b58 CF93      		push r28
 2572 0b5a DF93      		push r29
 2573               	/* prologue: function */
 2574               	/* frame size = 0 */
 2575 0b5c EC01      		movw r28,r24
 2576 0b5e F62E      		mov r15,r22
 2577 0b60 072F      		mov r16,r23
 2578               	.LVL185:
 2579 0b62 BA01      		movw r22,r20
 2580               	.LVL186:
 2581 0b64 122F      		mov r17,r18
 2582 0b66 932F      		mov r25,r19
 2583               	.LVL187:
 2584               	.LM462:
 2585 0b68 AE01      		movw r20,r28
 2586               	.LVL188:
 2587 0b6a 9E01      		movw r18,r28
 2588               	.LVL189:
 2589 0b6c A0E0      		ldi r26,lo8(0)
 2590 0b6e B0E0      		ldi r27,hi8(0)
 2591               	.LVL190:
 2592               	.L236:
 2593               	.LM463:
 2594 0b70 FD01      		movw r30,r26
 2595 0b72 E050      		subi r30,lo8(-(gwmacaddr))
 2596 0b74 F040      		sbci r31,hi8(-(gwmacaddr))
 2597 0b76 8081      		ld r24,Z
 2598 0b78 F901      		movw r30,r18
 2599 0b7a 8083      		st Z,r24
 2600               	.LM464:
 2601 0b7c FD01      		movw r30,r26
 2602 0b7e E050      		subi r30,lo8(-(macaddr))
 2603 0b80 F040      		sbci r31,hi8(-(macaddr))
 2604 0b82 8081      		ld r24,Z
 2605 0b84 F901      		movw r30,r18
 2606 0b86 8683      		std Z+6,r24
 2607 0b88 1196      		adiw r26,1
 2608 0b8a 2F5F      		subi r18,lo8(-(1))
 2609 0b8c 3F4F      		sbci r19,hi8(-(1))
 2610               	.LM465:
 2611 0b8e A630      		cpi r26,6
 2612 0b90 B105      		cpc r27,__zero_reg__
 2613 0b92 01F4      		brne .L236
 2614               	.LM466:
 2615 0b94 88E0      		ldi r24,lo8(8)
 2616 0b96 8C87      		std Y+12,r24
 2617               	.LM467:
 2618 0b98 1D86      		std Y+13,__zero_reg__
 2619 0b9a DE01      		movw r26,r28
 2620 0b9c E0E0      		ldi r30,lo8(iphdr)
 2621 0b9e F0E0      		ldi r31,hi8(iphdr)
 2622               	.LVL191:
 2623               	.L237:
 2624               	.LBB300:
 2625               	.LBB301:
 2626               	.LBB302:
 2627               	.LM468:
 2628               	/* #APP */
 2629               	 ;  579 "ip_arp_udp_tcp.c" 1
 2630 0ba0 8491      		lpm r24, Z
 2631               		
 2632               	 ;  0 "" 2
 2633               	.LVL192:
 2634               	/* #NOAPP */
 2635               	.LBE302:
 2636 0ba2 1E96      		adiw r26,14
 2637 0ba4 8C93      		st X,r24
 2638 0ba6 1E97      		sbiw r26,14
 2639               	.LM469:
 2640 0ba8 3196      		adiw r30,1
 2641 0baa 1196      		adiw r26,1
 2642               	.LM470:
 2643 0bac 80E0      		ldi r24,hi8(iphdr+9)
 2644 0bae E030      		cpi r30,lo8(iphdr+9)
 2645 0bb0 F807      		cpc r31,r24
 2646               	.LVL193:
 2647 0bb2 01F4      		brne .L237
 2648               	.LBE301:
 2649               	.LBE300:
 2650               	.LM471:
 2651 0bb4 188A      		std Y+16,__zero_reg__
 2652               	.LM472:
 2653 0bb6 81E1      		ldi r24,lo8(17)
 2654 0bb8 8F8B      		std Y+23,r24
 2655 0bba A0E0      		ldi r26,lo8(0)
 2656 0bbc B0E0      		ldi r27,hi8(0)
 2657               	.L238:
 2658               	.LM473:
 2659 0bbe FB01      		movw r30,r22
 2660               	.LVL194:
 2661 0bc0 EA0F      		add r30,r26
 2662 0bc2 FB1F      		adc r31,r27
 2663 0bc4 8081      		ld r24,Z
 2664 0bc6 FA01      		movw r30,r20
 2665 0bc8 868F      		std Z+30,r24
 2666               	.LM474:
 2667 0bca FD01      		movw r30,r26
 2668 0bcc E050      		subi r30,lo8(-(ipaddr))
 2669 0bce F040      		sbci r31,hi8(-(ipaddr))
 2670 0bd0 8081      		ld r24,Z
 2671 0bd2 FA01      		movw r30,r20
 2672 0bd4 828F      		std Z+26,r24
 2673 0bd6 1196      		adiw r26,1
 2674 0bd8 4F5F      		subi r20,lo8(-(1))
 2675 0bda 5F4F      		sbci r21,hi8(-(1))
 2676               	.LM475:
 2677 0bdc A430      		cpi r26,4
 2678 0bde B105      		cpc r27,__zero_reg__
 2679 0be0 01F4      		brne .L238
 2680               	.LM476:
 2681 0be2 9CA3      		std Y+36,r25
 2682               	.LM477:
 2683 0be4 1DA3      		std Y+37,r17
 2684               	.LM478:
 2685 0be6 0AA3      		std Y+34,r16
 2686               	.LM479:
 2687 0be8 FBA2      		std Y+35,r15
 2688               	.LM480:
 2689 0bea 1EA2      		std Y+38,__zero_reg__
 2690               	.LM481:
 2691 0bec 18A6      		std Y+40,__zero_reg__
 2692               	.LM482:
 2693 0bee 19A6      		std Y+41,__zero_reg__
 2694               	/* epilogue start */
 2695               	.LM483:
 2696 0bf0 DF91      		pop r29
 2697 0bf2 CF91      		pop r28
 2698               	.LVL195:
 2699 0bf4 1F91      		pop r17
 2700               	.LVL196:
 2701 0bf6 0F91      		pop r16
 2702               	.LVL197:
 2703 0bf8 FF90      		pop r15
 2704               	.LVL198:
 2705 0bfa 0895      		ret
 2706               	.LFE44:
 2708               	.global	send_udp_transmit
 2710               	send_udp_transmit:
 2711               	.LFB45:
 2712               	.LM484:
 2713               	.LVL199:
 2714 0bfc EF92      		push r14
 2715 0bfe FF92      		push r15
 2716 0c00 0F93      		push r16
 2717 0c02 1F93      		push r17
 2718               	/* prologue: function */
 2719               	/* frame size = 0 */
 2720 0c04 7C01      		movw r14,r24
 2721 0c06 062F      		mov r16,r22
 2722               	.LM485:
 2723 0c08 045E      		subi r16,lo8(-(28))
 2724               	.LVL200:
 2725 0c0a FC01      		movw r30,r24
 2726 0c0c 018B      		std Z+17,r16
 2727               	.LM486:
 2728 0c0e 0E94 0000 		call fill_ip_hdr_checksum
 2729               	.LVL201:
 2730               	.LM487:
 2731 0c12 0451      		subi r16,lo8(-(-20))
 2732 0c14 F701      		movw r30,r14
 2733 0c16 07A3      		std Z+39,r16
 2734 0c18 0850      		subi r16,lo8(-(-8))
 2735               	.LM488:
 2736 0c1a 10E0      		ldi r17,lo8(0)
 2737 0c1c 005F      		subi r16,lo8(-(16))
 2738 0c1e 1F4F      		sbci r17,hi8(-(16))
 2739               	.LVL202:
 2740 0c20 C701      		movw r24,r14
 2741 0c22 4A96      		adiw r24,26
 2742 0c24 B801      		movw r22,r16
 2743 0c26 41E0      		ldi r20,lo8(1)
 2744 0c28 0E94 0000 		call checksum
 2745               	.LM489:
 2746 0c2c F701      		movw r30,r14
 2747 0c2e 90A7      		std Z+40,r25
 2748               	.LM490:
 2749 0c30 81A7      		std Z+41,r24
 2750               	.LM491:
 2751 0c32 C801      		movw r24,r16
 2752 0c34 4A96      		adiw r24,26
 2753 0c36 B701      		movw r22,r14
 2754 0c38 0E94 0000 		call enc28j60PacketSend
 2755               	/* epilogue start */
 2756               	.LM492:
 2757 0c3c 1F91      		pop r17
 2758 0c3e 0F91      		pop r16
 2759 0c40 FF90      		pop r15
 2760 0c42 EF90      		pop r14
 2761               	.LVL203:
 2762 0c44 0895      		ret
 2763               	.LFE45:
 2765               	.global	send_udp
 2767               	send_udp:
 2768               	.LFB46:
 2769               	.LM493:
 2770               	.LVL204:
 2771 0c46 AF92      		push r10
 2772 0c48 BF92      		push r11
 2773 0c4a DF92      		push r13
 2774 0c4c EF92      		push r14
 2775               	.LVL205:
 2776 0c4e FF92      		push r15
 2777 0c50 0F93      		push r16
 2778               	.LVL206:
 2779 0c52 1F93      		push r17
 2780 0c54 CF93      		push r28
 2781 0c56 DF93      		push r29
 2782               	/* prologue: function */
 2783               	/* frame size = 0 */
 2784 0c58 EC01      		movw r28,r24
 2785 0c5a 5B01      		movw r10,r22
 2786 0c5c D42E      		mov r13,r20
 2787 0c5e A801      		movw r20,r16
 2788               	.LVL207:
 2789               	.LM494:
 2790 0c60 B901      		movw r22,r18
 2791               	.LVL208:
 2792 0c62 9701      		movw r18,r14
 2793               	.LVL209:
 2794 0c64 0E94 0000 		call send_udp_prepare
 2795               	.LVL210:
 2796 0c68 6D2D      		mov r22,r13
 2797 0c6a 6D3D      		cpi r22,lo8(-35)
 2798 0c6c 00F0      		brlo .L246
 2799               	.LVL211:
 2800 0c6e 6CED      		ldi r22,lo8(-36)
 2801               	.LVL212:
 2802               	.L246:
 2803 0c70 DE01      		movw r26,r28
 2804 0c72 9A96      		adiw r26,42
 2805 0c74 20E0      		ldi r18,lo8(0)
 2806 0c76 30E0      		ldi r19,hi8(0)
 2807 0c78 00C0      		rjmp .L247
 2808               	.L248:
 2809               	.LM495:
 2810 0c7a F501      		movw r30,r10
 2811 0c7c E20F      		add r30,r18
 2812 0c7e F31F      		adc r31,r19
 2813 0c80 8081      		ld r24,Z
 2814 0c82 8D93      		st X+,r24
 2815 0c84 2F5F      		subi r18,lo8(-(1))
 2816 0c86 3F4F      		sbci r19,hi8(-(1))
 2817               	.L247:
 2818               	.LM496:
 2819 0c88 2617      		cp r18,r22
 2820 0c8a 00F0      		brlo .L248
 2821               	.LM497:
 2822 0c8c CE01      		movw r24,r28
 2823 0c8e 0E94 0000 		call send_udp_transmit
 2824               	.LVL213:
 2825               	/* epilogue start */
 2826               	.LM498:
 2827 0c92 DF91      		pop r29
 2828 0c94 CF91      		pop r28
 2829               	.LVL214:
 2830 0c96 1F91      		pop r17
 2831 0c98 0F91      		pop r16
 2832               	.LVL215:
 2833 0c9a FF90      		pop r15
 2834 0c9c EF90      		pop r14
 2835               	.LVL216:
 2836 0c9e DF90      		pop r13
 2837               	.LVL217:
 2838 0ca0 BF90      		pop r11
 2839 0ca2 AF90      		pop r10
 2840               	.LVL218:
 2841 0ca4 0895      		ret
 2842               	.LFE46:
 2844               	.global	client_arp_whohas
 2846               	client_arp_whohas:
 2847               	.LFB47:
 2848               	.LM499:
 2849               	.LVL219:
 2850 0ca6 CF93      		push r28
 2851 0ca8 DF93      		push r29
 2852               	/* prologue: function */
 2853               	/* frame size = 0 */
 2854 0caa EC01      		movw r28,r24
 2855               	.LM500:
 2856 0cac AC01      		movw r20,r24
 2857 0cae 20E0      		ldi r18,lo8(macaddr)
 2858 0cb0 30E0      		ldi r19,hi8(macaddr)
 2859 0cb2 FC01      		movw r30,r24
 2860 0cb4 D901      		movw r26,r18
 2861               	.LM501:
 2862 0cb6 9FEF      		ldi r25,lo8(-1)
 2863               	.L251:
 2864 0cb8 9083      		st Z,r25
 2865               	.LM502:
 2866 0cba 8D91      		ld r24,X+
 2867               	.LVL220:
 2868 0cbc 8683      		std Z+6,r24
 2869 0cbe 3196      		adiw r30,1
 2870               	.LM503:
 2871 0cc0 80E0      		ldi r24,hi8(macaddr+6)
 2872 0cc2 A030      		cpi r26,lo8(macaddr+6)
 2873 0cc4 B807      		cpc r27,r24
 2874 0cc6 01F4      		brne .L251
 2875               	.LM504:
 2876 0cc8 88E0      		ldi r24,lo8(8)
 2877 0cca 8C87      		std Y+12,r24
 2878               	.LM505:
 2879 0ccc 86E0      		ldi r24,lo8(6)
 2880 0cce 8D87      		std Y+13,r24
 2881 0cd0 DE01      		movw r26,r28
 2882 0cd2 E0E0      		ldi r30,lo8(arpreqhdr)
 2883 0cd4 F0E0      		ldi r31,hi8(arpreqhdr)
 2884               	.LVL221:
 2885               	.L252:
 2886               	.LBB303:
 2887               	.LBB304:
 2888               	.LBB305:
 2889               	.LM506:
 2890               	/* #APP */
 2891               	 ;  579 "ip_arp_udp_tcp.c" 1
 2892 0cd6 8491      		lpm r24, Z
 2893               		
 2894               	 ;  0 "" 2
 2895               	.LVL222:
 2896               	/* #NOAPP */
 2897               	.LBE305:
 2898 0cd8 1E96      		adiw r26,14
 2899 0cda 8C93      		st X,r24
 2900 0cdc 1E97      		sbiw r26,14
 2901               	.LM507:
 2902 0cde 3196      		adiw r30,1
 2903 0ce0 1196      		adiw r26,1
 2904               	.LM508:
 2905 0ce2 80E0      		ldi r24,hi8(arpreqhdr+8)
 2906 0ce4 E030      		cpi r30,lo8(arpreqhdr+8)
 2907 0ce6 F807      		cpc r31,r24
 2908               	.LVL223:
 2909 0ce8 01F4      		brne .L252
 2910               	.L256:
 2911               	.LBE304:
 2912               	.LBE303:
 2913               	.LM509:
 2914 0cea F901      		movw r30,r18
 2915               	.LVL224:
 2916 0cec 8191      		ld r24,Z+
 2917 0cee 9F01      		movw r18,r30
 2918 0cf0 FA01      		movw r30,r20
 2919 0cf2 868B      		std Z+22,r24
 2920               	.LM510:
 2921 0cf4 10A2      		std Z+32,__zero_reg__
 2922 0cf6 4F5F      		subi r20,lo8(-(1))
 2923 0cf8 5F4F      		sbci r21,hi8(-(1))
 2924               	.LM511:
 2925 0cfa F0E0      		ldi r31,hi8(macaddr+6)
 2926 0cfc 2030      		cpi r18,lo8(macaddr+6)
 2927 0cfe 3F07      		cpc r19,r31
 2928 0d00 01F4      		brne .L256
 2929 0d02 DE01      		movw r26,r28
 2930 0d04 5C96      		adiw r26,28
 2931 0d06 20E0      		ldi r18,lo8(0)
 2932 0d08 30E0      		ldi r19,hi8(0)
 2933               	.L254:
 2934               	.LM512:
 2935 0d0a FB01      		movw r30,r22
 2936 0d0c E20F      		add r30,r18
 2937 0d0e F31F      		adc r31,r19
 2938 0d10 8081      		ld r24,Z
 2939 0d12 1A96      		adiw r26,10
 2940 0d14 8C93      		st X,r24
 2941 0d16 1A97      		sbiw r26,10
 2942               	.LM513:
 2943 0d18 F901      		movw r30,r18
 2944 0d1a E050      		subi r30,lo8(-(ipaddr))
 2945 0d1c F040      		sbci r31,hi8(-(ipaddr))
 2946 0d1e 8081      		ld r24,Z
 2947 0d20 8D93      		st X+,r24
 2948 0d22 2F5F      		subi r18,lo8(-(1))
 2949 0d24 3F4F      		sbci r19,hi8(-(1))
 2950               	.LM514:
 2951 0d26 2430      		cpi r18,4
 2952 0d28 3105      		cpc r19,__zero_reg__
 2953 0d2a 01F4      		brne .L254
 2954               	.LM515:
 2955 0d2c 8091 0000 		lds r24,waitgwmac
 2956 0d30 8860      		ori r24,lo8(8)
 2957 0d32 8093 0000 		sts waitgwmac,r24
 2958               	.LM516:
 2959 0d36 8AE2      		ldi r24,lo8(42)
 2960 0d38 90E0      		ldi r25,hi8(42)
 2961 0d3a BE01      		movw r22,r28
 2962               	.LVL225:
 2963 0d3c 0E94 0000 		call enc28j60PacketSend
 2964               	/* epilogue start */
 2965               	.LM517:
 2966 0d40 DF91      		pop r29
 2967 0d42 CF91      		pop r28
 2968               	.LVL226:
 2969 0d44 0895      		ret
 2970               	.LFE47:
 2972               	.global	client_waiting_gw
 2974               	client_waiting_gw:
 2975               	.LFB48:
 2976               	.LM518:
 2977               	/* prologue: function */
 2978               	/* frame size = 0 */
 2979               	.LM519:
 2980 0d46 8091 0000 		lds r24,waitgwmac
 2981 0d4a 8695      		lsr r24
 2982 0d4c 8095      		com r24
 2983               	.LM520:
 2984 0d4e 8170      		andi r24,lo8(1)
 2985               	/* epilogue start */
 2986 0d50 0895      		ret
 2987               	.LFE48:
 2989               	.global	client_store_gw_mac
 2991               	client_store_gw_mac:
 2992               	.LFB49:
 2993               	.LM521:
 2994               	.LVL227:
 2995 0d52 CF93      		push r28
 2996 0d54 DF93      		push r29
 2997               	/* prologue: function */
 2998               	/* frame size = 0 */
 2999               	.LM522:
 3000 0d56 EC01      		movw r28,r24
 3001               	.LVL228:
 3002 0d58 E0E0      		ldi r30,lo8(gwip)
 3003 0d5a F0E0      		ldi r31,hi8(gwip)
 3004 0d5c DC01      		movw r26,r24
 3005               	.L266:
 3006               	.LM523:
 3007 0d5e 5C96      		adiw r26,28
 3008 0d60 9C91      		ld r25,X
 3009 0d62 5C97      		sbiw r26,28
 3010 0d64 8081      		ld r24,Z
 3011 0d66 9817      		cp r25,r24
 3012 0d68 01F0      		breq .L264
 3013 0d6a 80E0      		ldi r24,lo8(0)
 3014 0d6c 00C0      		rjmp .L265
 3015               	.L264:
 3016 0d6e 1196      		adiw r26,1
 3017 0d70 3196      		adiw r30,1
 3018               	.LM524:
 3019 0d72 80E0      		ldi r24,hi8(gwip+4)
 3020 0d74 E030      		cpi r30,lo8(gwip+4)
 3021 0d76 F807      		cpc r31,r24
 3022 0d78 01F4      		brne .L266
 3023 0d7a E0E0      		ldi r30,lo8(gwmacaddr)
 3024 0d7c F0E0      		ldi r31,hi8(gwmacaddr)
 3025               	.L267:
 3026               	.LM525:
 3027 0d7e 8E89      		ldd r24,Y+22
 3028 0d80 8193      		st Z+,r24
 3029 0d82 2196      		adiw r28,1
 3030               	.LM526:
 3031 0d84 80E0      		ldi r24,hi8(gwmacaddr+6)
 3032 0d86 E030      		cpi r30,lo8(gwmacaddr+6)
 3033 0d88 F807      		cpc r31,r24
 3034 0d8a 01F4      		brne .L267
 3035 0d8c 81E0      		ldi r24,lo8(1)
 3036               	.L265:
 3037               	/* epilogue start */
 3038               	.LM527:
 3039 0d8e DF91      		pop r29
 3040 0d90 CF91      		pop r28
 3041 0d92 0895      		ret
 3042               	.LFE49:
 3044               	.global	client_gw_arp_refresh
 3046               	client_gw_arp_refresh:
 3047               	.LFB50:
 3048               	.LM528:
 3049               	/* prologue: function */
 3050               	/* frame size = 0 */
 3051               	.LM529:
 3052 0d94 8091 0000 		lds r24,waitgwmac
 3053 0d98 81FF      		sbrs r24,1
 3054 0d9a 00C0      		rjmp .L273
 3055               	.LM530:
 3056 0d9c 8460      		ori r24,lo8(4)
 3057 0d9e 8093 0000 		sts waitgwmac,r24
 3058               	.L273:
 3059 0da2 0895      		ret
 3060               	.LFE50:
 3062               	.global	client_set_gwip
 3064               	client_set_gwip:
 3065               	.LFB51:
 3066               	.LM531:
 3067               	.LVL229:
 3068               	/* prologue: function */
 3069               	/* frame size = 0 */
 3070 0da4 AC01      		movw r20,r24
 3071               	.LM532:
 3072 0da6 81E0      		ldi r24,lo8(1)
 3073               	.LVL230:
 3074 0da8 8093 0000 		sts waitgwmac,r24
 3075 0dac 20E0      		ldi r18,lo8(0)
 3076 0dae 30E0      		ldi r19,hi8(0)
 3077               	.L275:
 3078               	.LM533:
 3079 0db0 F901      		movw r30,r18
 3080 0db2 E050      		subi r30,lo8(-(gwip))
 3081 0db4 F040      		sbci r31,hi8(-(gwip))
 3082 0db6 DA01      		movw r26,r20
 3083 0db8 A20F      		add r26,r18
 3084 0dba B31F      		adc r27,r19
 3085 0dbc 8C91      		ld r24,X
 3086 0dbe 8083      		st Z,r24
 3087 0dc0 2F5F      		subi r18,lo8(-(1))
 3088 0dc2 3F4F      		sbci r19,hi8(-(1))
 3089               	.LM534:
 3090 0dc4 2430      		cpi r18,4
 3091 0dc6 3105      		cpc r19,__zero_reg__
 3092 0dc8 01F4      		brne .L275
 3093               	/* epilogue start */
 3094               	.LM535:
 3095 0dca 0895      		ret
 3096               	.LFE51:
 3098               	.global	client_tcp_set_serverip
 3100               	client_tcp_set_serverip:
 3101               	.LFB52:
 3102               	.LM536:
 3103               	.LVL231:
 3104               	/* prologue: function */
 3105               	/* frame size = 0 */
 3106 0dcc AC01      		movw r20,r24
 3107               	.LM537:
 3108 0dce 20E0      		ldi r18,lo8(0)
 3109 0dd0 30E0      		ldi r19,hi8(0)
 3110               	.LVL232:
 3111               	.L279:
 3112               	.LM538:
 3113 0dd2 F901      		movw r30,r18
 3114 0dd4 E050      		subi r30,lo8(-(tcpsrvip))
 3115 0dd6 F040      		sbci r31,hi8(-(tcpsrvip))
 3116 0dd8 DA01      		movw r26,r20
 3117 0dda A20F      		add r26,r18
 3118 0ddc B31F      		adc r27,r19
 3119 0dde 8C91      		ld r24,X
 3120 0de0 8083      		st Z,r24
 3121 0de2 2F5F      		subi r18,lo8(-(1))
 3122 0de4 3F4F      		sbci r19,hi8(-(1))
 3123               	.LM539:
 3124 0de6 2430      		cpi r18,4
 3125 0de8 3105      		cpc r19,__zero_reg__
 3126 0dea 01F4      		brne .L279
 3127               	/* epilogue start */
 3128               	.LM540:
 3129 0dec 0895      		ret
 3130               	.LFE52:
 3132               	.global	client_syn
 3134               	client_syn:
 3135               	.LFB53:
 3136               	.LM541:
 3137               	.LVL233:
 3138 0dee FF92      		push r15
 3139 0df0 0F93      		push r16
 3140 0df2 1F93      		push r17
 3141 0df4 CF93      		push r28
 3142 0df6 DF93      		push r29
 3143               	/* prologue: function */
 3144               	/* frame size = 0 */
 3145 0df8 EC01      		movw r28,r24
 3146 0dfa F62E      		mov r15,r22
 3147 0dfc 142F      		mov r17,r20
 3148 0dfe 022F      		mov r16,r18
 3149               	.LM542:
 3150 0e00 AC01      		movw r20,r24
 3151               	.LVL234:
 3152 0e02 DC01      		movw r26,r24
 3153 0e04 20E0      		ldi r18,lo8(0)
 3154 0e06 30E0      		ldi r19,hi8(0)
 3155               	.LVL235:
 3156               	.L283:
 3157               	.LM543:
 3158 0e08 F901      		movw r30,r18
 3159 0e0a E050      		subi r30,lo8(-(gwmacaddr))
 3160 0e0c F040      		sbci r31,hi8(-(gwmacaddr))
 3161 0e0e 8081      		ld r24,Z
 3162               	.LVL236:
 3163 0e10 8C93      		st X,r24
 3164               	.LM544:
 3165 0e12 F901      		movw r30,r18
 3166 0e14 E050      		subi r30,lo8(-(macaddr))
 3167 0e16 F040      		sbci r31,hi8(-(macaddr))
 3168 0e18 8081      		ld r24,Z
 3169 0e1a 1696      		adiw r26,6
 3170 0e1c 8C93      		st X,r24
 3171 0e1e 1697      		sbiw r26,6
 3172 0e20 2F5F      		subi r18,lo8(-(1))
 3173 0e22 3F4F      		sbci r19,hi8(-(1))
 3174 0e24 1196      		adiw r26,1
 3175               	.LM545:
 3176 0e26 2630      		cpi r18,6
 3177 0e28 3105      		cpc r19,__zero_reg__
 3178 0e2a 01F4      		brne .L283
 3179               	.LM546:
 3180 0e2c 88E0      		ldi r24,lo8(8)
 3181 0e2e 8C87      		std Y+12,r24
 3182               	.LM547:
 3183 0e30 1D86      		std Y+13,__zero_reg__
 3184 0e32 DE01      		movw r26,r28
 3185 0e34 E0E0      		ldi r30,lo8(iphdr)
 3186 0e36 F0E0      		ldi r31,hi8(iphdr)
 3187               	.LVL237:
 3188               	.L284:
 3189               	.LBB306:
 3190               	.LBB307:
 3191               	.LBB308:
 3192               	.LM548:
 3193               	/* #APP */
 3194               	 ;  579 "ip_arp_udp_tcp.c" 1
 3195 0e38 8491      		lpm r24, Z
 3196               		
 3197               	 ;  0 "" 2
 3198               	.LVL238:
 3199               	/* #NOAPP */
 3200               	.LBE308:
 3201 0e3a 1E96      		adiw r26,14
 3202 0e3c 8C93      		st X,r24
 3203 0e3e 1E97      		sbiw r26,14
 3204               	.LM549:
 3205 0e40 3196      		adiw r30,1
 3206 0e42 1196      		adiw r26,1
 3207               	.LM550:
 3208 0e44 80E0      		ldi r24,hi8(iphdr+9)
 3209 0e46 E030      		cpi r30,lo8(iphdr+9)
 3210 0e48 F807      		cpc r31,r24
 3211               	.LVL239:
 3212 0e4a 01F4      		brne .L284
 3213               	.LBE307:
 3214               	.LBE306:
 3215               	.LM551:
 3216 0e4c 8CE2      		ldi r24,lo8(44)
 3217 0e4e 898B      		std Y+17,r24
 3218               	.LM552:
 3219 0e50 86E0      		ldi r24,lo8(6)
 3220 0e52 8F8B      		std Y+23,r24
 3221 0e54 20E0      		ldi r18,lo8(0)
 3222 0e56 30E0      		ldi r19,hi8(0)
 3223               	.L285:
 3224               	.LM553:
 3225 0e58 F901      		movw r30,r18
 3226               	.LVL240:
 3227 0e5a E050      		subi r30,lo8(-(tcpsrvip))
 3228 0e5c F040      		sbci r31,hi8(-(tcpsrvip))
 3229 0e5e 8081      		ld r24,Z
 3230 0e60 FA01      		movw r30,r20
 3231 0e62 868F      		std Z+30,r24
 3232               	.LM554:
 3233 0e64 F901      		movw r30,r18
 3234 0e66 E050      		subi r30,lo8(-(ipaddr))
 3235 0e68 F040      		sbci r31,hi8(-(ipaddr))
 3236 0e6a 8081      		ld r24,Z
 3237 0e6c FA01      		movw r30,r20
 3238 0e6e 828F      		std Z+26,r24
 3239 0e70 2F5F      		subi r18,lo8(-(1))
 3240 0e72 3F4F      		sbci r19,hi8(-(1))
 3241 0e74 4F5F      		subi r20,lo8(-(1))
 3242 0e76 5F4F      		sbci r21,hi8(-(1))
 3243               	.LM555:
 3244 0e78 2430      		cpi r18,4
 3245 0e7a 3105      		cpc r19,__zero_reg__
 3246 0e7c 01F4      		brne .L285
 3247               	.LM556:
 3248 0e7e CE01      		movw r24,r28
 3249 0e80 0E94 0000 		call fill_ip_hdr_checksum
 3250               	.LM557:
 3251 0e84 1CA3      		std Y+36,r17
 3252               	.LM558:
 3253 0e86 0DA3      		std Y+37,r16
 3254               	.LM559:
 3255 0e88 8BE0      		ldi r24,lo8(11)
 3256 0e8a 8AA3      		std Y+34,r24
 3257               	.LM560:
 3258 0e8c FBA2      		std Y+35,r15
 3259 0e8e FE01      		movw r30,r28
 3260 0e90 B696      		adiw r30,38
 3261 0e92 80E0      		ldi r24,lo8(0)
 3262               	.LVL241:
 3263               	.L286:
 3264               	.LM561:
 3265 0e94 1192      		st Z+,__zero_reg__
 3266               	.LM562:
 3267 0e96 8F5F      		subi r24,lo8(-(1))
 3268               	.LM563:
 3269 0e98 8830      		cpi r24,lo8(8)
 3270 0e9a 01F4      		brne .L286
 3271               	.LM564:
 3272 0e9c 8091 0000 		lds r24,seqnum
 3273               	.LVL242:
 3274 0ea0 88A7      		std Y+40,r24
 3275               	.LM565:
 3276 0ea2 8D5F      		subi r24,lo8(-(3))
 3277 0ea4 8093 0000 		sts seqnum,r24
 3278               	.LM566:
 3279 0ea8 80E6      		ldi r24,lo8(96)
 3280 0eaa 8EA7      		std Y+46,r24
 3281               	.LM567:
 3282 0eac 92E0      		ldi r25,lo8(2)
 3283 0eae 9FA7      		std Y+47,r25
 3284               	.LM568:
 3285 0eb0 83E0      		ldi r24,lo8(3)
 3286 0eb2 88AB      		std Y+48,r24
 3287               	.LM569:
 3288 0eb4 19AA      		std Y+49,__zero_reg__
 3289               	.LM570:
 3290 0eb6 1AAA      		std Y+50,__zero_reg__
 3291               	.LM571:
 3292 0eb8 1BAA      		std Y+51,__zero_reg__
 3293               	.LM572:
 3294 0eba 1CAA      		std Y+52,__zero_reg__
 3295               	.LM573:
 3296 0ebc 1DAA      		std Y+53,__zero_reg__
 3297               	.LM574:
 3298 0ebe 9EAB      		std Y+54,r25
 3299               	.LM575:
 3300 0ec0 84E0      		ldi r24,lo8(4)
 3301 0ec2 8FAB      		std Y+55,r24
 3302               	.LM576:
 3303 0ec4 98AF      		std Y+56,r25
 3304               	.LM577:
 3305 0ec6 86E2      		ldi r24,lo8(38)
 3306 0ec8 89AF      		std Y+57,r24
 3307               	.LM578:
 3308 0eca CE01      		movw r24,r28
 3309 0ecc 4A96      		adiw r24,26
 3310 0ece 60E2      		ldi r22,lo8(32)
 3311 0ed0 70E0      		ldi r23,hi8(32)
 3312 0ed2 42E0      		ldi r20,lo8(2)
 3313 0ed4 0E94 0000 		call checksum
 3314               	.LM579:
 3315 0ed8 9AAB      		std Y+50,r25
 3316               	.LM580:
 3317 0eda 8BAB      		std Y+51,r24
 3318               	.LM581:
 3319 0edc 8AE3      		ldi r24,lo8(58)
 3320 0ede 90E0      		ldi r25,hi8(58)
 3321 0ee0 BE01      		movw r22,r28
 3322 0ee2 0E94 0000 		call enc28j60PacketSend
 3323               	/* epilogue start */
 3324               	.LM582:
 3325 0ee6 DF91      		pop r29
 3326 0ee8 CF91      		pop r28
 3327               	.LVL243:
 3328 0eea 1F91      		pop r17
 3329               	.LVL244:
 3330 0eec 0F91      		pop r16
 3331               	.LVL245:
 3332 0eee FF90      		pop r15
 3333               	.LVL246:
 3334 0ef0 0895      		ret
 3335               	.LFE53:
 3337               	.global	client_tcp_req
 3339               	client_tcp_req:
 3340               	.LFB54:
 3341               	.LM583:
 3342               	.LVL247:
 3343               	/* prologue: function */
 3344               	/* frame size = 0 */
 3345               	.LM584:
 3346 0ef2 9093 0000 		sts (client_tcp_result_callback)+1,r25
 3347 0ef6 8093 0000 		sts client_tcp_result_callback,r24
 3348               	.LM585:
 3349 0efa 7093 0000 		sts (client_tcp_datafill_callback)+1,r23
 3350 0efe 6093 0000 		sts client_tcp_datafill_callback,r22
 3351               	.LM586:
 3352 0f02 5093 0000 		sts tcp_client_port_h,r21
 3353               	.LVL248:
 3354               	.LM587:
 3355 0f06 4093 0000 		sts tcp_client_port_l,r20
 3356               	.LM588:
 3357 0f0a 81E0      		ldi r24,lo8(1)
 3358               	.LVL249:
 3359 0f0c 8093 0000 		sts tcp_client_state,r24
 3360               	.LM589:
 3361 0f10 8091 0000 		lds r24,tcp_fd
 3362 0f14 8F5F      		subi r24,lo8(-(1))
 3363 0f16 8093 0000 		sts tcp_fd,r24
 3364               	.LM590:
 3365 0f1a 8830      		cpi r24,lo8(8)
 3366 0f1c 00F0      		brlo .L293
 3367               	.LM591:
 3368 0f1e 1092 0000 		sts tcp_fd,__zero_reg__
 3369               	.L293:
 3370               	.LM592:
 3371 0f22 8091 0000 		lds r24,tcp_fd
 3372               	/* epilogue start */
 3373 0f26 0895      		ret
 3374               	.LFE54:
 3376               	.global	client_browse_url
 3378               	client_browse_url:
 3379               	.LFB57:
 3380               	.LM593:
 3381               	.LVL250:
 3382               	/* prologue: function */
 3383               	/* frame size = 0 */
 3384               	.LM594:
 3385 0f28 9093 0000 		sts (client_urlbuf)+1,r25
 3386 0f2c 8093 0000 		sts client_urlbuf,r24
 3387               	.LM595:
 3388 0f30 7093 0000 		sts (client_urlbuf_var)+1,r23
 3389 0f34 6093 0000 		sts client_urlbuf_var,r22
 3390               	.LM596:
 3391 0f38 5093 0000 		sts (client_hoststr)+1,r21
 3392 0f3c 4093 0000 		sts client_hoststr,r20
 3393               	.LM597:
 3394 0f40 1092 0000 		sts browsertype,__zero_reg__
 3395               	.LM598:
 3396 0f44 3093 0000 		sts (client_browser_callback)+1,r19
 3397 0f48 2093 0000 		sts client_browser_callback,r18
 3398               	.LBB309:
 3399               	.LBB310:
 3400               	.LM599:
 3401 0f4c 80E0      		ldi r24,lo8(gs(www_client_internal_result_callback))
 3402 0f4e 90E0      		ldi r25,hi8(gs(www_client_internal_result_callback))
 3403               	.LVL251:
 3404 0f50 9093 0000 		sts (client_tcp_result_callback)+1,r25
 3405 0f54 8093 0000 		sts client_tcp_result_callback,r24
 3406               	.LM600:
 3407 0f58 80E0      		ldi r24,lo8(gs(www_client_internal_datafill_callback))
 3408 0f5a 90E0      		ldi r25,hi8(gs(www_client_internal_datafill_callback))
 3409 0f5c 9093 0000 		sts (client_tcp_datafill_callback)+1,r25
 3410 0f60 8093 0000 		sts client_tcp_datafill_callback,r24
 3411               	.LM601:
 3412 0f64 1092 0000 		sts tcp_client_port_h,__zero_reg__
 3413               	.LM602:
 3414 0f68 80E5      		ldi r24,lo8(80)
 3415 0f6a 8093 0000 		sts tcp_client_port_l,r24
 3416               	.LM603:
 3417 0f6e 81E0      		ldi r24,lo8(1)
 3418 0f70 8093 0000 		sts tcp_client_state,r24
 3419               	.LM604:
 3420 0f74 8091 0000 		lds r24,tcp_fd
 3421 0f78 8F5F      		subi r24,lo8(-(1))
 3422 0f7a 8093 0000 		sts tcp_fd,r24
 3423               	.LM605:
 3424 0f7e 8830      		cpi r24,lo8(8)
 3425 0f80 00F0      		brlo .L296
 3426               	.LM606:
 3427 0f82 1092 0000 		sts tcp_fd,__zero_reg__
 3428               	.L296:
 3429               	.LBE310:
 3430               	.LBE309:
 3431               	.LM607:
 3432 0f86 8091 0000 		lds r24,tcp_fd
 3433 0f8a 8093 0000 		sts www_fd,r24
 3434               	/* epilogue start */
 3435               	.LM608:
 3436 0f8e 0895      		ret
 3437               	.LFE57:
 3439               	.global	client_http_post
 3441               	client_http_post:
 3442               	.LFB58:
 3443               	.LM609:
 3444               	.LVL252:
 3445 0f90 0F93      		push r16
 3446               	.LVL253:
 3447 0f92 1F93      		push r17
 3448               	/* prologue: function */
 3449               	/* frame size = 0 */
 3450               	.LM610:
 3451 0f94 9093 0000 		sts (client_urlbuf)+1,r25
 3452 0f98 8093 0000 		sts client_urlbuf,r24
 3453               	.LM611:
 3454 0f9c 7093 0000 		sts (client_hoststr)+1,r23
 3455 0fa0 6093 0000 		sts client_hoststr,r22
 3456               	.LM612:
 3457 0fa4 5093 0000 		sts (client_additionalheaderline)+1,r21
 3458 0fa8 4093 0000 		sts client_additionalheaderline,r20
 3459               	.LM613:
 3460 0fac 3093 0000 		sts (client_postval)+1,r19
 3461 0fb0 2093 0000 		sts client_postval,r18
 3462               	.LM614:
 3463 0fb4 21E0      		ldi r18,lo8(1)
 3464               	.LVL254:
 3465 0fb6 2093 0000 		sts browsertype,r18
 3466               	.LM615:
 3467 0fba 1093 0000 		sts (client_browser_callback)+1,r17
 3468 0fbe 0093 0000 		sts client_browser_callback,r16
 3469               	.LVL255:
 3470               	.LBB311:
 3471               	.LBB312:
 3472               	.LM616:
 3473 0fc2 80E0      		ldi r24,lo8(gs(www_client_internal_result_callback))
 3474 0fc4 90E0      		ldi r25,hi8(gs(www_client_internal_result_callback))
 3475               	.LVL256:
 3476 0fc6 9093 0000 		sts (client_tcp_result_callback)+1,r25
 3477 0fca 8093 0000 		sts client_tcp_result_callback,r24
 3478               	.LM617:
 3479 0fce 80E0      		ldi r24,lo8(gs(www_client_internal_datafill_callback))
 3480 0fd0 90E0      		ldi r25,hi8(gs(www_client_internal_datafill_callback))
 3481 0fd2 9093 0000 		sts (client_tcp_datafill_callback)+1,r25
 3482 0fd6 8093 0000 		sts client_tcp_datafill_callback,r24
 3483               	.LM618:
 3484 0fda 1092 0000 		sts tcp_client_port_h,__zero_reg__
 3485               	.LM619:
 3486 0fde 80E5      		ldi r24,lo8(80)
 3487 0fe0 8093 0000 		sts tcp_client_port_l,r24
 3488               	.LM620:
 3489 0fe4 2093 0000 		sts tcp_client_state,r18
 3490               	.LM621:
 3491 0fe8 8091 0000 		lds r24,tcp_fd
 3492 0fec 8F5F      		subi r24,lo8(-(1))
 3493 0fee 8093 0000 		sts tcp_fd,r24
 3494               	.LM622:
 3495 0ff2 8830      		cpi r24,lo8(8)
 3496 0ff4 00F0      		brlo .L299
 3497               	.LM623:
 3498 0ff6 1092 0000 		sts tcp_fd,__zero_reg__
 3499               	.L299:
 3500               	.LBE312:
 3501               	.LBE311:
 3502               	.LM624:
 3503 0ffa 8091 0000 		lds r24,tcp_fd
 3504 0ffe 8093 0000 		sts www_fd,r24
 3505               	/* epilogue start */
 3506               	.LM625:
 3507 1002 1F91      		pop r17
 3508 1004 0F91      		pop r16
 3509               	.LVL257:
 3510 1006 0895      		ret
 3511               	.LFE58:
 3513               	.global	register_ping_rec_callback
 3515               	register_ping_rec_callback:
 3516               	.LFB59:
 3517               	.LM626:
 3518               	.LVL258:
 3519               	/* prologue: function */
 3520               	/* frame size = 0 */
 3521               	.LM627:
 3522 1008 9093 0000 		sts (icmp_callback)+1,r25
 3523 100c 8093 0000 		sts icmp_callback,r24
 3524               	/* epilogue start */
 3525               	.LM628:
 3526 1010 0895      		ret
 3527               	.LFE59:
 3529               	.global	packetloop_icmp_tcp
 3531               	packetloop_icmp_tcp:
 3532               	.LFB60:
 3533               	.LM629:
 3534               	.LVL259:
 3535 1012 CF92      		push r12
 3536 1014 DF92      		push r13
 3537 1016 EF92      		push r14
 3538 1018 FF92      		push r15
 3539 101a 0F93      		push r16
 3540 101c 1F93      		push r17
 3541 101e CF93      		push r28
 3542 1020 DF93      		push r29
 3543               	/* prologue: function */
 3544               	/* frame size = 0 */
 3545 1022 7C01      		movw r14,r24
 3546 1024 6B01      		movw r12,r22
 3547               	.LM630:
 3548 1026 6115      		cp r22,__zero_reg__
 3549 1028 7105      		cpc r23,__zero_reg__
 3550 102a 01F4      		brne .L304
 3551               	.LVL260:
 3552               	.LM631:
 3553 102c 8091 0000 		lds r24,waitgwmac
 3554 1030 8570      		andi r24,lo8(5)
 3555 1032 01F0      		breq .L305
 3556 1034 8091 0000 		lds r24,delaycnt
 3557 1038 9091 0000 		lds r25,(delaycnt)+1
 3558 103c 892B      		or r24,r25
 3559 103e 01F4      		brne .L305
 3560 1040 0E94 0000 		call enc28j60linkup
 3561               	.LVL261:
 3562 1044 8823      		tst r24
 3563 1046 01F0      		breq .L305
 3564               	.LM632:
 3565 1048 C701      		movw r24,r14
 3566 104a 60E0      		ldi r22,lo8(gwip)
 3567 104c 70E0      		ldi r23,hi8(gwip)
 3568 104e 0E94 0000 		call client_arp_whohas
 3569               	.LVL262:
 3570               	.L305:
 3571               	.LM633:
 3572 1052 8091 0000 		lds r24,delaycnt
 3573 1056 9091 0000 		lds r25,(delaycnt)+1
 3574 105a 0196      		adiw r24,1
 3575 105c 9093 0000 		sts (delaycnt)+1,r25
 3576 1060 8093 0000 		sts delaycnt,r24
 3577               	.LM634:
 3578 1064 8091 0000 		lds r24,tcp_client_state
 3579 1068 8130      		cpi r24,lo8(1)
 3580 106a 01F0      		breq .+2
 3581 106c 00C0      		rjmp .L306
 3582 106e 8091 0000 		lds r24,waitgwmac
 3583 1072 81FF      		sbrs r24,1
 3584 1074 00C0      		rjmp .L306
 3585               	.LM635:
 3586 1076 82E0      		ldi r24,lo8(2)
 3587 1078 8093 0000 		sts tcp_client_state,r24
 3588               	.LM636:
 3589 107c 8091 0000 		lds r24,tcpclient_src_port_l
 3590 1080 8F5F      		subi r24,lo8(-(1))
 3591 1082 8093 0000 		sts tcpclient_src_port_l,r24
 3592               	.LM637:
 3593 1086 8F71      		andi r24,lo8(31)
 3594 1088 6091 0000 		lds r22,tcp_fd
 3595 108c 6295      		swap r22
 3596 108e 660F      		lsl r22
 3597 1090 607E      		andi r22,lo8(-32)
 3598 1092 682B      		or r22,r24
 3599 1094 C701      		movw r24,r14
 3600 1096 4091 0000 		lds r20,tcp_client_port_h
 3601 109a 2091 0000 		lds r18,tcp_client_port_l
 3602 109e 0E94 0000 		call client_syn
 3603 10a2 00C0      		rjmp .L306
 3604               	.LVL263:
 3605               	.L304:
 3606               	.LM638:
 3607 10a4 0E94 0000 		call eth_type_is_arp_and_my_ip
 3608               	.LVL264:
 3609 10a8 8823      		tst r24
 3610 10aa 01F0      		breq .L308
 3611               	.LM639:
 3612 10ac D701      		movw r26,r14
 3613 10ae 5596      		adiw r26,21
 3614 10b0 8C91      		ld r24,X
 3615 10b2 8130      		cpi r24,lo8(1)
 3616 10b4 01F4      		brne .L309
 3617               	.LM640:
 3618 10b6 C701      		movw r24,r14
 3619 10b8 0E94 0000 		call make_arp_answer_from_request
 3620               	.L309:
 3621               	.LM641:
 3622 10bc 8091 0000 		lds r24,waitgwmac
 3623 10c0 83FF      		sbrs r24,3
 3624 10c2 00C0      		rjmp .L306
 3625 10c4 F701      		movw r30,r14
 3626 10c6 8589      		ldd r24,Z+21
 3627 10c8 8230      		cpi r24,lo8(2)
 3628 10ca 01F0      		breq .+2
 3629 10cc 00C0      		rjmp .L306
 3630 10ce E701      		movw r28,r14
 3631 10d0 E0E0      		ldi r30,lo8(gwip)
 3632 10d2 F0E0      		ldi r31,hi8(gwip)
 3633 10d4 D701      		movw r26,r14
 3634               	.LVL265:
 3635               	.L310:
 3636               	.LBB313:
 3637               	.LBB314:
 3638               	.LM642:
 3639 10d6 5C96      		adiw r26,28
 3640 10d8 9C91      		ld r25,X
 3641 10da 5C97      		sbiw r26,28
 3642 10dc 8081      		ld r24,Z
 3643 10de 9817      		cp r25,r24
 3644 10e0 01F0      		breq .+2
 3645 10e2 00C0      		rjmp .L306
 3646 10e4 1196      		adiw r26,1
 3647 10e6 3196      		adiw r30,1
 3648               	.LM643:
 3649 10e8 80E0      		ldi r24,hi8(gwip+4)
 3650 10ea E030      		cpi r30,lo8(gwip+4)
 3651 10ec F807      		cpc r31,r24
 3652 10ee 01F4      		brne .L310
 3653 10f0 E0E0      		ldi r30,lo8(gwmacaddr)
 3654 10f2 F0E0      		ldi r31,hi8(gwmacaddr)
 3655               	.L311:
 3656               	.LM644:
 3657 10f4 8E89      		ldd r24,Y+22
 3658 10f6 8193      		st Z+,r24
 3659 10f8 2196      		adiw r28,1
 3660               	.LM645:
 3661 10fa 90E0      		ldi r25,hi8(gwmacaddr+6)
 3662 10fc E030      		cpi r30,lo8(gwmacaddr+6)
 3663 10fe F907      		cpc r31,r25
 3664 1100 01F4      		brne .L311
 3665 1102 00C0      		rjmp .L348
 3666               	.LVL266:
 3667               	.L308:
 3668               	.LBE314:
 3669               	.LBE313:
 3670               	.LM646:
 3671 1104 C701      		movw r24,r14
 3672 1106 B601      		movw r22,r12
 3673 1108 0E94 0000 		call eth_type_is_ip_and_my_ip
 3674 110c 8823      		tst r24
 3675 110e 01F4      		brne .+2
 3676 1110 00C0      		rjmp .L306
 3677               	.LM647:
 3678 1112 D701      		movw r26,r14
 3679 1114 5796      		adiw r26,23
 3680 1116 9C91      		ld r25,X
 3681 1118 5797      		sbiw r26,23
 3682 111a 9130      		cpi r25,lo8(1)
 3683 111c 01F4      		brne .L313
 3684 111e 9296      		adiw r26,34
 3685 1120 8C91      		ld r24,X
 3686 1122 8830      		cpi r24,lo8(8)
 3687 1124 01F4      		brne .L313
 3688               	.LM648:
 3689 1126 E091 0000 		lds r30,icmp_callback
 3690 112a F091 0000 		lds r31,(icmp_callback)+1
 3691 112e 3097      		sbiw r30,0
 3692 1130 01F0      		breq .L314
 3693               	.LM649:
 3694 1132 C701      		movw r24,r14
 3695 1134 4A96      		adiw r24,26
 3696 1136 0995      		icall
 3697               	.L314:
 3698               	.LM650:
 3699 1138 C701      		movw r24,r14
 3700 113a B601      		movw r22,r12
 3701 113c 0E94 0000 		call make_echo_reply_from_request
 3702 1140 00C0      		rjmp .L306
 3703               	.L313:
 3704               	.LM651:
 3705 1142 B6E3      		ldi r27,lo8(54)
 3706 1144 CB16      		cp r12,r27
 3707 1146 D104      		cpc r13,__zero_reg__
 3708 1148 00F4      		brsh .L315
 3709 114a 9630      		cpi r25,lo8(6)
 3710 114c 01F0      		breq .+2
 3711 114e 00C0      		rjmp .L306
 3712               	.L315:
 3713               	.LM652:
 3714 1150 F701      		movw r30,r14
 3715 1152 94A1      		ldd r25,Z+36
 3716 1154 9B30      		cpi r25,lo8(11)
 3717 1156 01F0      		breq .+2
 3718 1158 00C0      		rjmp .L316
 3719               	.LM653:
 3720 115a F092 0000 		sts (bufptr)+1,r15
 3721 115e E092 0000 		sts bufptr,r14
 3722 1162 D701      		movw r26,r14
 3723 1164 E0E0      		ldi r30,lo8(tcpsrvip)
 3724 1166 F0E0      		ldi r31,hi8(tcpsrvip)
 3725               	.L317:
 3726               	.LBB315:
 3727               	.LBB316:
 3728               	.LM654:
 3729 1168 5A96      		adiw r26,26
 3730 116a 9C91      		ld r25,X
 3731 116c 5A97      		sbiw r26,26
 3732 116e 8081      		ld r24,Z
 3733 1170 9817      		cp r25,r24
 3734 1172 01F0      		breq .+2
 3735 1174 00C0      		rjmp .L306
 3736 1176 1196      		adiw r26,1
 3737 1178 3196      		adiw r30,1
 3738               	.LM655:
 3739 117a 80E0      		ldi r24,hi8(tcpsrvip+4)
 3740 117c E030      		cpi r30,lo8(tcpsrvip+4)
 3741 117e F807      		cpc r31,r24
 3742 1180 01F4      		brne .L317
 3743 1182 00C0      		rjmp .L349
 3744               	.L335:
 3745               	.LBE316:
 3746               	.LBE315:
 3747               	.LM656:
 3748 1184 E091 0000 		lds r30,client_tcp_result_callback
 3749 1188 F091 0000 		lds r31,(client_tcp_result_callback)+1
 3750 118c 3097      		sbiw r30,0
 3751 118e 01F4      		brne .+2
 3752 1190 00C0      		rjmp .L346
 3753               	.LM657:
 3754 1192 D701      		movw r26,r14
 3755 1194 9596      		adiw r26,37
 3756 1196 8C91      		ld r24,X
 3757 1198 8295      		swap r24
 3758 119a 8695      		lsr r24
 3759 119c 8770      		andi r24,lo8(7)
 3760 119e 63E0      		ldi r22,lo8(3)
 3761 11a0 40E0      		ldi r20,lo8(0)
 3762 11a2 50E0      		ldi r21,hi8(0)
 3763 11a4 20E0      		ldi r18,lo8(0)
 3764 11a6 30E0      		ldi r19,hi8(0)
 3765 11a8 0995      		icall
 3766 11aa 00C0      		rjmp .L346
 3767               	.L350:
 3768               	.LBB317:
 3769               	.LBB318:
 3770               	.LM658:
 3771 11ac F701      		movw r30,r14
 3772 11ae 9089      		ldd r25,Z+16
 3773 11b0 80E0      		ldi r24,lo8(0)
 3774 11b2 2189      		ldd r18,Z+17
 3775 11b4 022F      		mov r16,r18
 3776               	.LVL267:
 3777 11b6 10E0      		ldi r17,lo8(0)
 3778               	.LVL268:
 3779 11b8 082B      		or r16,r24
 3780 11ba 192B      		or r17,r25
 3781               	.LVL269:
 3782               	.LM659:
 3783 11bc 26A5      		ldd r18,Z+46
 3784 11be 822F      		mov r24,r18
 3785 11c0 8295      		swap r24
 3786 11c2 8F70      		andi r24,lo8(15)
 3787 11c4 90E0      		ldi r25,lo8(0)
 3788 11c6 880F      		lsl r24
 3789 11c8 991F      		rol r25
 3790 11ca 880F      		lsl r24
 3791 11cc 991F      		rol r25
 3792 11ce 081B      		sub r16,r24
 3793 11d0 190B      		sbc r17,r25
 3794               	.LM660:
 3795 11d2 0451      		subi r16,lo8(-(-20))
 3796 11d4 1040      		sbci r17,hi8(-(-20))
 3797 11d6 17FF      		sbrs r17,7
 3798 11d8 00C0      		rjmp .L320
 3799 11da 00E0      		ldi r16,lo8(0)
 3800 11dc 10E0      		ldi r17,hi8(0)
 3801               	.L320:
 3802               	.LM661:
 3803 11de E801      		movw r28,r16
 3804               	.LVL270:
 3805               	.LBE318:
 3806               	.LBE317:
 3807               	.LM662:
 3808 11e0 8091 0000 		lds r24,tcp_client_state
 3809 11e4 8230      		cpi r24,lo8(2)
 3810 11e6 01F4      		brne .L321
 3811               	.LM663:
 3812 11e8 31FF      		sbrs r19,1
 3813 11ea 00C0      		rjmp .L322
 3814 11ec 34FF      		sbrs r19,4
 3815 11ee 00C0      		rjmp .L322
 3816               	.LM664:
 3817 11f0 C701      		movw r24,r14
 3818 11f2 60E0      		ldi r22,lo8(0)
 3819 11f4 70E0      		ldi r23,hi8(0)
 3820 11f6 40E0      		ldi r20,lo8(0)
 3821 11f8 0E94 0000 		call make_tcp_ack_from_any
 3822               	.LM665:
 3823 11fc 88E1      		ldi r24,lo8(24)
 3824 11fe D701      		movw r26,r14
 3825 1200 9F96      		adiw r26,47
 3826 1202 8C93      		st X,r24
 3827               	.LM666:
 3828 1204 E091 0000 		lds r30,client_tcp_datafill_callback
 3829 1208 F091 0000 		lds r31,(client_tcp_datafill_callback)+1
 3830 120c 3097      		sbiw r30,0
 3831 120e 01F4      		brne .L323
 3832 1210 60E0      		ldi r22,lo8(0)
 3833 1212 70E0      		ldi r23,hi8(0)
 3834               	.LVL271:
 3835 1214 00C0      		rjmp .L324
 3836               	.LVL272:
 3837               	.L323:
 3838               	.LM667:
 3839 1216 D701      		movw r26,r14
 3840 1218 9396      		adiw r26,35
 3841 121a 8C91      		ld r24,X
 3842 121c 8295      		swap r24
 3843 121e 8695      		lsr r24
 3844 1220 8770      		andi r24,lo8(7)
 3845 1222 0995      		icall
 3846 1224 BC01      		movw r22,r24
 3847               	.LVL273:
 3848               	.L324:
 3849               	.LM668:
 3850 1226 83E0      		ldi r24,lo8(3)
 3851 1228 8093 0000 		sts tcp_client_state,r24
 3852               	.LM669:
 3853 122c C701      		movw r24,r14
 3854 122e 0E94 0000 		call make_tcp_ack_with_data_noflags
 3855               	.LVL274:
 3856 1232 00C0      		rjmp .L306
 3857               	.LVL275:
 3858               	.L322:
 3859               	.LM670:
 3860 1234 81E0      		ldi r24,lo8(1)
 3861 1236 8093 0000 		sts tcp_client_state,r24
 3862               	.LM671:
 3863 123a F701      		movw r30,r14
 3864 123c 87A5      		ldd r24,Z+47
 3865 123e 84FF      		sbrs r24,4
 3866 1240 00C0      		rjmp .L325
 3867 1242 60E0      		ldi r22,lo8(0)
 3868 1244 70E0      		ldi r23,hi8(0)
 3869               	.LVL276:
 3870 1246 00C0      		rjmp .L326
 3871               	.LVL277:
 3872               	.L325:
 3873               	.LM672:
 3874 1248 B801      		movw r22,r16
 3875               	.LVL278:
 3876 124a 6F5F      		subi r22,lo8(-(1))
 3877 124c 7F4F      		sbci r23,hi8(-(1))
 3878               	.L326:
 3879               	.LM673:
 3880 124e C701      		movw r24,r14
 3881 1250 44E0      		ldi r20,lo8(4)
 3882 1252 00C0      		rjmp .L347
 3883               	.LVL279:
 3884               	.L321:
 3885               	.LM674:
 3886 1254 8330      		cpi r24,lo8(3)
 3887 1256 01F4      		brne .L327
 3888 1258 0115      		cp r16,__zero_reg__
 3889 125a 1105      		cpc r17,__zero_reg__
 3890 125c 01F0      		breq .L327
 3891               	.LM675:
 3892 125e 84E0      		ldi r24,lo8(4)
 3893 1260 8093 0000 		sts tcp_client_state,r24
 3894               	.LM676:
 3895 1264 E091 0000 		lds r30,client_tcp_result_callback
 3896 1268 F091 0000 		lds r31,(client_tcp_result_callback)+1
 3897 126c 3097      		sbiw r30,0
 3898 126e 01F0      		breq .L327
 3899               	.LM677:
 3900 1270 D701      		movw r26,r14
 3901 1272 9E96      		adiw r26,46
 3902 1274 8C91      		ld r24,X
 3903 1276 8295      		swap r24
 3904 1278 8F70      		andi r24,lo8(15)
 3905 127a 482F      		mov r20,r24
 3906               	.LVL280:
 3907 127c 50E0      		ldi r21,lo8(0)
 3908               	.LVL281:
 3909 127e 440F      		lsl r20
 3910 1280 551F      		rol r21
 3911 1282 440F      		lsl r20
 3912 1284 551F      		rol r21
 3913               	.LVL282:
 3914 1286 C601      		movw r24,r12
 3915 1288 0897      		sbiw r24,8
 3916 128a 4E5D      		subi r20,lo8(-(34))
 3917 128c 5F4F      		sbci r21,hi8(-(34))
 3918 128e 8417      		cp r24,r20
 3919 1290 9507      		cpc r25,r21
 3920 1292 00F4      		brsh .L328
 3921 1294 AC01      		movw r20,r24
 3922               	.L328:
 3923               	.LM678:
 3924 1296 C801      		movw r24,r16
 3925 1298 840F      		add r24,r20
 3926 129a 951F      		adc r25,r21
 3927 129c C816      		cp r12,r24
 3928 129e D906      		cpc r13,r25
 3929 12a0 00F0      		brlo .L329
 3930 12a2 9801      		movw r18,r16
 3931               	.LVL283:
 3932 12a4 00C0      		rjmp .L330
 3933               	.LVL284:
 3934               	.L329:
 3935               	.LM679:
 3936 12a6 9601      		movw r18,r12
 3937               	.LVL285:
 3938 12a8 241B      		sub r18,r20
 3939 12aa 350B      		sbc r19,r21
 3940               	.L330:
 3941               	.LM680:
 3942 12ac D701      		movw r26,r14
 3943 12ae 9596      		adiw r26,37
 3944 12b0 8C91      		ld r24,X
 3945 12b2 8295      		swap r24
 3946 12b4 8695      		lsr r24
 3947 12b6 8770      		andi r24,lo8(7)
 3948 12b8 60E0      		ldi r22,lo8(0)
 3949 12ba 0995      		icall
 3950               	.LVL286:
 3951               	.LM681:
 3952 12bc 8823      		tst r24
 3953 12be 01F4      		brne .L345
 3954               	.L327:
 3955               	.LM682:
 3956 12c0 8091 0000 		lds r24,tcp_client_state
 3957 12c4 8530      		cpi r24,lo8(5)
 3958 12c6 01F4      		brne .+2
 3959 12c8 00C0      		rjmp .L306
 3960               	.LM683:
 3961 12ca F701      		movw r30,r14
 3962 12cc 87A5      		ldd r24,Z+47
 3963 12ce 80FF      		sbrs r24,0
 3964 12d0 00C0      		rjmp .L331
 3965               	.LM684:
 3966 12d2 0F5F      		subi r16,lo8(-(1))
 3967 12d4 1F4F      		sbci r17,hi8(-(1))
 3968               	.L345:
 3969 12d6 C701      		movw r24,r14
 3970 12d8 B801      		movw r22,r16
 3971 12da 49E0      		ldi r20,lo8(9)
 3972 12dc 0E94 0000 		call make_tcp_ack_from_any
 3973               	.L346:
 3974               	.LM685:
 3975 12e0 85E0      		ldi r24,lo8(5)
 3976 12e2 8093 0000 		sts tcp_client_state,r24
 3977 12e6 00C0      		rjmp .L306
 3978               	.L331:
 3979               	.LM686:
 3980 12e8 0115      		cp r16,__zero_reg__
 3981 12ea 1105      		cpc r17,__zero_reg__
 3982 12ec 01F4      		brne .+2
 3983 12ee 00C0      		rjmp .L307
 3984               	.LM687:
 3985 12f0 C701      		movw r24,r14
 3986 12f2 B801      		movw r22,r16
 3987 12f4 00C0      		rjmp .L344
 3988               	.LVL287:
 3989               	.L316:
 3990               	.LM688:
 3991 12f6 8091 0000 		lds r24,wwwport_h
 3992 12fa 9817      		cp r25,r24
 3993 12fc 01F0      		breq .+2
 3994 12fe 00C0      		rjmp .L306
 3995 1300 D701      		movw r26,r14
 3996 1302 9596      		adiw r26,37
 3997 1304 9C91      		ld r25,X
 3998 1306 9597      		sbiw r26,37
 3999 1308 8091 0000 		lds r24,wwwport_l
 4000 130c 9817      		cp r25,r24
 4001 130e 01F0      		breq .+2
 4002 1310 00C0      		rjmp .L306
 4003               	.LM689:
 4004 1312 9F96      		adiw r26,47
 4005 1314 8C91      		ld r24,X
 4006 1316 81FF      		sbrs r24,1
 4007 1318 00C0      		rjmp .L332
 4008               	.LM690:
 4009 131a C701      		movw r24,r14
 4010 131c 0E94 0000 		call make_tcp_synack_from_syn
 4011 1320 00C0      		rjmp .L306
 4012               	.L332:
 4013               	.LM691:
 4014 1322 84FF      		sbrs r24,4
 4015 1324 00C0      		rjmp .L306
 4016               	.LBB319:
 4017               	.LBB320:
 4018               	.LM692:
 4019 1326 F701      		movw r30,r14
 4020 1328 9089      		ldd r25,Z+16
 4021 132a 80E0      		ldi r24,lo8(0)
 4022 132c 2189      		ldd r18,Z+17
 4023 132e 422F      		mov r20,r18
 4024 1330 50E0      		ldi r21,lo8(0)
 4025 1332 482B      		or r20,r24
 4026 1334 592B      		or r21,r25
 4027               	.LM693:
 4028 1336 26A5      		ldd r18,Z+46
 4029 1338 822F      		mov r24,r18
 4030 133a 8295      		swap r24
 4031 133c 8F70      		andi r24,lo8(15)
 4032 133e 90E0      		ldi r25,lo8(0)
 4033 1340 880F      		lsl r24
 4034 1342 991F      		rol r25
 4035 1344 880F      		lsl r24
 4036 1346 991F      		rol r25
 4037 1348 481B      		sub r20,r24
 4038 134a 590B      		sbc r21,r25
 4039               	.LM694:
 4040 134c 4451      		subi r20,lo8(-(-20))
 4041 134e 5040      		sbci r21,hi8(-(-20))
 4042               	.LM695:
 4043 1350 57FF      		sbrs r21,7
 4044 1352 00C0      		rjmp .L333
 4045 1354 40E0      		ldi r20,lo8(0)
 4046 1356 50E0      		ldi r21,hi8(0)
 4047               	.L333:
 4048               	.LBE320:
 4049               	.LBE319:
 4050               	.LM696:
 4051 1358 5093 0000 		sts (info_data_len)+1,r21
 4052 135c 4093 0000 		sts info_data_len,r20
 4053               	.LM697:
 4054 1360 452B      		or r20,r21
 4055 1362 01F4      		brne .L334
 4056               	.LM698:
 4057 1364 D701      		movw r26,r14
 4058 1366 9F96      		adiw r26,47
 4059 1368 8C91      		ld r24,X
 4060 136a 80FF      		sbrs r24,0
 4061 136c 00C0      		rjmp .L306
 4062               	.LM699:
 4063 136e C701      		movw r24,r14
 4064 1370 60E0      		ldi r22,lo8(0)
 4065 1372 70E0      		ldi r23,hi8(0)
 4066               	.LVL288:
 4067               	.L344:
 4068 1374 40E0      		ldi r20,lo8(0)
 4069               	.LVL289:
 4070               	.L347:
 4071 1376 0E94 0000 		call make_tcp_ack_from_any
 4072 137a 00C0      		rjmp .L306
 4073               	.LVL290:
 4074               	.L334:
 4075               	.LM700:
 4076 137c F701      		movw r30,r14
 4077 137e 86A5      		ldd r24,Z+46
 4078 1380 8295      		swap r24
 4079 1382 8F70      		andi r24,lo8(15)
 4080 1384 C82F      		mov r28,r24
 4081               	.LVL291:
 4082 1386 D0E0      		ldi r29,lo8(0)
 4083               	.LVL292:
 4084 1388 CC0F      		lsl r28
 4085 138a DD1F      		rol r29
 4086 138c CC0F      		lsl r28
 4087 138e DD1F      		rol r29
 4088               	.LVL293:
 4089 1390 A296      		adiw r28,34
 4090               	.LM701:
 4091 1392 88EF      		ldi r24,lo8(-8)
 4092 1394 9FEF      		ldi r25,hi8(-8)
 4093 1396 C80E      		add r12,r24
 4094 1398 D91E      		adc r13,r25
 4095 139a CC16      		cp r12,r28
 4096 139c DD06      		cpc r13,r29
 4097 139e 00F4      		brsh .L307
 4098               	.LVL294:
 4099               	.L306:
 4100 13a0 C0E0      		ldi r28,lo8(0)
 4101 13a2 D0E0      		ldi r29,hi8(0)
 4102               	.L307:
 4103               	.LM702:
 4104 13a4 CE01      		movw r24,r28
 4105               	.LVL295:
 4106               	/* epilogue start */
 4107 13a6 DF91      		pop r29
 4108               	.LVL296:
 4109 13a8 CF91      		pop r28
 4110 13aa 1F91      		pop r17
 4111               	.LVL297:
 4112 13ac 0F91      		pop r16
 4113               	.LVL298:
 4114 13ae FF90      		pop r15
 4115 13b0 EF90      		pop r14
 4116               	.LVL299:
 4117 13b2 DF90      		pop r13
 4118 13b4 CF90      		pop r12
 4119               	.LVL300:
 4120 13b6 0895      		ret
 4121               	.LVL301:
 4122               	.L348:
 4123               	.LM703:
 4124 13b8 82E0      		ldi r24,lo8(2)
 4125 13ba 8093 0000 		sts waitgwmac,r24
 4126 13be 00C0      		rjmp .L306
 4127               	.LVL302:
 4128               	.L349:
 4129               	.LM704:
 4130 13c0 D701      		movw r26,r14
 4131 13c2 9F96      		adiw r26,47
 4132 13c4 8C91      		ld r24,X
 4133 13c6 382F      		mov r19,r24
 4134 13c8 82FD      		sbrc r24,2
 4135 13ca 00C0      		rjmp .L335
 4136 13cc 00C0      		rjmp .L350
 4137               	.LFE60:
 4139               	.global	find_key_val
 4141               	find_key_val:
 4142               	.LFB61:
 4143               	.LM705:
 4144               	.LVL303:
 4145 13ce CF93      		push r28
 4146 13d0 DF93      		push r29
 4147               	/* prologue: function */
 4148               	/* frame size = 0 */
 4149 13d2 DC01      		movw r26,r24
 4150 13d4 EB01      		movw r28,r22
 4151 13d6 722F      		mov r23,r18
 4152 13d8 632F      		mov r22,r19
 4153               	.LVL304:
 4154               	.LM706:
 4155 13da 822F      		mov r24,r18
 4156               	.LVL305:
 4157 13dc 932F      		mov r25,r19
 4158               	.LVL306:
 4159 13de 9C01      		movw r18,r24
 4160               	.LVL307:
 4161 13e0 F901      		movw r30,r18
 4162               	.LVL308:
 4163 13e2 50E0      		ldi r21,lo8(0)
 4164               	.LVL309:
 4165 13e4 00C0      		rjmp .L352
 4166               	.LVL310:
 4167               	.L356:
 4168               	.LM707:
 4169 13e6 8081      		ld r24,Z
 4170 13e8 9817      		cp r25,r24
 4171 13ea 01F4      		brne .L353
 4172               	.LM708:
 4173 13ec 3196      		adiw r30,1
 4174               	.LM709:
 4175 13ee 8081      		ld r24,Z
 4176 13f0 8823      		tst r24
 4177 13f2 01F4      		brne .L354
 4178               	.LM710:
 4179 13f4 1196      		adiw r26,1
 4180               	.LM711:
 4181 13f6 8C91      		ld r24,X
 4182 13f8 8D33      		cpi r24,lo8(61)
 4183 13fa 01F4      		brne .L353
 4184 13fc 872F      		mov r24,r23
 4185               	.LVL311:
 4186 13fe 962F      		mov r25,r22
 4187               	.LVL312:
 4188 1400 9C01      		movw r18,r24
 4189               	.LVL313:
 4190 1402 F901      		movw r30,r18
 4191               	.LVL314:
 4192 1404 51E0      		ldi r21,lo8(1)
 4193 1406 00C0      		rjmp .L354
 4194               	.LVL315:
 4195               	.L353:
 4196 1408 872F      		mov r24,r23
 4197               	.LVL316:
 4198 140a 962F      		mov r25,r22
 4199               	.LVL317:
 4200 140c 9C01      		movw r18,r24
 4201               	.LVL318:
 4202 140e F901      		movw r30,r18
 4203               	.LVL319:
 4204               	.L354:
 4205               	.LM712:
 4206 1410 1196      		adiw r26,1
 4207               	.L352:
 4208               	.LM713:
 4209 1412 9C91      		ld r25,X
 4210               	.LVL320:
 4211 1414 9923      		tst r25
 4212 1416 01F0      		breq .L355
 4213               	.LVL321:
 4214 1418 9032      		cpi r25,lo8(32)
 4215 141a 01F0      		breq .L355
 4216 141c 9A30      		cpi r25,lo8(10)
 4217 141e 01F0      		breq .L355
 4218 1420 5523      		tst r21
 4219 1422 01F0      		breq .L356
 4220 1424 00C0      		rjmp .L357
 4221               	.L355:
 4222               	.LM714:
 4223 1426 5130      		cpi r21,lo8(1)
 4224 1428 01F0      		breq .L357
 4225 142a 30E0      		ldi r19,lo8(0)
 4226               	.LVL322:
 4227 142c 00C0      		rjmp .L358
 4228               	.LVL323:
 4229               	.L357:
 4230 142e 6A2F      		mov r22,r26
 4231               	.LM715:
 4232 1430 50E0      		ldi r21,lo8(0)
 4233               	.LVL324:
 4234 1432 4150      		subi r20,lo8(-(-1))
 4235 1434 5040      		sbci r21,hi8(-(-1))
 4236               	.LVL325:
 4237 1436 00C0      		rjmp .L359
 4238               	.LVL326:
 4239               	.L361:
 4240               	.LM716:
 4241 1438 2993      		st Y+,r18
 4242               	.LM717:
 4243 143a 1196      		adiw r26,1
 4244               	.LVL327:
 4245               	.L359:
 4246               	.LM718:
 4247 143c 3A2F      		mov r19,r26
 4248               	.LVL328:
 4249 143e 361B      		sub r19,r22
 4250               	.LM719:
 4251 1440 2C91      		ld r18,X
 4252 1442 2223      		tst r18
 4253 1444 01F0      		breq .L360
 4254               	.LVL329:
 4255 1446 2032      		cpi r18,lo8(32)
 4256 1448 01F0      		breq .L360
 4257 144a 2A30      		cpi r18,lo8(10)
 4258 144c 01F0      		breq .L360
 4259 144e 2632      		cpi r18,lo8(38)
 4260 1450 01F0      		breq .L360
 4261 1452 832F      		mov r24,r19
 4262 1454 90E0      		ldi r25,lo8(0)
 4263 1456 8417      		cp r24,r20
 4264 1458 9507      		cpc r25,r21
 4265 145a 04F0      		brlt .L361
 4266               	.L360:
 4267               	.LM720:
 4268 145c 1882      		st Y,__zero_reg__
 4269               	.LVL330:
 4270               	.L358:
 4271               	.LM721:
 4272 145e 832F      		mov r24,r19
 4273               	/* epilogue start */
 4274 1460 DF91      		pop r29
 4275 1462 CF91      		pop r28
 4276               	.LVL331:
 4277 1464 0895      		ret
 4278               	.LFE61:
 4280               	.global	h2int
 4282               	h2int:
 4283               	.LFB62:
 4284               	.LM722:
 4285               	.LVL332:
 4286               	/* prologue: function */
 4287               	/* frame size = 0 */
 4288 1466 982F      		mov r25,r24
 4289               	.LM723:
 4290 1468 8053      		subi r24,lo8(-(-48))
 4291               	.LVL333:
 4292 146a 8A30      		cpi r24,lo8(10)
 4293 146c 00F0      		brlo .L364
 4294               	.LM724:
 4295 146e 8153      		subi r24,lo8(-(-49))
 4296 1470 8630      		cpi r24,lo8(6)
 4297 1472 00F4      		brsh .L365
 4298               	.LM725:
 4299 1474 865F      		subi r24,lo8(-(10))
 4300 1476 0895      		ret
 4301               	.L365:
 4302               	.LM726:
 4303 1478 892F      		mov r24,r25
 4304 147a 8154      		subi r24,lo8(-(-65))
 4305 147c 8630      		cpi r24,lo8(6)
 4306 147e 00F0      		brlo .L366
 4307 1480 80E0      		ldi r24,lo8(0)
 4308 1482 0895      		ret
 4309               	.L366:
 4310               	.LM727:
 4311 1484 892F      		mov r24,r25
 4312 1486 8753      		subi r24,lo8(-(-55))
 4313               	.L364:
 4314               	.LM728:
 4315 1488 0895      		ret
 4316               	.LFE62:
 4318               	.global	urldecode
 4320               	urldecode:
 4321               	.LFB63:
 4322               	.LM729:
 4323               	.LVL334:
 4324 148a CF93      		push r28
 4325 148c DF93      		push r29
 4326               	/* prologue: function */
 4327               	/* frame size = 0 */
 4328 148e FC01      		movw r30,r24
 4329               	.LM730:
 4330 1490 EC01      		movw r28,r24
 4331               	.LVL335:
 4332 1492 00C0      		rjmp .L369
 4333               	.LVL336:
 4334               	.L378:
 4335               	.LM731:
 4336 1494 8B32      		cpi r24,lo8(43)
 4337 1496 01F4      		brne .L370
 4338 1498 80E2      		ldi r24,lo8(32)
 4339 149a 00C0      		rjmp .L371
 4340               	.L370:
 4341               	.LM732:
 4342 149c 8532      		cpi r24,lo8(37)
 4343 149e 01F4      		brne .L371
 4344               	.LM733:
 4345 14a0 DF01      		movw r26,r30
 4346 14a2 1196      		adiw r26,1
 4347               	.LVL337:
 4348               	.LM734:
 4349 14a4 9181      		ldd r25,Z+1
 4350               	.LVL338:
 4351               	.LM735:
 4352 14a6 FD01      		movw r30,r26
 4353 14a8 3196      		adiw r30,1
 4354               	.LVL339:
 4355               	.LBB321:
 4356               	.LBB322:
 4357               	.LM736:
 4358 14aa 392F      		mov r19,r25
 4359 14ac 3053      		subi r19,lo8(-(-48))
 4360 14ae 3A30      		cpi r19,lo8(10)
 4361 14b0 00F0      		brlo .L372
 4362               	.LM737:
 4363 14b2 892F      		mov r24,r25
 4364 14b4 8156      		subi r24,lo8(-(-97))
 4365 14b6 8630      		cpi r24,lo8(6)
 4366 14b8 00F4      		brsh .L373
 4367               	.LM738:
 4368 14ba 3752      		subi r19,lo8(-(-39))
 4369 14bc 00C0      		rjmp .L372
 4370               	.L373:
 4371               	.LM739:
 4372 14be 892F      		mov r24,r25
 4373 14c0 8154      		subi r24,lo8(-(-65))
 4374 14c2 8630      		cpi r24,lo8(6)
 4375 14c4 00F0      		brlo .L374
 4376 14c6 30E0      		ldi r19,lo8(0)
 4377 14c8 00C0      		rjmp .L372
 4378               	.L374:
 4379               	.LM740:
 4380 14ca 392F      		mov r19,r25
 4381 14cc 3753      		subi r19,lo8(-(-55))
 4382               	.L372:
 4383               	.LBE322:
 4384               	.LBE321:
 4385               	.LM741:
 4386 14ce 1196      		adiw r26,1
 4387 14d0 2C91      		ld r18,X
 4388               	.LBB323:
 4389               	.LBB324:
 4390               	.LM742:
 4391 14d2 922F      		mov r25,r18
 4392               	.LVL340:
 4393 14d4 9053      		subi r25,lo8(-(-48))
 4394 14d6 9A30      		cpi r25,lo8(10)
 4395 14d8 00F0      		brlo .L375
 4396               	.LVL341:
 4397               	.LM743:
 4398 14da 822F      		mov r24,r18
 4399 14dc 8156      		subi r24,lo8(-(-97))
 4400 14de 8630      		cpi r24,lo8(6)
 4401 14e0 00F4      		brsh .L376
 4402               	.LM744:
 4403 14e2 9752      		subi r25,lo8(-(-39))
 4404 14e4 00C0      		rjmp .L375
 4405               	.L376:
 4406               	.LM745:
 4407 14e6 822F      		mov r24,r18
 4408 14e8 8154      		subi r24,lo8(-(-65))
 4409 14ea 8630      		cpi r24,lo8(6)
 4410 14ec 00F0      		brlo .L377
 4411 14ee 90E0      		ldi r25,lo8(0)
 4412 14f0 00C0      		rjmp .L375
 4413               	.L377:
 4414               	.LM746:
 4415 14f2 922F      		mov r25,r18
 4416 14f4 9753      		subi r25,lo8(-(-55))
 4417               	.L375:
 4418               	.LBE324:
 4419               	.LBE323:
 4420               	.LM747:
 4421 14f6 832F      		mov r24,r19
 4422               	.LVL342:
 4423 14f8 8295      		swap r24
 4424 14fa 807F      		andi r24,lo8(-16)
 4425 14fc 892B      		or r24,r25
 4426               	.LVL343:
 4427               	.L371:
 4428               	.LM748:
 4429 14fe 8993      		st Y+,r24
 4430               	.LM749:
 4431 1500 3196      		adiw r30,1
 4432               	.LVL344:
 4433               	.L369:
 4434               	.LM750:
 4435 1502 8081      		ld r24,Z
 4436 1504 8823      		tst r24
 4437 1506 01F4      		brne .L378
 4438               	.LM751:
 4439 1508 1882      		st Y,__zero_reg__
 4440               	/* epilogue start */
 4441               	.LM752:
 4442 150a DF91      		pop r29
 4443 150c CF91      		pop r28
 4444               	.LVL345:
 4445 150e 0895      		ret
 4446               	.LFE63:
 4448               	.global	int2h
 4450               	int2h:
 4451               	.LFB64:
 4452               	.LM753:
 4453               	.LVL346:
 4454               	/* prologue: function */
 4455               	/* frame size = 0 */
 4456 1510 382F      		mov r19,r24
 4457 1512 FB01      		movw r30,r22
 4458               	.LM754:
 4459 1514 282F      		mov r18,r24
 4460 1516 2F70      		andi r18,lo8(15)
 4461 1518 205D      		subi r18,lo8(-(48))
 4462 151a 2183      		std Z+1,r18
 4463 151c 2053      		subi r18,lo8(-(-48))
 4464               	.LM755:
 4465 151e 90E0      		ldi r25,lo8(0)
 4466               	.LVL347:
 4467 1520 8F70      		andi r24,lo8(15)
 4468 1522 9070      		andi r25,hi8(15)
 4469               	.LVL348:
 4470 1524 0A97      		sbiw r24,10
 4471 1526 04F0      		brlt .L381
 4472               	.LVL349:
 4473               	.LM756:
 4474 1528 295A      		subi r18,lo8(-(87))
 4475 152a 2183      		std Z+1,r18
 4476               	.L381:
 4477               	.LM757:
 4478 152c 832F      		mov r24,r19
 4479 152e 8295      		swap r24
 4480 1530 8F70      		andi r24,lo8(15)
 4481               	.LM758:
 4482 1532 805D      		subi r24,lo8(-(48))
 4483 1534 8083      		st Z,r24
 4484 1536 8053      		subi r24,lo8(-(-48))
 4485               	.LM759:
 4486 1538 8A30      		cpi r24,lo8(10)
 4487 153a 00F0      		brlo .L382
 4488               	.LM760:
 4489 153c 895A      		subi r24,lo8(-(87))
 4490 153e 8083      		st Z,r24
 4491               	.L382:
 4492               	.LM761:
 4493 1540 1282      		std Z+2,__zero_reg__
 4494               	/* epilogue start */
 4495               	.LM762:
 4496 1542 0895      		ret
 4497               	.LFE64:
 4499               	.global	dnslkup_haveanswer
 4501               	dnslkup_haveanswer:
 4502               	.LFB68:
 4503               	.LM763:
 4504               	/* prologue: function */
 4505               	/* frame size = 0 */
 4506               	.LM764:
 4507 1544 8091 0000 		lds r24,haveDNSanswer
 4508               	/* epilogue start */
 4509 1548 0895      		ret
 4510               	.LFE68:
 4512               	.global	dnslkup_get_error_info
 4514               	dnslkup_get_error_info:
 4515               	.LFB69:
 4516               	.LM765:
 4517               	/* prologue: function */
 4518               	/* frame size = 0 */
 4519               	.LM766:
 4520 154a 8091 0000 		lds r24,dns_ansError
 4521               	/* epilogue start */
 4522 154e 0895      		ret
 4523               	.LFE69:
 4525               	.global	dnslkup_getip
 4527               	dnslkup_getip:
 4528               	.LFB70:
 4529               	.LM767:
 4530               	/* prologue: function */
 4531               	/* frame size = 0 */
 4532               	.LM768:
 4533 1550 80E0      		ldi r24,lo8(dns_answerip)
 4534 1552 90E0      		ldi r25,hi8(dns_answerip)
 4535               	/* epilogue start */
 4536 1554 0895      		ret
 4537               	.LFE70:
 4539               	.global	dnslkup_request
 4541               	dnslkup_request:
 4542               	.LFB71:
 4543               	.LM769:
 4544               	.LVL350:
 4545 1556 EF92      		push r14
 4546 1558 FF92      		push r15
 4547 155a 1F93      		push r17
 4548 155c CF93      		push r28
 4549 155e DF93      		push r29
 4550               	/* prologue: function */
 4551               	/* frame size = 0 */
 4552 1560 EC01      		movw r28,r24
 4553 1562 7B01      		movw r14,r22
 4554               	.LM770:
 4555 1564 1092 0000 		sts haveDNSanswer,__zero_reg__
 4556               	.LM771:
 4557 1568 1092 0000 		sts dns_ansError,__zero_reg__
 4558               	.LM772:
 4559 156c 1091 0000 		lds r17,dnstid_l
 4560 1570 1F5F      		subi r17,lo8(-(1))
 4561 1572 1093 0000 		sts dnstid_l,r17
 4562               	.LM773:
 4563 1576 612F      		mov r22,r17
 4564               	.LVL351:
 4565 1578 70E0      		ldi r23,lo8(0)
 4566 157a 706E      		ori r23,hi8(-8192)
 4567 157c 40E0      		ldi r20,lo8(dnsip)
 4568 157e 50E0      		ldi r21,hi8(dnsip)
 4569 1580 25E3      		ldi r18,lo8(53)
 4570 1582 30E0      		ldi r19,hi8(53)
 4571 1584 0E94 0000 		call send_udp_prepare
 4572               	.LVL352:
 4573               	.LM774:
 4574 1588 1BA7      		std Y+43,r17
 4575               	.LM775:
 4576 158a 81E0      		ldi r24,lo8(1)
 4577 158c 8CA7      		std Y+44,r24
 4578 158e FE01      		movw r30,r28
 4579 1590 BD96      		adiw r30,45
 4580 1592 83E0      		ldi r24,lo8(3)
 4581               	.LVL353:
 4582               	.L391:
 4583               	.LM776:
 4584 1594 1192      		st Z+,__zero_reg__
 4585               	.LM777:
 4586 1596 8F5F      		subi r24,lo8(-(1))
 4587               	.LM778:
 4588 1598 8A30      		cpi r24,lo8(10)
 4589 159a 01F4      		brne .L391
 4590               	.LM779:
 4591 159c 81E0      		ldi r24,lo8(1)
 4592               	.LVL354:
 4593 159e 8FA7      		std Y+47,r24
 4594 15a0 8DE0      		ldi r24,lo8(13)
 4595               	.LVL355:
 4596 15a2 3CE0      		ldi r19,lo8(12)
 4597               	.LVL356:
 4598 15a4 90E0      		ldi r25,lo8(0)
 4599               	.LVL357:
 4600 15a6 00C0      		rjmp .L392
 4601               	.LVL358:
 4602               	.L394:
 4603               	.LM780:
 4604 15a8 2E32      		cpi r18,lo8(46)
 4605 15aa 01F4      		brne .L393
 4606               	.LM781:
 4607 15ac FE01      		movw r30,r28
 4608               	.LVL359:
 4609 15ae E30F      		add r30,r19
 4610 15b0 F11D      		adc r31,__zero_reg__
 4611 15b2 92A7      		std Z+42,r25
 4612 15b4 382F      		mov r19,r24
 4613 15b6 90E0      		ldi r25,lo8(0)
 4614               	.LVL360:
 4615               	.L393:
 4616               	.LM782:
 4617 15b8 FE01      		movw r30,r28
 4618               	.LVL361:
 4619 15ba E80F      		add r30,r24
 4620 15bc F11D      		adc r31,__zero_reg__
 4621 15be 22A7      		std Z+42,r18
 4622               	.LM783:
 4623 15c0 9F5F      		subi r25,lo8(-(1))
 4624               	.LM784:
 4625 15c2 8F5F      		subi r24,lo8(-(1))
 4626               	.L392:
 4627 15c4 F701      		movw r30,r14
 4628               	.LVL362:
 4629               	.LBB325:
 4630               	.LM785:
 4631 15c6 0894      		sec
 4632 15c8 E11C      		adc r14,__zero_reg__
 4633 15ca F11C      		adc r15,__zero_reg__
 4634               	/* #APP */
 4635               	 ;  78 "dnslkup.c" 1
 4636 15cc 2491      		lpm r18, Z
 4637               		
 4638               	 ;  0 "" 2
 4639               	/* #NOAPP */
 4640               	.LBE325:
 4641 15ce 2223      		tst r18
 4642 15d0 01F4      		brne .L394
 4643               	.LM786:
 4644 15d2 FE01      		movw r30,r28
 4645               	.LVL363:
 4646 15d4 E30F      		add r30,r19
 4647 15d6 F11D      		adc r31,__zero_reg__
 4648 15d8 9150      		subi r25,lo8(-(-1))
 4649 15da 92A7      		std Z+42,r25
 4650               	.LM787:
 4651 15dc FE01      		movw r30,r28
 4652 15de E80F      		add r30,r24
 4653 15e0 F11D      		adc r31,__zero_reg__
 4654 15e2 12A6      		std Z+42,__zero_reg__
 4655               	.LM788:
 4656 15e4 8F5F      		subi r24,lo8(-(1))
 4657               	.LVL364:
 4658               	.LM789:
 4659 15e6 FE01      		movw r30,r28
 4660 15e8 E80F      		add r30,r24
 4661 15ea F11D      		adc r31,__zero_reg__
 4662 15ec 12A6      		std Z+42,__zero_reg__
 4663               	.LM790:
 4664 15ee 8F5F      		subi r24,lo8(-(1))
 4665               	.LVL365:
 4666               	.LM791:
 4667 15f0 FE01      		movw r30,r28
 4668 15f2 E80F      		add r30,r24
 4669 15f4 F11D      		adc r31,__zero_reg__
 4670 15f6 91E0      		ldi r25,lo8(1)
 4671               	.LVL366:
 4672 15f8 92A7      		std Z+42,r25
 4673               	.LM792:
 4674 15fa 682F      		mov r22,r24
 4675 15fc 6F5F      		subi r22,lo8(-(1))
 4676               	.LVL367:
 4677               	.LM793:
 4678 15fe FE01      		movw r30,r28
 4679 1600 E60F      		add r30,r22
 4680 1602 F11D      		adc r31,__zero_reg__
 4681 1604 12A6      		std Z+42,__zero_reg__
 4682               	.LM794:
 4683 1606 6F5F      		subi r22,lo8(-(1))
 4684               	.LVL368:
 4685               	.LM795:
 4686 1608 FE01      		movw r30,r28
 4687 160a E60F      		add r30,r22
 4688 160c F11D      		adc r31,__zero_reg__
 4689 160e 92A7      		std Z+42,r25
 4690               	.LM796:
 4691 1610 6F5F      		subi r22,lo8(-(1))
 4692               	.LM797:
 4693 1612 8950      		subi r24,lo8(-(-9))
 4694               	.LVL369:
 4695 1614 8AA7      		std Y+42,r24
 4696               	.LM798:
 4697 1616 CE01      		movw r24,r28
 4698               	.LVL370:
 4699 1618 0E94 0000 		call send_udp_transmit
 4700               	.LVL371:
 4701               	/* epilogue start */
 4702               	.LM799:
 4703 161c DF91      		pop r29
 4704 161e CF91      		pop r28
 4705               	.LVL372:
 4706 1620 1F91      		pop r17
 4707 1622 FF90      		pop r15
 4708 1624 EF90      		pop r14
 4709               	.LVL373:
 4710 1626 0895      		ret
 4711               	.LFE71:
 4713               	.global	udp_client_check_for_dns_answer
 4715               	udp_client_check_for_dns_answer:
 4716               	.LFB72:
 4717               	.LM800:
 4718               	.LVL374:
 4719 1628 CF93      		push r28
 4720 162a DF93      		push r29
 4721               	/* prologue: function */
 4722               	/* frame size = 0 */
 4723 162c EC01      		movw r28,r24
 4724               	.LM801:
 4725 162e 6634      		cpi r22,70
 4726 1630 7105      		cpc r23,__zero_reg__
 4727 1632 00F4      		brsh .+2
 4728 1634 00C0      		rjmp .L398
 4729               	.LVL375:
 4730               	.LM802:
 4731 1636 8BA1      		ldd r24,Y+35
 4732 1638 8533      		cpi r24,lo8(53)
 4733 163a 01F0      		breq .+2
 4734 163c 00C0      		rjmp .L398
 4735               	.LM803:
 4736 163e 8CA1      		ldd r24,Y+36
 4737 1640 803E      		cpi r24,lo8(-32)
 4738 1642 01F0      		breq .+2
 4739 1644 00C0      		rjmp .L398
 4740               	.LM804:
 4741 1646 9DA1      		ldd r25,Y+37
 4742 1648 8091 0000 		lds r24,dnstid_l
 4743 164c 9817      		cp r25,r24
 4744 164e 01F0      		breq .+2
 4745 1650 00C0      		rjmp .L398
 4746               	.LM805:
 4747 1652 8BA5      		ldd r24,Y+43
 4748 1654 8917      		cp r24,r25
 4749 1656 01F4      		brne .L398
 4750               	.LM806:
 4751 1658 8DA5      		ldd r24,Y+45
 4752 165a 8F78      		andi r24,lo8(-113)
 4753 165c 8038      		cpi r24,lo8(-128)
 4754 165e 01F0      		breq .L399
 4755               	.LM807:
 4756 1660 81E0      		ldi r24,lo8(1)
 4757 1662 00C0      		rjmp .L410
 4758               	.L399:
 4759               	.LM808:
 4760 1664 9AA5      		ldd r25,Y+42
 4761 1666 292F      		mov r18,r25
 4762               	.LVL376:
 4763 1668 245F      		subi r18,lo8(-(12))
 4764               	.LM809:
 4765 166a FE01      		movw r30,r28
 4766 166c E20F      		add r30,r18
 4767 166e F11D      		adc r31,__zero_reg__
 4768 1670 82A5      		ldd r24,Z+42
 4769 1672 807C      		andi r24,lo8(-64)
 4770 1674 01F0      		breq .L401
 4771               	.LM810:
 4772 1676 2E5F      		subi r18,lo8(-(2))
 4773 1678 00C0      		rjmp .L402
 4774               	.LVL377:
 4775               	.L403:
 4776               	.LM811:
 4777 167a 2F5F      		subi r18,lo8(-(1))
 4778               	.LVL378:
 4779               	.LM812:
 4780 167c FE01      		movw r30,r28
 4781 167e E20F      		add r30,r18
 4782 1680 F11D      		adc r31,__zero_reg__
 4783 1682 82A5      		ldd r24,Z+42
 4784 1684 8823      		tst r24
 4785 1686 01F4      		brne .L407
 4786               	.LM813:
 4787 1688 2F5F      		subi r18,lo8(-(1))
 4788 168a 00C0      		rjmp .L402
 4789               	.LVL379:
 4790               	.L401:
 4791               	.LM814:
 4792 168c 6153      		subi r22,lo8(-(-49))
 4793 168e 7040      		sbci r23,hi8(-(-49))
 4794               	.LVL380:
 4795               	.L407:
 4796 1690 822F      		mov r24,r18
 4797 1692 90E0      		ldi r25,lo8(0)
 4798 1694 8617      		cp r24,r22
 4799 1696 9707      		cpc r25,r23
 4800 1698 00F0      		brlo .L403
 4801               	.LVL381:
 4802               	.L402:
 4803               	.LM815:
 4804 169a FE01      		movw r30,r28
 4805 169c E20F      		add r30,r18
 4806 169e F11D      		adc r31,__zero_reg__
 4807 16a0 83A9      		ldd r24,Z+51
 4808 16a2 8430      		cpi r24,lo8(4)
 4809 16a4 01F0      		breq .L404
 4810               	.LM816:
 4811 16a6 82E0      		ldi r24,lo8(2)
 4812               	.L410:
 4813 16a8 8093 0000 		sts dns_ansError,r24
 4814 16ac 00C0      		rjmp .L398
 4815               	.L404:
 4816               	.LM817:
 4817 16ae 265F      		subi r18,lo8(-(10))
 4818 16b0 A22F      		mov r26,r18
 4819 16b2 B0E0      		ldi r27,lo8(0)
 4820 16b4 9A96      		adiw r26,42
 4821 16b6 AC0F      		add r26,r28
 4822 16b8 BD1F      		adc r27,r29
 4823 16ba E0E0      		ldi r30,lo8(dns_answerip)
 4824 16bc F0E0      		ldi r31,hi8(dns_answerip)
 4825               	.L405:
 4826               	.LM818:
 4827 16be 8D91      		ld r24,X+
 4828 16c0 8193      		st Z+,r24
 4829               	.LM819:
 4830 16c2 80E0      		ldi r24,hi8(dns_answerip+4)
 4831 16c4 E030      		cpi r30,lo8(dns_answerip+4)
 4832 16c6 F807      		cpc r31,r24
 4833 16c8 01F4      		brne .L405
 4834               	.LM820:
 4835 16ca 81E0      		ldi r24,lo8(1)
 4836 16cc 8093 0000 		sts haveDNSanswer,r24
 4837 16d0 00C0      		rjmp .L400
 4838               	.LVL382:
 4839               	.L398:
 4840               	.LM821:
 4841 16d2 80E0      		ldi r24,lo8(0)
 4842               	.L400:
 4843               	/* epilogue start */
 4844               	.LM822:
 4845 16d4 DF91      		pop r29
 4846 16d6 CF91      		pop r28
 4847               	.LVL383:
 4848 16d8 0895      		ret
 4849               	.LFE72:
 4851               	.global	http200ok
 4853               	http200ok:
 4854               	.LFB73:
 4855               	.LM823:
 4856               	/* prologue: function */
 4857               	/* frame size = 0 */
 4858               	.LM824:
 4859 16da 20E0      		ldi r18,lo8(0)
 4860 16dc 30E0      		ldi r19,hi8(0)
 4861               	.LVL384:
 4862 16de 00C0      		rjmp .L412
 4863               	.LVL385:
 4864               	.L413:
 4865               	.LBB326:
 4866               	.LBB327:
 4867               	.LM825:
 4868 16e0 F901      		movw r30,r18
 4869 16e2 E050      		subi r30,lo8(-(buf))
 4870 16e4 F040      		sbci r31,hi8(-(buf))
 4871 16e6 86AB      		std Z+54,r24
 4872               	.LM826:
 4873 16e8 2F5F      		subi r18,lo8(-(1))
 4874 16ea 3F4F      		sbci r19,hi8(-(1))
 4875               	.L412:
 4876               	.LBB328:
 4877               	.LM827:
 4878 16ec F901      		movw r30,r18
 4879 16ee E050      		subi r30,lo8(-(__c.3106))
 4880 16f0 F040      		sbci r31,hi8(-(__c.3106))
 4881               	/* #APP */
 4882               	 ;  463 "ip_arp_udp_tcp.c" 1
 4883 16f2 8491      		lpm r24, Z
 4884               		
 4885               	 ;  0 "" 2
 4886               	/* #NOAPP */
 4887               	.LBE328:
 4888 16f4 8823      		tst r24
 4889 16f6 01F4      		brne .L413
 4890               	.LBE327:
 4891               	.LBE326:
 4892               	.LM828:
 4893 16f8 C901      		movw r24,r18
 4894               	.LVL386:
 4895               	/* epilogue start */
 4896 16fa 0895      		ret
 4897               	.LFE73:
 4899               	.global	init_cnt2
 4901               	init_cnt2:
 4902               	.LFB75:
 4903               	.LM829:
 4904               	/* prologue: function */
 4905               	/* frame size = 0 */
 4906               	.LM830:
 4907 16fc 1092 0000 		sts cnt2step,__zero_reg__
 4908               	.LM831:
 4909 1700 85E0      		ldi r24,lo8(5)
 4910 1702 83BF      		out 83-32,r24
 4911               	.LM832:
 4912 1704 12BE      		out 82-32,__zero_reg__
 4913               	.LM833:
 4914 1706 81E0      		ldi r24,lo8(1)
 4915 1708 89BF      		out 89-32,r24
 4916               	/* epilogue start */
 4917               	.LM834:
 4918 170a 0895      		ret
 4919               	.LFE75:
 4921               	.global	__vector_9
 4923               	__vector_9:
 4924               	.LFB76:
 4925               	.LM835:
 4926 170c 1F92      		push __zero_reg__
 4927 170e 0F92      		push r0
 4928 1710 0FB6      		in r0,__SREG__
 4929 1712 0F92      		push r0
 4930 1714 1124      		clr __zero_reg__
 4931 1716 8F93      		push r24
 4932               	/* prologue: Signal */
 4933               	/* frame size = 0 */
 4934               	.LM836:
 4935 1718 8091 0000 		lds r24,cnt2step
 4936 171c 8F5F      		subi r24,lo8(-(1))
 4937 171e 8093 0000 		sts cnt2step,r24
 4938               	.LM837:
 4939 1722 8091 0000 		lds r24,cnt2step
 4940 1726 8D33      		cpi r24,lo8(61)
 4941 1728 00F0      		brlo .L419
 4942               	.LM838:
 4943 172a 1092 0000 		sts cnt2step,__zero_reg__
 4944               	.LM839:
 4945 172e 8091 0000 		lds r24,sec
 4946 1732 8F5F      		subi r24,lo8(-(1))
 4947 1734 8093 0000 		sts sec,r24
 4948               	.L419:
 4949               	/* epilogue start */
 4950               	.LM840:
 4951 1738 8F91      		pop r24
 4952 173a 0F90      		pop r0
 4953 173c 0FBE      		out __SREG__,r0
 4954 173e 0F90      		pop r0
 4955 1740 1F90      		pop __zero_reg__
 4956 1742 1895      		reti
 4957               	.LFE76:
 4959               	.global	ping_callback
 4961               	ping_callback:
 4962               	.LFB77:
 4963               	.LM841:
 4964               	.LVL387:
 4965               	/* prologue: function */
 4966               	/* frame size = 0 */
 4967 1744 AC01      		movw r20,r24
 4968               	.LM842:
 4969 1746 8091 0000 		lds r24,start_web_client
 4970               	.LVL388:
 4971 174a 8823      		tst r24
 4972 174c 01F4      		brne .L423
 4973 174e 20E0      		ldi r18,lo8(0)
 4974 1750 30E0      		ldi r19,hi8(0)
 4975               	.L422:
 4976               	.LM843:
 4977 1752 F901      		movw r30,r18
 4978 1754 E050      		subi r30,lo8(-(pingsrcip))
 4979 1756 F040      		sbci r31,hi8(-(pingsrcip))
 4980 1758 DA01      		movw r26,r20
 4981 175a A20F      		add r26,r18
 4982 175c B31F      		adc r27,r19
 4983 175e 8C91      		ld r24,X
 4984 1760 8083      		st Z,r24
 4985 1762 2F5F      		subi r18,lo8(-(1))
 4986 1764 3F4F      		sbci r19,hi8(-(1))
 4987               	.LM844:
 4988 1766 2430      		cpi r18,4
 4989 1768 3105      		cpc r19,__zero_reg__
 4990 176a 01F4      		brne .L422
 4991               	.L423:
 4992 176c 0895      		ret
 4993               	.LFE77:
 4995               	.global	browserresult_callback
 4997               	browserresult_callback:
 4998               	.LFB78:
 4999               	.LM845:
 5000               	.LVL389:
 5001               	/* prologue: function */
 5002               	/* frame size = 0 */
 5003               	.LM846:
 5004 176e 8823      		tst r24
 5005 1770 01F4      		brne .L427
 5006               	.LM847:
 5007 1772 8091 0000 		lds r24,web_client_sendok
 5008               	.LVL390:
 5009 1776 8F5F      		subi r24,lo8(-(1))
 5010 1778 8093 0000 		sts web_client_sendok,r24
 5011               	.LM848:
 5012 177c DE9A      		sbi 59-32,6
 5013               	.LVL391:
 5014               	.L427:
 5015 177e 0895      		ret
 5016               	.LFE78:
 5018               	.global	trigger
 5020               	trigger:
 5021               	.LFB79:
 5022               	.LM849:
 5023               	/* prologue: function */
 5024               	/* frame size = 0 */
 5025               	.LM850:
 5026 1780 8091 0000 		lds r24,start_web_client
 5027 1784 8823      		tst r24
 5028 1786 01F4      		brne .L430
 5029               	.LM851:
 5030 1788 81E0      		ldi r24,lo8(1)
 5031 178a 8093 0000 		sts start_web_client,r24
 5032               	.L430:
 5033 178e 0895      		ret
 5034               	.LFE79:
 5036               		.data
 5037               	.LC0:
 5038 0000 3230 3000 		.string	"200"
 5039               		.text
 5040               	.global	www_client_internal_result_callback
 5042               	www_client_internal_result_callback:
 5043               	.LFB56:
 5044               	.LM852:
 5045               	.LVL392:
 5046 1790 EF92      		push r14
 5047 1792 FF92      		push r15
 5048 1794 0F93      		push r16
 5049 1796 1F93      		push r17
 5050 1798 CF93      		push r28
 5051 179a DF93      		push r29
 5052               	/* prologue: function */
 5053               	/* frame size = 0 */
 5054 179c 7901      		movw r14,r18
 5055               	.LM853:
 5056 179e 9091 0000 		lds r25,www_fd
 5057 17a2 8917      		cp r24,r25
 5058 17a4 01F0      		breq .L432
 5059               	.LVL393:
 5060               	.LM854:
 5061 17a6 E091 0000 		lds r30,client_browser_callback
 5062 17aa F091 0000 		lds r31,(client_browser_callback)+1
 5063 17ae 84E0      		ldi r24,lo8(4)
 5064               	.LVL394:
 5065 17b0 60E0      		ldi r22,lo8(0)
 5066 17b2 70E0      		ldi r23,hi8(0)
 5067               	.LVL395:
 5068 17b4 40E0      		ldi r20,lo8(0)
 5069 17b6 50E0      		ldi r21,hi8(0)
 5070               	.LVL396:
 5071 17b8 0995      		icall
 5072 17ba 00C0      		rjmp .L433
 5073               	.LVL397:
 5074               	.L432:
 5075               	.LM855:
 5076 17bc 6623      		tst r22
 5077 17be 01F4      		brne .L433
 5078 17c0 2D30      		cpi r18,13
 5079 17c2 3105      		cpc r19,__zero_reg__
 5080               	.LVL398:
 5081 17c4 00F0      		brlo .L433
 5082               	.LVL399:
 5083               	.LM856:
 5084 17c6 C091 0000 		lds r28,client_browser_callback
 5085 17ca D091 0000 		lds r29,(client_browser_callback)+1
 5086 17ce 2097      		sbiw r28,0
 5087 17d0 01F0      		breq .L433
 5088               	.LM857:
 5089 17d2 0091 0000 		lds r16,bufptr
 5090 17d6 1091 0000 		lds r17,(bufptr)+1
 5091 17da 475F      		subi r20,lo8(-(9))
 5092 17dc 5F4F      		sbci r21,hi8(-(9))
 5093               	.LVL400:
 5094 17de 400F      		add r20,r16
 5095 17e0 511F      		adc r21,r17
 5096 17e2 80E0      		ldi r24,lo8(.LC0)
 5097 17e4 90E0      		ldi r25,hi8(.LC0)
 5098 17e6 BA01      		movw r22,r20
 5099               	.LVL401:
 5100 17e8 43E0      		ldi r20,lo8(3)
 5101 17ea 50E0      		ldi r21,hi8(3)
 5102               	.LVL402:
 5103 17ec 0E94 0000 		call strncmp
 5104               	.LVL403:
 5105 17f0 F801      		movw r30,r16
 5106 17f2 66A5      		ldd r22,Z+46
 5107 17f4 0097      		sbiw r24,0
 5108 17f6 01F4      		brne .L434
 5109               	.LM858:
 5110 17f8 6295      		swap r22
 5111 17fa 6F70      		andi r22,lo8(15)
 5112 17fc 70E0      		ldi r23,lo8(0)
 5113 17fe 660F      		lsl r22
 5114 1800 771F      		rol r23
 5115 1802 660F      		lsl r22
 5116 1804 771F      		rol r23
 5117 1806 6E5D      		subi r22,lo8(-(34))
 5118 1808 7F4F      		sbci r23,hi8(-(34))
 5119 180a 80E0      		ldi r24,lo8(0)
 5120 180c 00C0      		rjmp .L436
 5121               	.L434:
 5122               	.LM859:
 5123 180e 6295      		swap r22
 5124 1810 6F70      		andi r22,lo8(15)
 5125 1812 70E0      		ldi r23,lo8(0)
 5126 1814 660F      		lsl r22
 5127 1816 771F      		rol r23
 5128 1818 660F      		lsl r22
 5129 181a 771F      		rol r23
 5130 181c 6E5D      		subi r22,lo8(-(34))
 5131 181e 7F4F      		sbci r23,hi8(-(34))
 5132 1820 81E0      		ldi r24,lo8(1)
 5133               	.L436:
 5134 1822 A701      		movw r20,r14
 5135 1824 FE01      		movw r30,r28
 5136 1826 0995      		icall
 5137               	.LVL404:
 5138               	.L433:
 5139               	.LM860:
 5140 1828 80E0      		ldi r24,lo8(0)
 5141               	.LVL405:
 5142               	/* epilogue start */
 5143 182a DF91      		pop r29
 5144 182c CF91      		pop r28
 5145 182e 1F91      		pop r17
 5146 1830 0F91      		pop r16
 5147 1832 FF90      		pop r15
 5148 1834 EF90      		pop r14
 5149               	.LVL406:
 5150 1836 0895      		ret
 5151               	.LFE56:
 5153               	.global	mk_net_str
 5155               	mk_net_str:
 5156               	.LFB67:
 5157               	.LM861:
 5158               	.LVL407:
 5159 1838 BF92      		push r11
 5160 183a CF92      		push r12
 5161 183c DF92      		push r13
 5162 183e EF92      		push r14
 5163 1840 FF92      		push r15
 5164 1842 0F93      		push r16
 5165               	.LVL408:
 5166 1844 1F93      		push r17
 5167 1846 CF93      		push r28
 5168 1848 DF93      		push r29
 5169               	/* prologue: function */
 5170               	/* frame size = 0 */
 5171 184a 7C01      		movw r14,r24
 5172 184c B42E      		mov r11,r20
 5173 184e C22E      		mov r12,r18
 5174 1850 D02E      		mov r13,r16
 5175               	.LVL409:
 5176               	.LM862:
 5177 1852 EB01      		movw r28,r22
 5178               	.LVL410:
 5179 1854 00E0      		ldi r16,lo8(0)
 5180               	.LVL411:
 5181 1856 10E0      		ldi r17,lo8(0)
 5182               	.LVL412:
 5183 1858 00C0      		rjmp .L438
 5184               	.LVL413:
 5185               	.L441:
 5186               	.LM863:
 5187 185a B701      		movw r22,r14
 5188 185c 610F      		add r22,r17
 5189 185e 711D      		adc r23,__zero_reg__
 5190 1860 8881      		ld r24,Y
 5191 1862 90E0      		ldi r25,lo8(0)
 5192 1864 4D2D      		mov r20,r13
 5193 1866 50E0      		ldi r21,lo8(0)
 5194 1868 0E94 0000 		call itoa
 5195 186c 00C0      		rjmp .L439
 5196               	.LVL414:
 5197               	.L440:
 5198               	.LM864:
 5199 186e 192F      		mov r17,r25
 5200               	.LVL415:
 5201               	.L439:
 5202 1870 F701      		movw r30,r14
 5203 1872 E10F      		add r30,r17
 5204 1874 F11D      		adc r31,__zero_reg__
 5205 1876 8081      		ld r24,Z
 5206 1878 912F      		mov r25,r17
 5207 187a 9F5F      		subi r25,lo8(-(1))
 5208               	.LVL416:
 5209 187c 8823      		tst r24
 5210 187e 01F4      		brne .L440
 5211               	.LM865:
 5212 1880 C082      		st Z,r12
 5213               	.LM866:
 5214 1882 192F      		mov r17,r25
 5215               	.LM867:
 5216 1884 0F5F      		subi r16,lo8(-(1))
 5217 1886 2196      		adiw r28,1
 5218               	.LVL417:
 5219               	.L438:
 5220               	.LM868:
 5221 1888 0B15      		cp r16,r11
 5222 188a 00F0      		brlo .L441
 5223               	.LM869:
 5224 188c 1150      		subi r17,lo8(-(-1))
 5225 188e E10E      		add r14,r17
 5226 1890 F11C      		adc r15,__zero_reg__
 5227 1892 F701      		movw r30,r14
 5228 1894 1082      		st Z,__zero_reg__
 5229               	/* epilogue start */
 5230               	.LM870:
 5231 1896 DF91      		pop r29
 5232 1898 CF91      		pop r28
 5233 189a 1F91      		pop r17
 5234               	.LVL418:
 5235 189c 0F91      		pop r16
 5236               	.LVL419:
 5237 189e FF90      		pop r15
 5238 18a0 EF90      		pop r14
 5239               	.LVL420:
 5240 18a2 DF90      		pop r13
 5241               	.LVL421:
 5242 18a4 CF90      		pop r12
 5243               	.LVL422:
 5244 18a6 BF90      		pop r11
 5245               	.LVL423:
 5246 18a8 0895      		ret
 5247               	.LFE67:
 5249               	.global	parse_ip
 5251               	parse_ip:
 5252               	.LFB66:
 5253               	.LM871:
 5254               	.LVL424:
 5255 18aa EF92      		push r14
 5256 18ac FF92      		push r15
 5257 18ae 1F93      		push r17
 5258 18b0 CF93      		push r28
 5259 18b2 DF93      		push r29
 5260               	/* prologue: function */
 5261               	/* frame size = 0 */
 5262 18b4 7C01      		movw r14,r24
 5263 18b6 EB01      		movw r28,r22
 5264               	.LM872:
 5265 18b8 80E0      		ldi r24,lo8(0)
 5266 18ba 90E0      		ldi r25,hi8(0)
 5267               	.LVL425:
 5268               	.L444:
 5269               	.LM873:
 5270 18bc F701      		movw r30,r14
 5271 18be E80F      		add r30,r24
 5272 18c0 F91F      		adc r31,r25
 5273 18c2 1082      		st Z,__zero_reg__
 5274 18c4 0196      		adiw r24,1
 5275               	.LM874:
 5276 18c6 8430      		cpi r24,4
 5277 18c8 9105      		cpc r25,__zero_reg__
 5278 18ca 01F4      		brne .L444
 5279 18cc 20E0      		ldi r18,lo8(0)
 5280 18ce 30E0      		ldi r19,hi8(0)
 5281               	.LVL426:
 5282 18d0 10E0      		ldi r17,lo8(0)
 5283               	.LVL427:
 5284 18d2 00C0      		rjmp .L445
 5285               	.L449:
 5286               	.LM875:
 5287 18d4 2115      		cp r18,__zero_reg__
 5288 18d6 3105      		cpc r19,__zero_reg__
 5289 18d8 01F4      		brne .L446
 5290 18da 842F      		mov r24,r20
 5291 18dc 90E0      		ldi r25,lo8(0)
 5292 18de C097      		sbiw r24,48
 5293 18e0 0A97      		sbiw r24,10
 5294 18e2 00F4      		brsh .L446
 5295 18e4 9E01      		movw r18,r28
 5296               	.L446:
 5297               	.LM876:
 5298 18e6 4E32      		cpi r20,lo8(46)
 5299 18e8 01F4      		brne .L447
 5300               	.LM877:
 5301 18ea 1882      		st Y,__zero_reg__
 5302               	.LM878:
 5303 18ec C901      		movw r24,r18
 5304 18ee 0E94 0000 		call atoi
 5305               	.LVL428:
 5306 18f2 F701      		movw r30,r14
 5307 18f4 E10F      		add r30,r17
 5308 18f6 F11D      		adc r31,__zero_reg__
 5309 18f8 8083      		st Z,r24
 5310               	.LM879:
 5311 18fa 1F5F      		subi r17,lo8(-(1))
 5312 18fc 20E0      		ldi r18,lo8(0)
 5313 18fe 30E0      		ldi r19,hi8(0)
 5314               	.LVL429:
 5315               	.L447:
 5316               	.LM880:
 5317 1900 2196      		adiw r28,1
 5318               	.LVL430:
 5319               	.L445:
 5320               	.LM881:
 5321 1902 4881      		ld r20,Y
 5322 1904 4423      		tst r20
 5323 1906 01F0      		breq .L448
 5324 1908 1430      		cpi r17,lo8(4)
 5325 190a 00F0      		brlo .L449
 5326               	.L448:
 5327               	.LM882:
 5328 190c 1882      		st Y,__zero_reg__
 5329               	.LM883:
 5330 190e 1330      		cpi r17,lo8(3)
 5331 1910 01F0      		breq .L450
 5332 1912 81E0      		ldi r24,lo8(1)
 5333 1914 00C0      		rjmp .L451
 5334               	.L450:
 5335               	.LM884:
 5336 1916 C901      		movw r24,r18
 5337 1918 0E94 0000 		call atoi
 5338               	.LVL431:
 5339 191c F701      		movw r30,r14
 5340 191e 8383      		std Z+3,r24
 5341 1920 80E0      		ldi r24,lo8(0)
 5342               	.LVL432:
 5343               	.L451:
 5344               	/* epilogue start */
 5345               	.LM885:
 5346 1922 DF91      		pop r29
 5347 1924 CF91      		pop r28
 5348               	.LVL433:
 5349 1926 1F91      		pop r17
 5350               	.LVL434:
 5351 1928 FF90      		pop r15
 5352 192a EF90      		pop r14
 5353               	.LVL435:
 5354 192c 0895      		ret
 5355               	.LFE66:
 5357               	.global	urlencode
 5359               	urlencode:
 5360               	.LFB65:
 5361               	.LM886:
 5362               	.LVL436:
 5363 192e EF92      		push r14
 5364 1930 FF92      		push r15
 5365 1932 0F93      		push r16
 5366 1934 1F93      		push r17
 5367 1936 CF93      		push r28
 5368 1938 DF93      		push r29
 5369               	/* prologue: function */
 5370               	/* frame size = 0 */
 5371 193a 8B01      		movw r16,r22
 5372               	.LM887:
 5373 193c EC01      		movw r28,r24
 5374 193e 2196      		adiw r28,1
 5375               	.LM888:
 5376 1940 95E2      		ldi r25,lo8(37)
 5377 1942 E92E      		mov r14,r25
 5378 1944 00C0      		rjmp .L455
 5379               	.LVL437:
 5380               	.L460:
 5381               	.LM889:
 5382 1946 80E2      		ldi r24,lo8(32)
 5383               	.LVL438:
 5384 1948 F816      		cp r15,r24
 5385 194a 01F4      		brne .L456
 5386 194c 8BE2      		ldi r24,lo8(43)
 5387 194e F82E      		mov r15,r24
 5388 1950 00C0      		rjmp .L457
 5389               	.L456:
 5390 1952 8F2D      		mov r24,r15
 5391 1954 90E0      		ldi r25,lo8(0)
 5392 1956 0E94 0000 		call isalnum
 5393 195a 892B      		or r24,r25
 5394 195c 01F0      		breq .L458
 5395               	.LVL439:
 5396               	.L457:
 5397               	.LM890:
 5398 195e F801      		movw r30,r16
 5399 1960 F192      		st Z+,r15
 5400 1962 8F01      		movw r16,r30
 5401 1964 00C0      		rjmp .L459
 5402               	.L458:
 5403               	.LM891:
 5404 1966 F801      		movw r30,r16
 5405 1968 E192      		st Z+,r14
 5406 196a 8F01      		movw r16,r30
 5407               	.LVL440:
 5408               	.LM892:
 5409 196c 8F2D      		mov r24,r15
 5410 196e BF01      		movw r22,r30
 5411 1970 0E94 0000 		call int2h
 5412               	.LM893:
 5413 1974 0E5F      		subi r16,lo8(-(2))
 5414 1976 1F4F      		sbci r17,hi8(-(2))
 5415               	.LVL441:
 5416               	.L459:
 5417 1978 2196      		adiw r28,1
 5418               	.LVL442:
 5419               	.L455:
 5420               	.LM894:
 5421 197a FA90      		ld r15,-Y
 5422 197c 2196      		adiw r28,1
 5423 197e FF20      		tst r15
 5424 1980 01F4      		brne .L460
 5425               	.LM895:
 5426 1982 F801      		movw r30,r16
 5427 1984 1082      		st Z,__zero_reg__
 5428               	/* epilogue start */
 5429               	.LM896:
 5430 1986 DF91      		pop r29
 5431 1988 CF91      		pop r28
 5432 198a 1F91      		pop r17
 5433 198c 0F91      		pop r16
 5434               	.LVL443:
 5435 198e FF90      		pop r15
 5436               	.LVL444:
 5437 1990 EF90      		pop r14
 5438 1992 0895      		ret
 5439               	.LFE65:
 5441               	.global	fill_tcp_data
 5443               	fill_tcp_data:
 5444               	.LFB39:
 5445               	.LM897:
 5446               	.LVL445:
 5447 1994 CF93      		push r28
 5448 1996 DF93      		push r29
 5449               	/* prologue: function */
 5450               	/* frame size = 0 */
 5451               	.LM898:
 5452 1998 DA01      		movw r26,r20
 5453 199a 0D90      		ld __tmp_reg__,X+
 5454 199c 0020      		tst __tmp_reg__
 5455 199e 01F4      		brne .-6
 5456 19a0 1197      		sbiw r26,1
 5457 19a2 A41B      		sub r26,r20
 5458               	.LVL446:
 5459 19a4 6A5C      		subi r22,lo8(-(54))
 5460 19a6 7F4F      		sbci r23,hi8(-(54))
 5461               	.LVL447:
 5462 19a8 EC01      		movw r28,r24
 5463 19aa C60F      		add r28,r22
 5464 19ac D71F      		adc r29,r23
 5465 19ae 6653      		subi r22,lo8(-(-54))
 5466 19b0 7040      		sbci r23,hi8(-(-54))
 5467 19b2 FA01      		movw r30,r20
 5468               	.LBB329:
 5469               	.LBB330:
 5470               	.LM899:
 5471 19b4 B0E0      		ldi r27,lo8(0)
 5472               	.LM900:
 5473 19b6 9A01      		movw r18,r20
 5474 19b8 2A0F      		add r18,r26
 5475 19ba 3B1F      		adc r19,r27
 5476               	.LVL448:
 5477 19bc 00C0      		rjmp .L463
 5478               	.LVL449:
 5479               	.L464:
 5480               	.LM901:
 5481 19be 8191      		ld r24,Z+
 5482               	.LVL450:
 5483 19c0 8993      		st Y+,r24
 5484               	.LVL451:
 5485               	.L463:
 5486               	.LM902:
 5487 19c2 E217      		cp r30,r18
 5488 19c4 F307      		cpc r31,r19
 5489 19c6 01F4      		brne .L464
 5490 19c8 9B01      		movw r18,r22
 5491 19ca 2A0F      		add r18,r26
 5492 19cc 3B1F      		adc r19,r27
 5493               	.LBE330:
 5494               	.LBE329:
 5495               	.LM903:
 5496 19ce C901      		movw r24,r18
 5497               	.LVL452:
 5498               	/* epilogue start */
 5499 19d0 DF91      		pop r29
 5500 19d2 CF91      		pop r28
 5501 19d4 0895      		ret
 5502               	.LFE39:
 5504               	.global	print_webpage
 5506               	print_webpage:
 5507               	.LFB74:
 5508               	.LM904:
 5509               	.LVL453:
 5510 19d6 CF92      		push r12
 5511 19d8 DF92      		push r13
 5512 19da EF92      		push r14
 5513 19dc FF92      		push r15
 5514 19de 0F93      		push r16
 5515 19e0 1F93      		push r17
 5516 19e2 DF93      		push r29
 5517 19e4 CF93      		push r28
 5518 19e6 00D0      		rcall .
 5519 19e8 00D0      		rcall .
 5520 19ea 0F92      		push __tmp_reg__
 5521 19ec CDB7      		in r28,__SP_L__
 5522 19ee DEB7      		in r29,__SP_H__
 5523               	/* prologue: function */
 5524               	/* frame size = 5 */
 5525 19f0 6C01      		movw r12,r24
 5526               	.LM905:
 5527 19f2 EE24      		clr r14
 5528 19f4 FF24      		clr r15
 5529               	.LVL454:
 5530 19f6 00C0      		rjmp .L467
 5531               	.LVL455:
 5532               	.L468:
 5533               	.LBB331:
 5534               	.LBB332:
 5535               	.LBB333:
 5536               	.LBB334:
 5537               	.LM906:
 5538 19f8 F701      		movw r30,r14
 5539 19fa E050      		subi r30,lo8(-(buf))
 5540 19fc F040      		sbci r31,hi8(-(buf))
 5541 19fe 86AB      		std Z+54,r24
 5542               	.LM907:
 5543 1a00 0894      		sec
 5544 1a02 E11C      		adc r14,__zero_reg__
 5545 1a04 F11C      		adc r15,__zero_reg__
 5546               	.LVL456:
 5547               	.L467:
 5548               	.LBB335:
 5549               	.LM908:
 5550 1a06 F701      		movw r30,r14
 5551 1a08 E050      		subi r30,lo8(-(__c.3106))
 5552 1a0a F040      		sbci r31,hi8(-(__c.3106))
 5553               	/* #APP */
 5554               	 ;  463 "ip_arp_udp_tcp.c" 1
 5555 1a0c 8491      		lpm r24, Z
 5556               		
 5557               	 ;  0 "" 2
 5558               	/* #NOAPP */
 5559               	.LBE335:
 5560 1a0e 8823      		tst r24
 5561 1a10 01F4      		brne .L468
 5562 1a12 86E3      		ldi r24,lo8(54)
 5563 1a14 90E0      		ldi r25,hi8(54)
 5564               	.LVL457:
 5565 1a16 E80E      		add r14,r24
 5566 1a18 F91E      		adc r15,r25
 5567 1a1a D601      		movw r26,r12
 5568 1a1c AE0D      		add r26,r14
 5569 1a1e BF1D      		adc r27,r15
 5570 1a20 8AEC      		ldi r24,lo8(-54)
 5571 1a22 9FEF      		ldi r25,hi8(-54)
 5572 1a24 E80E      		add r14,r24
 5573 1a26 F91E      		adc r15,r25
 5574               	.LM909:
 5575 1a28 80E0      		ldi r24,lo8(__c.3115)
 5576 1a2a 90E0      		ldi r25,hi8(__c.3115)
 5577               	.LVL458:
 5578 1a2c 00C0      		rjmp .L469
 5579               	.LVL459:
 5580               	.L470:
 5581               	.LBE334:
 5582               	.LBE333:
 5583               	.LBE332:
 5584               	.LBE331:
 5585               	.LBB336:
 5586               	.LBB337:
 5587               	.LM910:
 5588 1a2e 2D93      		st X+,r18
 5589               	.LM911:
 5590 1a30 0894      		sec
 5591 1a32 E11C      		adc r14,__zero_reg__
 5592 1a34 F11C      		adc r15,__zero_reg__
 5593               	.L469:
 5594 1a36 FC01      		movw r30,r24
 5595               	.LBB338:
 5596               	.LM912:
 5597 1a38 0196      		adiw r24,1
 5598               	/* #APP */
 5599               	 ;  463 "ip_arp_udp_tcp.c" 1
 5600 1a3a 2491      		lpm r18, Z
 5601               		
 5602               	 ;  0 "" 2
 5603               	/* #NOAPP */
 5604               	.LBE338:
 5605 1a3c 2223      		tst r18
 5606 1a3e 01F4      		brne .L470
 5607               	.LBE337:
 5608               	.LBE336:
 5609               	.LBB339:
 5610               	.LBB340:
 5611               	.LM913:
 5612 1a40 8091 0000 		lds r24,waitgwmac
 5613               	.LVL460:
 5614 1a44 81FD      		sbrc r24,1
 5615 1a46 00C0      		rjmp .L471
 5616 1a48 86E3      		ldi r24,lo8(54)
 5617 1a4a 90E0      		ldi r25,hi8(54)
 5618 1a4c E80E      		add r14,r24
 5619 1a4e F91E      		adc r15,r25
 5620 1a50 D601      		movw r26,r12
 5621 1a52 AE0D      		add r26,r14
 5622 1a54 BF1D      		adc r27,r15
 5623 1a56 8AEC      		ldi r24,lo8(-54)
 5624 1a58 9FEF      		ldi r25,hi8(-54)
 5625 1a5a E80E      		add r14,r24
 5626 1a5c F91E      		adc r15,r25
 5627               	.LM914:
 5628 1a5e 80E0      		ldi r24,lo8(__c.3117)
 5629 1a60 90E0      		ldi r25,hi8(__c.3117)
 5630               	.LVL461:
 5631 1a62 00C0      		rjmp .L472
 5632               	.LVL462:
 5633               	.L471:
 5634               	.LBE340:
 5635               	.LBE339:
 5636               	.LM915:
 5637 1a64 8091 0000 		lds r24,dns_state
 5638 1a68 9701      		movw r18,r14
 5639               	.LVL463:
 5640 1a6a 2A5C      		subi r18,lo8(-(54))
 5641 1a6c 3F4F      		sbci r19,hi8(-(54))
 5642 1a6e 8130      		cpi r24,lo8(1)
 5643 1a70 01F0      		breq .L473
 5644 1a72 D601      		movw r26,r12
 5645 1a74 A20F      		add r26,r18
 5646 1a76 B31F      		adc r27,r19
 5647               	.LM916:
 5648 1a78 80E0      		ldi r24,lo8(__c.3121)
 5649 1a7a 90E0      		ldi r25,hi8(__c.3121)
 5650               	.LVL464:
 5651 1a7c 00C0      		rjmp .L474
 5652               	.LVL465:
 5653               	.L473:
 5654 1a7e D601      		movw r26,r12
 5655 1a80 A20F      		add r26,r18
 5656 1a82 B31F      		adc r27,r19
 5657               	.LM917:
 5658 1a84 80E0      		ldi r24,lo8(__c.3119)
 5659 1a86 90E0      		ldi r25,hi8(__c.3119)
 5660               	.LVL466:
 5661 1a88 00C0      		rjmp .L475
 5662               	.LVL467:
 5663               	.L476:
 5664               	.LBB341:
 5665               	.LBB342:
 5666               	.LM918:
 5667 1a8a 2D93      		st X+,r18
 5668               	.LM919:
 5669 1a8c 0894      		sec
 5670 1a8e E11C      		adc r14,__zero_reg__
 5671 1a90 F11C      		adc r15,__zero_reg__
 5672               	.LVL468:
 5673               	.L472:
 5674 1a92 FC01      		movw r30,r24
 5675               	.LVL469:
 5676               	.LBB343:
 5677               	.LM920:
 5678 1a94 0196      		adiw r24,1
 5679               	/* #APP */
 5680               	 ;  463 "ip_arp_udp_tcp.c" 1
 5681 1a96 2491      		lpm r18, Z
 5682               		
 5683               	 ;  0 "" 2
 5684               	.LVL470:
 5685               	/* #NOAPP */
 5686               	.LBE343:
 5687 1a98 2223      		tst r18
 5688 1a9a 01F4      		brne .L476
 5689 1a9c 00C0      		rjmp .L477
 5690               	.LVL471:
 5691               	.L478:
 5692               	.LBE342:
 5693               	.LBE341:
 5694               	.LBB344:
 5695               	.LBB345:
 5696               	.LM921:
 5697 1a9e 2D93      		st X+,r18
 5698               	.LM922:
 5699 1aa0 0894      		sec
 5700 1aa2 E11C      		adc r14,__zero_reg__
 5701 1aa4 F11C      		adc r15,__zero_reg__
 5702               	.LVL472:
 5703               	.L475:
 5704 1aa6 FC01      		movw r30,r24
 5705               	.LVL473:
 5706               	.LBB346:
 5707               	.LM923:
 5708 1aa8 0196      		adiw r24,1
 5709               	/* #APP */
 5710               	 ;  463 "ip_arp_udp_tcp.c" 1
 5711 1aaa 2491      		lpm r18, Z
 5712               		
 5713               	 ;  0 "" 2
 5714               	/* #NOAPP */
 5715               	.LBE346:
 5716 1aac 2223      		tst r18
 5717 1aae 01F4      		brne .L478
 5718 1ab0 00C0      		rjmp .L477
 5719               	.LVL474:
 5720               	.L479:
 5721               	.LBE345:
 5722               	.LBE344:
 5723               	.LBB347:
 5724               	.LBB348:
 5725               	.LM924:
 5726 1ab2 2D93      		st X+,r18
 5727               	.LM925:
 5728 1ab4 0894      		sec
 5729 1ab6 E11C      		adc r14,__zero_reg__
 5730 1ab8 F11C      		adc r15,__zero_reg__
 5731               	.LVL475:
 5732               	.L474:
 5733 1aba FC01      		movw r30,r24
 5734               	.LVL476:
 5735               	.LBB349:
 5736               	.LM926:
 5737 1abc 0196      		adiw r24,1
 5738               	/* #APP */
 5739               	 ;  463 "ip_arp_udp_tcp.c" 1
 5740 1abe 2491      		lpm r18, Z
 5741               		
 5742               	 ;  0 "" 2
 5743               	/* #NOAPP */
 5744               	.LBE349:
 5745 1ac0 2223      		tst r18
 5746 1ac2 01F4      		brne .L479
 5747               	.LBE348:
 5748               	.LBE347:
 5749               	.LM927:
 5750 1ac4 8091 0000 		lds r24,web_client_attempts
 5751               	.LVL477:
 5752 1ac8 90E0      		ldi r25,lo8(0)
 5753 1aca 8E01      		movw r16,r28
 5754 1acc 0F5F      		subi r16,lo8(-(1))
 5755 1ace 1F4F      		sbci r17,hi8(-(1))
 5756 1ad0 B801      		movw r22,r16
 5757 1ad2 4AE0      		ldi r20,lo8(10)
 5758 1ad4 50E0      		ldi r21,hi8(10)
 5759 1ad6 0E94 0000 		call itoa
 5760               	.LVL478:
 5761               	.LM928:
 5762 1ada C601      		movw r24,r12
 5763 1adc B701      		movw r22,r14
 5764 1ade A801      		movw r20,r16
 5765 1ae0 0E94 0000 		call fill_tcp_data
 5766 1ae4 7C01      		movw r14,r24
 5767               	.LVL479:
 5768 1ae6 86E3      		ldi r24,lo8(54)
 5769 1ae8 90E0      		ldi r25,hi8(54)
 5770 1aea E80E      		add r14,r24
 5771 1aec F91E      		adc r15,r25
 5772 1aee D601      		movw r26,r12
 5773 1af0 AE0D      		add r26,r14
 5774 1af2 BF1D      		adc r27,r15
 5775 1af4 8AEC      		ldi r24,lo8(-54)
 5776 1af6 9FEF      		ldi r25,hi8(-54)
 5777 1af8 E80E      		add r14,r24
 5778 1afa F91E      		adc r15,r25
 5779               	.LM929:
 5780 1afc 80E0      		ldi r24,lo8(__c.3123)
 5781 1afe 90E0      		ldi r25,hi8(__c.3123)
 5782               	.LVL480:
 5783 1b00 00C0      		rjmp .L480
 5784               	.LVL481:
 5785               	.L481:
 5786               	.LBB350:
 5787               	.LBB351:
 5788               	.LM930:
 5789 1b02 2D93      		st X+,r18
 5790               	.LM931:
 5791 1b04 0894      		sec
 5792 1b06 E11C      		adc r14,__zero_reg__
 5793 1b08 F11C      		adc r15,__zero_reg__
 5794               	.L480:
 5795 1b0a FC01      		movw r30,r24
 5796               	.LBB352:
 5797               	.LM932:
 5798 1b0c 0196      		adiw r24,1
 5799               	/* #APP */
 5800               	 ;  463 "ip_arp_udp_tcp.c" 1
 5801 1b0e 2491      		lpm r18, Z
 5802               		
 5803               	 ;  0 "" 2
 5804               	/* #NOAPP */
 5805               	.LBE352:
 5806 1b10 2223      		tst r18
 5807 1b12 01F4      		brne .L481
 5808               	.LBE351:
 5809               	.LBE350:
 5810               	.LM933:
 5811 1b14 8091 0000 		lds r24,web_client_sendok
 5812               	.LVL482:
 5813 1b18 90E0      		ldi r25,lo8(0)
 5814 1b1a 8E01      		movw r16,r28
 5815 1b1c 0F5F      		subi r16,lo8(-(1))
 5816 1b1e 1F4F      		sbci r17,hi8(-(1))
 5817 1b20 B801      		movw r22,r16
 5818 1b22 4AE0      		ldi r20,lo8(10)
 5819 1b24 50E0      		ldi r21,hi8(10)
 5820 1b26 0E94 0000 		call itoa
 5821               	.LVL483:
 5822               	.LM934:
 5823 1b2a C601      		movw r24,r12
 5824 1b2c B701      		movw r22,r14
 5825 1b2e A801      		movw r20,r16
 5826 1b30 0E94 0000 		call fill_tcp_data
 5827 1b34 7C01      		movw r14,r24
 5828               	.LVL484:
 5829 1b36 86E3      		ldi r24,lo8(54)
 5830 1b38 90E0      		ldi r25,hi8(54)
 5831 1b3a E80E      		add r14,r24
 5832 1b3c F91E      		adc r15,r25
 5833 1b3e D601      		movw r26,r12
 5834 1b40 AE0D      		add r26,r14
 5835 1b42 BF1D      		adc r27,r15
 5836 1b44 8AEC      		ldi r24,lo8(-54)
 5837 1b46 9FEF      		ldi r25,hi8(-54)
 5838 1b48 E80E      		add r14,r24
 5839 1b4a F91E      		adc r15,r25
 5840               	.LM935:
 5841 1b4c 80E0      		ldi r24,lo8(__c.3125)
 5842 1b4e 90E0      		ldi r25,hi8(__c.3125)
 5843               	.LVL485:
 5844 1b50 00C0      		rjmp .L482
 5845               	.LVL486:
 5846               	.L483:
 5847               	.LBB353:
 5848               	.LBB354:
 5849               	.LM936:
 5850 1b52 2D93      		st X+,r18
 5851               	.LM937:
 5852 1b54 0894      		sec
 5853 1b56 E11C      		adc r14,__zero_reg__
 5854 1b58 F11C      		adc r15,__zero_reg__
 5855               	.L482:
 5856 1b5a FC01      		movw r30,r24
 5857               	.LBB355:
 5858               	.LM938:
 5859 1b5c 0196      		adiw r24,1
 5860               	/* #APP */
 5861               	 ;  463 "ip_arp_udp_tcp.c" 1
 5862 1b5e 2491      		lpm r18, Z
 5863               		
 5864               	 ;  0 "" 2
 5865               	/* #NOAPP */
 5866               	.LBE355:
 5867 1b60 2223      		tst r18
 5868 1b62 01F4      		brne .L483
 5869 1b64 86E3      		ldi r24,lo8(54)
 5870 1b66 90E0      		ldi r25,hi8(54)
 5871               	.LVL487:
 5872 1b68 E80E      		add r14,r24
 5873 1b6a F91E      		adc r15,r25
 5874 1b6c D601      		movw r26,r12
 5875 1b6e AE0D      		add r26,r14
 5876 1b70 BF1D      		adc r27,r15
 5877 1b72 8AEC      		ldi r24,lo8(-54)
 5878 1b74 9FEF      		ldi r25,hi8(-54)
 5879 1b76 E80E      		add r14,r24
 5880 1b78 F91E      		adc r15,r25
 5881               	.LM939:
 5882 1b7a 80E0      		ldi r24,lo8(__c.3127)
 5883 1b7c 90E0      		ldi r25,hi8(__c.3127)
 5884               	.LVL488:
 5885 1b7e 00C0      		rjmp .L484
 5886               	.LVL489:
 5887               	.L485:
 5888               	.LBE354:
 5889               	.LBE353:
 5890               	.LBB356:
 5891               	.LBB357:
 5892               	.LM940:
 5893 1b80 2D93      		st X+,r18
 5894               	.LM941:
 5895 1b82 0894      		sec
 5896 1b84 E11C      		adc r14,__zero_reg__
 5897 1b86 F11C      		adc r15,__zero_reg__
 5898               	.LVL490:
 5899               	.L484:
 5900 1b88 FC01      		movw r30,r24
 5901               	.LVL491:
 5902               	.LBB358:
 5903               	.LM942:
 5904 1b8a 0196      		adiw r24,1
 5905               	/* #APP */
 5906               	 ;  463 "ip_arp_udp_tcp.c" 1
 5907 1b8c 2491      		lpm r18, Z
 5908               		
 5909               	 ;  0 "" 2
 5910               	.LVL492:
 5911               	/* #NOAPP */
 5912               	.LBE358:
 5913 1b8e 2223      		tst r18
 5914 1b90 01F4      		brne .L485
 5915               	.LVL493:
 5916               	.L477:
 5917               	.LBE357:
 5918               	.LBE356:
 5919               	.LM943:
 5920 1b92 C701      		movw r24,r14
 5921               	.LVL494:
 5922               	/* epilogue start */
 5923 1b94 0F90      		pop __tmp_reg__
 5924 1b96 0F90      		pop __tmp_reg__
 5925 1b98 0F90      		pop __tmp_reg__
 5926 1b9a 0F90      		pop __tmp_reg__
 5927 1b9c 0F90      		pop __tmp_reg__
 5928 1b9e CF91      		pop r28
 5929 1ba0 DF91      		pop r29
 5930 1ba2 1F91      		pop r17
 5931 1ba4 0F91      		pop r16
 5932 1ba6 FF90      		pop r15
 5933 1ba8 EF90      		pop r14
 5934 1baa DF90      		pop r13
 5935 1bac CF90      		pop r12
 5936               	.LVL495:
 5937 1bae 0895      		ret
 5938               	.LFE74:
 5940               		.data
 5941               	.LC1:
 5942 0004 4745 5420 		.string	"GET "
 5942      00
 5943               	.LC2:
 5944 0009 2F20 00   		.string	"/ "
 5945               		.text
 5946               	.global	main
 5948               	main:
 5949               	.LFB80:
 5950               	.LM944:
 5951 1bb0 2F92      		push r2
 5952 1bb2 3F92      		push r3
 5953 1bb4 4F92      		push r4
 5954 1bb6 5F92      		push r5
 5955 1bb8 6F92      		push r6
 5956 1bba 7F92      		push r7
 5957 1bbc 8F92      		push r8
 5958 1bbe 9F92      		push r9
 5959 1bc0 AF92      		push r10
 5960 1bc2 BF92      		push r11
 5961 1bc4 CF92      		push r12
 5962 1bc6 DF92      		push r13
 5963 1bc8 EF92      		push r14
 5964 1bca FF92      		push r15
 5965 1bcc 0F93      		push r16
 5966 1bce 1F93      		push r17
 5967 1bd0 CF93      		push r28
 5968 1bd2 DF93      		push r29
 5969               	/* prologue: function */
 5970               	/* frame size = 0 */
 5971               	.LBB359:
 5972               	.LBB360:
 5973               	.LM945:
 5974 1bd4 10E0      		ldi r17,lo8(0)
 5975 1bd6 812F      		mov r24,r17
 5976               	.LVL496:
 5977               	/* #APP */
 5978               	 ;  83 "c:/winavr/lib/gcc/../../avr/include/util/delay_basic.h" 1
 5979 1bd8 8A95      		1: dec r24
 5980 1bda 01F4      		brne 1b
 5981               	 ;  0 "" 2
 5982               	/* #NOAPP */
 5983               	.LBE360:
 5984               	.LBE359:
 5985               	.LM946:
 5986 1bdc 80E0      		ldi r24,lo8(mymac)
 5987 1bde 90E0      		ldi r25,hi8(mymac)
 5988               	.LVL497:
 5989 1be0 0E94 0000 		call enc28j60Init
 5990               	.LM947:
 5991 1be4 82E0      		ldi r24,lo8(2)
 5992 1be6 0E94 0000 		call enc28j60clkout
 5993               	.LBB361:
 5994               	.LBB362:
 5995               	.LM948:
 5996               	/* #APP */
 5997               	 ;  83 "c:/winavr/lib/gcc/../../avr/include/util/delay_basic.h" 1
 5998 1bea 1A95      		1: dec r17
 5999 1bec 01F4      		brne 1b
 6000               	 ;  0 "" 2
 6001               	.LVL498:
 6002               	/* #NOAPP */
 6003               	.LBE362:
 6004               	.LBE361:
 6005               	.LBB363:
 6006               	.LBB364:
 6007               	.LM949:
 6008 1bee 1092 0000 		sts cnt2step,__zero_reg__
 6009               	.LM950:
 6010 1bf2 85E0      		ldi r24,lo8(5)
 6011 1bf4 83BF      		out 83-32,r24
 6012               	.LM951:
 6013 1bf6 12BE      		out 82-32,__zero_reg__
 6014               	.LM952:
 6015 1bf8 81E0      		ldi r24,lo8(1)
 6016 1bfa 89BF      		out 89-32,r24
 6017               	.LBE364:
 6018               	.LBE363:
 6019               	.LM953:
 6020               	/* #APP */
 6021               	 ;  180 "main.c" 1
 6022 1bfc 7894      		sei
 6023               	 ;  0 "" 2
 6024               	.LM954:
 6025               	/* #NOAPP */
 6026 1bfe 84E1      		ldi r24,lo8(20)
 6027 1c00 66E7      		ldi r22,lo8(1142)
 6028 1c02 74E0      		ldi r23,hi8(1142)
 6029 1c04 0E94 0000 		call enc28j60PhyWrite
 6030               	.LM955:
 6031 1c08 11BA      		out 49-32,__zero_reg__
 6032               	.LM956:
 6033 1c0a 8FEF      		ldi r24,lo8(-1)
 6034 1c0c 82BB      		out 50-32,r24
 6035               	.LM957:
 6036 1c0e D69A      		sbi 58-32,6
 6037               	.LM958:
 6038 1c10 DE9A      		sbi 59-32,6
 6039               	.LBB365:
 6040               	.LBB366:
 6041               	.LM959:
 6042 1c12 1092 0000 		sts wwwport_h,__zero_reg__
 6043               	.LM960:
 6044 1c16 80E5      		ldi r24,lo8(80)
 6045 1c18 8093 0000 		sts wwwport_l,r24
 6046 1c1c 20E0      		ldi r18,lo8(0)
 6047 1c1e 30E0      		ldi r19,hi8(0)
 6048               	.L488:
 6049               	.LM961:
 6050 1c20 F901      		movw r30,r18
 6051 1c22 E050      		subi r30,lo8(-(ipaddr))
 6052 1c24 F040      		sbci r31,hi8(-(ipaddr))
 6053 1c26 D901      		movw r26,r18
 6054 1c28 A050      		subi r26,lo8(-(myip))
 6055 1c2a B040      		sbci r27,hi8(-(myip))
 6056 1c2c 8C91      		ld r24,X
 6057 1c2e 8083      		st Z,r24
 6058 1c30 2F5F      		subi r18,lo8(-(1))
 6059 1c32 3F4F      		sbci r19,hi8(-(1))
 6060               	.LM962:
 6061 1c34 2430      		cpi r18,4
 6062 1c36 3105      		cpc r19,__zero_reg__
 6063 1c38 01F4      		brne .L488
 6064 1c3a 20E0      		ldi r18,lo8(0)
 6065 1c3c 30E0      		ldi r19,hi8(0)
 6066               	.L489:
 6067               	.LM963:
 6068 1c3e F901      		movw r30,r18
 6069 1c40 E050      		subi r30,lo8(-(macaddr))
 6070 1c42 F040      		sbci r31,hi8(-(macaddr))
 6071 1c44 D901      		movw r26,r18
 6072 1c46 A050      		subi r26,lo8(-(mymac))
 6073 1c48 B040      		sbci r27,hi8(-(mymac))
 6074 1c4a 8C91      		ld r24,X
 6075 1c4c 8083      		st Z,r24
 6076 1c4e 2F5F      		subi r18,lo8(-(1))
 6077 1c50 3F4F      		sbci r19,hi8(-(1))
 6078               	.LM964:
 6079 1c52 2630      		cpi r18,6
 6080 1c54 3105      		cpc r19,__zero_reg__
 6081 1c56 01F4      		brne .L489
 6082               	.LBE366:
 6083               	.LBE365:
 6084               	.LBB367:
 6085               	.LBB368:
 6086               	.LM965:
 6087 1c58 81E0      		ldi r24,lo8(1)
 6088 1c5a 8093 0000 		sts waitgwmac,r24
 6089 1c5e 80E0      		ldi r24,lo8(gwip)
 6090 1c60 90E0      		ldi r25,hi8(gwip)
 6091               	.L490:
 6092               	.LM966:
 6093 1c62 0196      		adiw r24,1
 6094               	.LM967:
 6095 1c64 20E0      		ldi r18,hi8(gwip+4)
 6096 1c66 8030      		cpi r24,lo8(gwip+4)
 6097 1c68 9207      		cpc r25,r18
 6098 1c6a 01F4      		brne .L490
 6099               	.LBE368:
 6100               	.LBE367:
 6101               	.LBB369:
 6102               	.LBB370:
 6103               	.LM968:
 6104 1c6c 80E0      		ldi r24,lo8(gs(ping_callback))
 6105 1c6e 90E0      		ldi r25,hi8(gs(ping_callback))
 6106 1c70 9093 0000 		sts (icmp_callback)+1,r25
 6107 1c74 8093 0000 		sts icmp_callback,r24
 6108               	.LBE370:
 6109               	.LBE369:
 6110               	.LM969:
 6111 1c78 E0E0      		ldi r30,lo8(urlvarstr)
 6112 1c7a 2E2E      		mov r2,r30
 6113 1c7c E0E0      		ldi r30,hi8(urlvarstr)
 6114 1c7e 3E2E      		mov r3,r30
 6115               	.LBB371:
 6116               	.LBB372:
 6117               	.LM970:
 6118 1c80 70E0      		ldi r23,lo8(__c.3202)
 6119 1c82 472E      		mov r4,r23
 6120 1c84 70E0      		ldi r23,hi8(__c.3202)
 6121 1c86 572E      		mov r5,r23
 6122 1c88 60E0      		ldi r22,lo8(__c.3204)
 6123 1c8a 862E      		mov r8,r22
 6124 1c8c 60E0      		ldi r22,hi8(__c.3204)
 6125 1c8e 962E      		mov r9,r22
 6126               	.LM971:
 6127 1c90 50E0      		ldi r21,lo8(gs(browserresult_callback))
 6128 1c92 652E      		mov r6,r21
 6129 1c94 50E0      		ldi r21,hi8(gs(browserresult_callback))
 6130 1c96 752E      		mov r7,r21
 6131               	.LBB373:
 6132               	.LBB374:
 6133               	.LM972:
 6134 1c98 40E0      		ldi r20,lo8(gs(www_client_internal_result_callback))
 6135 1c9a A42E      		mov r10,r20
 6136 1c9c 40E0      		ldi r20,hi8(gs(www_client_internal_result_callback))
 6137 1c9e B42E      		mov r11,r20
 6138               	.LM973:
 6139 1ca0 30E0      		ldi r19,lo8(gs(www_client_internal_datafill_callback))
 6140 1ca2 C32E      		mov r12,r19
 6141 1ca4 30E0      		ldi r19,hi8(gs(www_client_internal_datafill_callback))
 6142 1ca6 D32E      		mov r13,r19
 6143               	.LBE374:
 6144               	.LBE373:
 6145               	.LBE372:
 6146               	.LBE371:
 6147               	.LBB378:
 6148               	.LBB379:
 6149               	.LBB380:
 6150               	.LBB381:
 6151               	.LM974:
 6152 1ca8 20E9      		ldi r18,lo8(400)
 6153 1caa E22E      		mov r14,r18
 6154 1cac 21E0      		ldi r18,hi8(400)
 6155 1cae F22E      		mov r15,r18
 6156               	.LVL499:
 6157               	.L524:
 6158               	.LBE381:
 6159               	.LBE380:
 6160               	.LBE379:
 6161               	.LBE378:
 6162               	.LM975:
 6163 1cb0 8AE8      		ldi r24,lo8(650)
 6164 1cb2 92E0      		ldi r25,hi8(650)
 6165 1cb4 60E0      		ldi r22,lo8(buf)
 6166 1cb6 70E0      		ldi r23,hi8(buf)
 6167 1cb8 0E94 0000 		call enc28j60PacketReceive
 6168               	.LVL500:
 6169 1cbc EC01      		movw r28,r24
 6170               	.LM976:
 6171 1cbe 80E0      		ldi r24,lo8(buf)
 6172 1cc0 90E0      		ldi r25,hi8(buf)
 6173 1cc2 BE01      		movw r22,r28
 6174 1cc4 0E94 0000 		call packetloop_icmp_tcp
 6175 1cc8 8C01      		movw r16,r24
 6176               	.LM977:
 6177 1cca 2097      		sbiw r28,0
 6178 1ccc 01F0      		breq .+2
 6179 1cce 00C0      		rjmp .L491
 6180               	.LM978:
 6181 1cd0 8099      		sbic 48-32,0
 6182 1cd2 00C0      		rjmp .L492
 6183               	.LM979:
 6184 1cd4 DE98      		cbi 59-32,6
 6185 1cd6 88E8      		ldi r24,lo8(5000)
 6186 1cd8 93E1      		ldi r25,hi8(5000)
 6187               	.LVL501:
 6188               	.L493:
 6189               	.LBB385:
 6190               	.LBB384:
 6191               	.LBB383:
 6192               	.LBB382:
 6193               	.LM980:
 6194 1cda F701      		movw r30,r14
 6195               	.LVL502:
 6196               	/* #APP */
 6197               	 ;  105 "c:/winavr/lib/gcc/../../avr/include/util/delay_basic.h" 1
 6198 1cdc 3197      		1: sbiw r30,1
 6199 1cde 01F4      		brne 1b
 6200               	 ;  0 "" 2
 6201               	/* #NOAPP */
 6202               	.LBE382:
 6203               	.LBE383:
 6204               	.LM981:
 6205 1ce0 0197      		sbiw r24,1
 6206               	.LM982:
 6207 1ce2 01F4      		brne .L493
 6208               	.L516:
 6209               	.LBE384:
 6210               	.LBE385:
 6211               	.LM983:
 6212 1ce4 809B      		sbis 48-32,0
 6213 1ce6 00C0      		rjmp .L516
 6214               	.LM984:
 6215 1ce8 DE9A      		sbi 59-32,6
 6216               	.LBB386:
 6217               	.LBB387:
 6218               	.LM985:
 6219 1cea 8091 0000 		lds r24,start_web_client
 6220               	.LVL503:
 6221 1cee 8823      		tst r24
 6222 1cf0 01F4      		brne .L492
 6223               	.LM986:
 6224 1cf2 81E0      		ldi r24,lo8(1)
 6225 1cf4 8093 0000 		sts start_web_client,r24
 6226               	.L492:
 6227               	.LBE387:
 6228               	.LBE386:
 6229               	.LBB388:
 6230               	.LBB389:
 6231               	.LM987:
 6232 1cf8 8091 0000 		lds r24,waitgwmac
 6233 1cfc 81FF      		sbrs r24,1
 6234 1cfe 00C0      		rjmp .L524
 6235               	.LBE389:
 6236               	.LBE388:
 6237               	.LM988:
 6238 1d00 8091 0000 		lds r24,dns_state
 6239 1d04 8823      		tst r24
 6240 1d06 01F4      		brne .L496
 6241               	.LM989:
 6242 1d08 1092 0000 		sts sec,__zero_reg__
 6243               	.LM990:
 6244 1d0c 21E0      		ldi r18,lo8(1)
 6245 1d0e 2093 0000 		sts dns_state,r18
 6246               	.LM991:
 6247 1d12 80E0      		ldi r24,lo8(buf)
 6248 1d14 90E0      		ldi r25,hi8(buf)
 6249 1d16 60E0      		ldi r22,lo8(__c.3198)
 6250 1d18 70E0      		ldi r23,hi8(__c.3198)
 6251 1d1a 0E94 0000 		call dnslkup_request
 6252               	.LVL504:
 6253 1d1e 00C0      		rjmp .L524
 6254               	.LVL505:
 6255               	.L496:
 6256               	.LM992:
 6257 1d20 8130      		cpi r24,lo8(1)
 6258 1d22 01F4      		brne .L497
 6259 1d24 8091 0000 		lds r24,haveDNSanswer
 6260 1d28 8823      		tst r24
 6261 1d2a 01F0      		breq .L497
 6262               	.LM993:
 6263 1d2c 82E0      		ldi r24,lo8(2)
 6264 1d2e 8093 0000 		sts dns_state,r24
 6265 1d32 20E0      		ldi r18,lo8(0)
 6266 1d34 30E0      		ldi r19,hi8(0)
 6267               	.L498:
 6268               	.LBB390:
 6269               	.LBB391:
 6270               	.LM994:
 6271 1d36 F901      		movw r30,r18
 6272               	.LVL506:
 6273 1d38 E050      		subi r30,lo8(-(tcpsrvip))
 6274 1d3a F040      		sbci r31,hi8(-(tcpsrvip))
 6275 1d3c D901      		movw r26,r18
 6276 1d3e A050      		subi r26,lo8(-(dns_answerip))
 6277 1d40 B040      		sbci r27,hi8(-(dns_answerip))
 6278 1d42 8C91      		ld r24,X
 6279 1d44 8083      		st Z,r24
 6280 1d46 2F5F      		subi r18,lo8(-(1))
 6281 1d48 3F4F      		sbci r19,hi8(-(1))
 6282               	.LM995:
 6283 1d4a 2430      		cpi r18,4
 6284 1d4c 3105      		cpc r19,__zero_reg__
 6285 1d4e 01F4      		brne .L498
 6286               	.LVL507:
 6287               	.L497:
 6288               	.LBE391:
 6289               	.LBE390:
 6290               	.LM996:
 6291 1d50 8091 0000 		lds r24,dns_state
 6292 1d54 8230      		cpi r24,lo8(2)
 6293 1d56 01F0      		breq .L499
 6294               	.LM997:
 6295 1d58 8091 0000 		lds r24,sec
 6296 1d5c 8D33      		cpi r24,lo8(61)
 6297 1d5e 00F4      		brsh .+2
 6298 1d60 00C0      		rjmp .L524
 6299               	.LM998:
 6300 1d62 1092 0000 		sts dns_state,__zero_reg__
 6301 1d66 00C0      		rjmp .L524
 6302               	.L499:
 6303               	.LM999:
 6304 1d68 1091 0000 		lds r17,start_web_client
 6305               	.LVL508:
 6306 1d6c 1130      		cpi r17,lo8(1)
 6307 1d6e 01F4      		brne .L500
 6308               	.LM1000:
 6309 1d70 DE98      		cbi 59-32,6
 6310               	.LM1001:
 6311 1d72 1092 0000 		sts sec,__zero_reg__
 6312               	.LM1002:
 6313 1d76 8093 0000 		sts start_web_client,r24
 6314               	.LM1003:
 6315 1d7a 8091 0000 		lds r24,web_client_attempts
 6316 1d7e 8F5F      		subi r24,lo8(-(1))
 6317 1d80 8093 0000 		sts web_client_attempts,r24
 6318               	.LM1004:
 6319 1d84 80E0      		ldi r24,lo8(__c.3200)
 6320 1d86 90E0      		ldi r25,hi8(__c.3200)
 6321 1d88 60E0      		ldi r22,lo8(urlvarstr)
 6322 1d8a 70E0      		ldi r23,hi8(urlvarstr)
 6323 1d8c 0E94 0000 		call urlencode
 6324               	.LVL509:
 6325               	.LBB392:
 6326               	.LBB377:
 6327               	.LM1005:
 6328 1d90 5092 0000 		sts (client_urlbuf)+1,r5
 6329 1d94 4092 0000 		sts client_urlbuf,r4
 6330               	.LM1006:
 6331 1d98 3092 0000 		sts (client_urlbuf_var)+1,r3
 6332 1d9c 2092 0000 		sts client_urlbuf_var,r2
 6333               	.LM1007:
 6334 1da0 9092 0000 		sts (client_hoststr)+1,r9
 6335 1da4 8092 0000 		sts client_hoststr,r8
 6336               	.LM1008:
 6337 1da8 1092 0000 		sts browsertype,__zero_reg__
 6338               	.LM1009:
 6339 1dac 7092 0000 		sts (client_browser_callback)+1,r7
 6340 1db0 6092 0000 		sts client_browser_callback,r6
 6341               	.LBB376:
 6342               	.LBB375:
 6343               	.LM1010:
 6344 1db4 B092 0000 		sts (client_tcp_result_callback)+1,r11
 6345 1db8 A092 0000 		sts client_tcp_result_callback,r10
 6346               	.LM1011:
 6347 1dbc D092 0000 		sts (client_tcp_datafill_callback)+1,r13
 6348 1dc0 C092 0000 		sts client_tcp_datafill_callback,r12
 6349               	.LM1012:
 6350 1dc4 1092 0000 		sts tcp_client_port_h,__zero_reg__
 6351               	.LM1013:
 6352 1dc8 20E5      		ldi r18,lo8(80)
 6353 1dca 2093 0000 		sts tcp_client_port_l,r18
 6354               	.LM1014:
 6355 1dce 1093 0000 		sts tcp_client_state,r17
 6356               	.LM1015:
 6357 1dd2 8091 0000 		lds r24,tcp_fd
 6358 1dd6 8F5F      		subi r24,lo8(-(1))
 6359 1dd8 8093 0000 		sts tcp_fd,r24
 6360               	.LM1016:
 6361 1ddc 8830      		cpi r24,lo8(8)
 6362 1dde 00F0      		brlo .L501
 6363               	.LM1017:
 6364 1de0 1092 0000 		sts tcp_fd,__zero_reg__
 6365               	.L501:
 6366               	.LBE375:
 6367               	.LBE376:
 6368               	.LM1018:
 6369 1de4 8091 0000 		lds r24,tcp_fd
 6370 1de8 8093 0000 		sts www_fd,r24
 6371               	.LVL510:
 6372               	.L500:
 6373               	.LBE377:
 6374               	.LBE392:
 6375               	.LM1019:
 6376 1dec 8091 0000 		lds r24,sec
 6377 1df0 8D33      		cpi r24,lo8(61)
 6378 1df2 00F4      		brsh .+2
 6379 1df4 00C0      		rjmp .L524
 6380 1df6 8091 0000 		lds r24,start_web_client
 6381 1dfa 8230      		cpi r24,lo8(2)
 6382 1dfc 01F0      		breq .+2
 6383 1dfe 00C0      		rjmp .L524
 6384               	.LM1020:
 6385 1e00 1092 0000 		sts start_web_client,__zero_reg__
 6386 1e04 00C0      		rjmp .L524
 6387               	.LVL511:
 6388               	.L491:
 6389               	.LM1021:
 6390 1e06 0097      		sbiw r24,0
 6391 1e08 01F4      		brne .L502
 6392               	.LVL512:
 6393               	.LM1022:
 6394 1e0a 80E0      		ldi r24,lo8(buf)
 6395 1e0c 90E0      		ldi r25,hi8(buf)
 6396               	.LVL513:
 6397 1e0e BE01      		movw r22,r28
 6398 1e10 0E94 0000 		call udp_client_check_for_dns_answer
 6399 1e14 00C0      		rjmp .L524
 6400               	.LVL514:
 6401               	.L502:
 6402               	.LM1023:
 6403 1e16 BC01      		movw r22,r24
 6404 1e18 6050      		subi r22,lo8(-(buf))
 6405 1e1a 7040      		sbci r23,hi8(-(buf))
 6406 1e1c 80E0      		ldi r24,lo8(.LC1)
 6407 1e1e 90E0      		ldi r25,hi8(.LC1)
 6408               	.LVL515:
 6409 1e20 44E0      		ldi r20,lo8(4)
 6410 1e22 50E0      		ldi r21,hi8(4)
 6411 1e24 0E94 0000 		call strncmp
 6412 1e28 0097      		sbiw r24,0
 6413 1e2a 01F0      		breq .L503
 6414 1e2c 60E0      		ldi r22,lo8(0)
 6415 1e2e 70E0      		ldi r23,hi8(0)
 6416               	.LVL516:
 6417 1e30 00C0      		rjmp .L504
 6418               	.LVL517:
 6419               	.L505:
 6420               	.LBB393:
 6421               	.LBB394:
 6422               	.LBB395:
 6423               	.LBB396:
 6424               	.LM1024:
 6425 1e32 FB01      		movw r30,r22
 6426 1e34 E050      		subi r30,lo8(-(buf))
 6427 1e36 F040      		sbci r31,hi8(-(buf))
 6428 1e38 86AB      		std Z+54,r24
 6429               	.LM1025:
 6430 1e3a 6F5F      		subi r22,lo8(-(1))
 6431 1e3c 7F4F      		sbci r23,hi8(-(1))
 6432               	.L504:
 6433               	.LBB397:
 6434               	.LM1026:
 6435 1e3e FB01      		movw r30,r22
 6436 1e40 E050      		subi r30,lo8(-(__c.3106))
 6437 1e42 F040      		sbci r31,hi8(-(__c.3106))
 6438               	/* #APP */
 6439               	 ;  463 "ip_arp_udp_tcp.c" 1
 6440 1e44 8491      		lpm r24, Z
 6441               		
 6442               	 ;  0 "" 2
 6443               	/* #NOAPP */
 6444               	.LBE397:
 6445 1e46 8823      		tst r24
 6446 1e48 01F4      		brne .L505
 6447 1e4a DB01      		movw r26,r22
 6448 1e4c A050      		subi r26,lo8(-(buf+54))
 6449 1e4e B040      		sbci r27,hi8(-(buf+54))
 6450               	.LM1027:
 6451 1e50 80E0      		ldi r24,lo8(__c.3206)
 6452 1e52 90E0      		ldi r25,hi8(__c.3206)
 6453               	.LVL518:
 6454 1e54 00C0      		rjmp .L506
 6455               	.LVL519:
 6456               	.L507:
 6457               	.LBE396:
 6458               	.LBE395:
 6459               	.LBE394:
 6460               	.LBE393:
 6461               	.LBB398:
 6462               	.LBB399:
 6463               	.LM1028:
 6464 1e56 2D93      		st X+,r18
 6465               	.LM1029:
 6466 1e58 6F5F      		subi r22,lo8(-(1))
 6467 1e5a 7F4F      		sbci r23,hi8(-(1))
 6468               	.L506:
 6469 1e5c FC01      		movw r30,r24
 6470               	.LBB400:
 6471               	.LM1030:
 6472 1e5e 0196      		adiw r24,1
 6473               	/* #APP */
 6474               	 ;  463 "ip_arp_udp_tcp.c" 1
 6475 1e60 2491      		lpm r18, Z
 6476               		
 6477               	 ;  0 "" 2
 6478               	/* #NOAPP */
 6479               	.LBE400:
 6480 1e62 2223      		tst r18
 6481 1e64 01F4      		brne .L507
 6482 1e66 00C0      		rjmp .L508
 6483               	.LVL520:
 6484               	.L503:
 6485               	.LBE399:
 6486               	.LBE398:
 6487               	.LM1031:
 6488 1e68 0050      		subi r16,lo8(-(buf+4))
 6489 1e6a 1040      		sbci r17,hi8(-(buf+4))
 6490 1e6c 80E0      		ldi r24,lo8(.LC2)
 6491 1e6e 90E0      		ldi r25,hi8(.LC2)
 6492 1e70 B801      		movw r22,r16
 6493 1e72 42E0      		ldi r20,lo8(2)
 6494 1e74 50E0      		ldi r21,hi8(2)
 6495 1e76 0E94 0000 		call strncmp
 6496 1e7a 0097      		sbiw r24,0
 6497 1e7c 01F0      		breq .L509
 6498 1e7e 60E0      		ldi r22,lo8(0)
 6499 1e80 70E0      		ldi r23,hi8(0)
 6500               	.LVL521:
 6501 1e82 00C0      		rjmp .L510
 6502               	.LVL522:
 6503               	.L509:
 6504 1e84 80E0      		ldi r24,lo8(0)
 6505 1e86 90E0      		ldi r25,hi8(0)
 6506               	.LVL523:
 6507 1e88 00C0      		rjmp .L511
 6508               	.LVL524:
 6509               	.L512:
 6510               	.LBB401:
 6511               	.LBB402:
 6512               	.LBB403:
 6513               	.LBB404:
 6514               	.LM1032:
 6515 1e8a FC01      		movw r30,r24
 6516 1e8c E050      		subi r30,lo8(-(buf))
 6517 1e8e F040      		sbci r31,hi8(-(buf))
 6518 1e90 26AB      		std Z+54,r18
 6519               	.LM1033:
 6520 1e92 0196      		adiw r24,1
 6521               	.L511:
 6522               	.LBB405:
 6523               	.LM1034:
 6524 1e94 FC01      		movw r30,r24
 6525 1e96 E050      		subi r30,lo8(-(__c.3106))
 6526 1e98 F040      		sbci r31,hi8(-(__c.3106))
 6527               	/* #APP */
 6528               	 ;  463 "ip_arp_udp_tcp.c" 1
 6529 1e9a 2491      		lpm r18, Z
 6530               		
 6531               	 ;  0 "" 2
 6532               	/* #NOAPP */
 6533               	.LBE405:
 6534 1e9c 2223      		tst r18
 6535 1e9e 01F4      		brne .L512
 6536               	.LBE404:
 6537               	.LBE403:
 6538               	.LBE402:
 6539               	.LBE401:
 6540               	.LM1035:
 6541 1ea0 80E0      		ldi r24,lo8(buf)
 6542 1ea2 90E0      		ldi r25,hi8(buf)
 6543               	.LVL525:
 6544 1ea4 0E94 0000 		call print_webpage
 6545               	.LVL526:
 6546 1ea8 BC01      		movw r22,r24
 6547               	.LVL527:
 6548 1eaa 00C0      		rjmp .L508
 6549               	.LVL528:
 6550               	.L513:
 6551               	.LBB406:
 6552               	.LBB407:
 6553               	.LM1036:
 6554 1eac FB01      		movw r30,r22
 6555 1eae E050      		subi r30,lo8(-(buf))
 6556 1eb0 F040      		sbci r31,hi8(-(buf))
 6557 1eb2 86AB      		std Z+54,r24
 6558               	.LM1037:
 6559 1eb4 6F5F      		subi r22,lo8(-(1))
 6560 1eb6 7F4F      		sbci r23,hi8(-(1))
 6561               	.L510:
 6562               	.LBB408:
 6563               	.LM1038:
 6564 1eb8 FB01      		movw r30,r22
 6565 1eba E050      		subi r30,lo8(-(__c.3209))
 6566 1ebc F040      		sbci r31,hi8(-(__c.3209))
 6567               	/* #APP */
 6568               	 ;  463 "ip_arp_udp_tcp.c" 1
 6569 1ebe 8491      		lpm r24, Z
 6570               		
 6571               	 ;  0 "" 2
 6572               	/* #NOAPP */
 6573               	.LBE408:
 6574 1ec0 8823      		tst r24
 6575 1ec2 01F4      		brne .L513
 6576               	.LVL529:
 6577               	.L508:
 6578               	.LBE407:
 6579               	.LBE406:
 6580               	.LM1039:
 6581 1ec4 80E0      		ldi r24,lo8(buf)
 6582 1ec6 90E0      		ldi r25,hi8(buf)
 6583               	.LVL530:
 6584 1ec8 0E94 0000 		call www_server_reply
 6585               	.LVL531:
 6586 1ecc 00C0      		rjmp .L524
 6587               	.LFE80:
 6589               	.global	www_client_internal_datafill_callback
 6591               	www_client_internal_datafill_callback:
 6592               	.LFB55:
 6593               	.LM1040:
 6594               	.LVL532:
 6595 1ece CF92      		push r12
 6596 1ed0 DF92      		push r13
 6597 1ed2 EF92      		push r14
 6598 1ed4 FF92      		push r15
 6599 1ed6 0F93      		push r16
 6600 1ed8 1F93      		push r17
 6601 1eda DF93      		push r29
 6602 1edc CF93      		push r28
 6603 1ede 00D0      		rcall .
 6604 1ee0 00D0      		rcall .
 6605 1ee2 0F92      		push __tmp_reg__
 6606 1ee4 CDB7      		in r28,__SP_L__
 6607 1ee6 DEB7      		in r29,__SP_H__
 6608               	/* prologue: function */
 6609               	/* frame size = 5 */
 6610               	.LM1041:
 6611 1ee8 9091 0000 		lds r25,www_fd
 6612 1eec 8917      		cp r24,r25
 6613 1eee 01F0      		breq .L526
 6614 1ef0 40E0      		ldi r20,lo8(0)
 6615 1ef2 50E0      		ldi r21,hi8(0)
 6616               	.LVL533:
 6617 1ef4 00C0      		rjmp .L527
 6618               	.LVL534:
 6619               	.L526:
 6620               	.LM1042:
 6621 1ef6 8091 0000 		lds r24,browsertype
 6622               	.LVL535:
 6623 1efa 0091 0000 		lds r16,bufptr
 6624 1efe 1091 0000 		lds r17,(bufptr)+1
 6625 1f02 8823      		tst r24
 6626 1f04 01F0      		breq .+2
 6627 1f06 00C0      		rjmp .L528
 6628               	.LM1043:
 6629 1f08 D801      		movw r26,r16
 6630 1f0a D696      		adiw r26,54
 6631 1f0c 60E0      		ldi r22,lo8(0)
 6632 1f0e 70E0      		ldi r23,hi8(0)
 6633               	.LVL536:
 6634 1f10 00C0      		rjmp .L529
 6635               	.LVL537:
 6636               	.L530:
 6637               	.LBB409:
 6638               	.LBB410:
 6639               	.LM1044:
 6640 1f12 8D93      		st X+,r24
 6641               	.LM1045:
 6642 1f14 6F5F      		subi r22,lo8(-(1))
 6643 1f16 7F4F      		sbci r23,hi8(-(1))
 6644               	.L529:
 6645               	.LBB411:
 6646               	.LM1046:
 6647 1f18 FB01      		movw r30,r22
 6648 1f1a E050      		subi r30,lo8(-(__c.2643))
 6649 1f1c F040      		sbci r31,hi8(-(__c.2643))
 6650               	/* #APP */
 6651               	 ;  463 "ip_arp_udp_tcp.c" 1
 6652 1f1e 8491      		lpm r24, Z
 6653               		
 6654               	 ;  0 "" 2
 6655               	/* #NOAPP */
 6656               	.LBE411:
 6657 1f20 8823      		tst r24
 6658 1f22 01F4      		brne .L530
 6659               	.LBE410:
 6660               	.LBE409:
 6661               	.LM1047:
 6662 1f24 6A5C      		subi r22,lo8(-(54))
 6663 1f26 7F4F      		sbci r23,hi8(-(54))
 6664 1f28 D801      		movw r26,r16
 6665 1f2a A60F      		add r26,r22
 6666 1f2c B71F      		adc r27,r23
 6667 1f2e 6653      		subi r22,lo8(-(-54))
 6668 1f30 7040      		sbci r23,hi8(-(-54))
 6669 1f32 8091 0000 		lds r24,client_urlbuf
 6670               	.LVL538:
 6671 1f36 9091 0000 		lds r25,client_urlbuf+1
 6672               	.LVL539:
 6673 1f3a 9C01      		movw r18,r24
 6674               	.LVL540:
 6675 1f3c 00C0      		rjmp .L531
 6676               	.LVL541:
 6677               	.L532:
 6678               	.LBB412:
 6679               	.LBB413:
 6680               	.LM1048:
 6681 1f3e 8D93      		st X+,r24
 6682               	.LM1049:
 6683 1f40 6F5F      		subi r22,lo8(-(1))
 6684 1f42 7F4F      		sbci r23,hi8(-(1))
 6685               	.L531:
 6686 1f44 F901      		movw r30,r18
 6687               	.LBB414:
 6688               	.LM1050:
 6689 1f46 2F5F      		subi r18,lo8(-(1))
 6690 1f48 3F4F      		sbci r19,hi8(-(1))
 6691               	/* #APP */
 6692               	 ;  463 "ip_arp_udp_tcp.c" 1
 6693 1f4a 8491      		lpm r24, Z
 6694               		
 6695               	 ;  0 "" 2
 6696               	/* #NOAPP */
 6697               	.LBE414:
 6698 1f4c 8823      		tst r24
 6699 1f4e 01F4      		brne .L532
 6700               	.LBE413:
 6701               	.LBE412:
 6702               	.LM1051:
 6703 1f50 4091 0000 		lds r20,client_urlbuf_var
 6704 1f54 5091 0000 		lds r21,(client_urlbuf_var)+1
 6705 1f58 C801      		movw r24,r16
 6706               	.LVL542:
 6707 1f5a 0E94 0000 		call fill_tcp_data
 6708               	.LVL543:
 6709 1f5e AC01      		movw r20,r24
 6710               	.LVL544:
 6711 1f60 4A5C      		subi r20,lo8(-(54))
 6712 1f62 5F4F      		sbci r21,hi8(-(54))
 6713 1f64 D801      		movw r26,r16
 6714 1f66 A40F      		add r26,r20
 6715 1f68 B51F      		adc r27,r21
 6716 1f6a 4653      		subi r20,lo8(-(-54))
 6717 1f6c 5040      		sbci r21,hi8(-(-54))
 6718               	.LM1052:
 6719 1f6e 80E0      		ldi r24,lo8(__c.2645)
 6720 1f70 90E0      		ldi r25,hi8(__c.2645)
 6721               	.LVL545:
 6722 1f72 00C0      		rjmp .L533
 6723               	.LVL546:
 6724               	.L534:
 6725               	.LBB415:
 6726               	.LBB416:
 6727               	.LM1053:
 6728 1f74 2D93      		st X+,r18
 6729               	.LM1054:
 6730 1f76 4F5F      		subi r20,lo8(-(1))
 6731 1f78 5F4F      		sbci r21,hi8(-(1))
 6732               	.L533:
 6733 1f7a FC01      		movw r30,r24
 6734               	.LBB417:
 6735               	.LM1055:
 6736 1f7c 0196      		adiw r24,1
 6737               	/* #APP */
 6738               	 ;  463 "ip_arp_udp_tcp.c" 1
 6739 1f7e 2491      		lpm r18, Z
 6740               		
 6741               	 ;  0 "" 2
 6742               	/* #NOAPP */
 6743               	.LBE417:
 6744 1f80 2223      		tst r18
 6745 1f82 01F4      		brne .L534
 6746               	.LBE416:
 6747               	.LBE415:
 6748               	.LM1056:
 6749 1f84 4A5C      		subi r20,lo8(-(54))
 6750 1f86 5F4F      		sbci r21,hi8(-(54))
 6751 1f88 D801      		movw r26,r16
 6752 1f8a A40F      		add r26,r20
 6753 1f8c B51F      		adc r27,r21
 6754 1f8e 4653      		subi r20,lo8(-(-54))
 6755 1f90 5040      		sbci r21,hi8(-(-54))
 6756 1f92 8091 0000 		lds r24,client_hoststr
 6757               	.LVL547:
 6758 1f96 9091 0000 		lds r25,client_hoststr+1
 6759               	.LVL548:
 6760 1f9a 9C01      		movw r18,r24
 6761               	.LVL549:
 6762 1f9c 00C0      		rjmp .L535
 6763               	.LVL550:
 6764               	.L536:
 6765               	.LBB418:
 6766               	.LBB419:
 6767               	.LM1057:
 6768 1f9e 8D93      		st X+,r24
 6769               	.LM1058:
 6770 1fa0 4F5F      		subi r20,lo8(-(1))
 6771 1fa2 5F4F      		sbci r21,hi8(-(1))
 6772               	.LVL551:
 6773               	.L535:
 6774 1fa4 F901      		movw r30,r18
 6775               	.LVL552:
 6776               	.LBB420:
 6777               	.LM1059:
 6778 1fa6 2F5F      		subi r18,lo8(-(1))
 6779 1fa8 3F4F      		sbci r19,hi8(-(1))
 6780               	/* #APP */
 6781               	 ;  463 "ip_arp_udp_tcp.c" 1
 6782 1faa 8491      		lpm r24, Z
 6783               		
 6784               	 ;  0 "" 2
 6785               	/* #NOAPP */
 6786               	.LBE420:
 6787 1fac 8823      		tst r24
 6788 1fae 01F4      		brne .L536
 6789 1fb0 4A5C      		subi r20,lo8(-(54))
 6790 1fb2 5F4F      		sbci r21,hi8(-(54))
 6791 1fb4 D801      		movw r26,r16
 6792 1fb6 A40F      		add r26,r20
 6793 1fb8 B51F      		adc r27,r21
 6794 1fba 4653      		subi r20,lo8(-(-54))
 6795 1fbc 5040      		sbci r21,hi8(-(-54))
 6796               	.LM1060:
 6797 1fbe 80E0      		ldi r24,lo8(__c.2647)
 6798 1fc0 90E0      		ldi r25,hi8(__c.2647)
 6799               	.LVL553:
 6800 1fc2 00C0      		rjmp .L537
 6801               	.LVL554:
 6802               	.L538:
 6803               	.LBE419:
 6804               	.LBE418:
 6805               	.LBB421:
 6806               	.LBB422:
 6807               	.LM1061:
 6808 1fc4 2D93      		st X+,r18
 6809               	.LM1062:
 6810 1fc6 4F5F      		subi r20,lo8(-(1))
 6811 1fc8 5F4F      		sbci r21,hi8(-(1))
 6812               	.LVL555:
 6813               	.L537:
 6814 1fca FC01      		movw r30,r24
 6815               	.LVL556:
 6816               	.LBB423:
 6817               	.LM1063:
 6818 1fcc 0196      		adiw r24,1
 6819               	/* #APP */
 6820               	 ;  463 "ip_arp_udp_tcp.c" 1
 6821 1fce 2491      		lpm r18, Z
 6822               		
 6823               	 ;  0 "" 2
 6824               	.LVL557:
 6825               	/* #NOAPP */
 6826               	.LBE423:
 6827 1fd0 2223      		tst r18
 6828 1fd2 01F4      		brne .L538
 6829 1fd4 00C0      		rjmp .L527
 6830               	.LVL558:
 6831               	.L528:
 6832               	.LBE422:
 6833               	.LBE421:
 6834               	.LM1064:
 6835 1fd6 D801      		movw r26,r16
 6836 1fd8 D696      		adiw r26,54
 6837 1fda EE24      		clr r14
 6838 1fdc FF24      		clr r15
 6839               	.LVL559:
 6840 1fde 00C0      		rjmp .L539
 6841               	.LVL560:
 6842               	.L540:
 6843               	.LBB424:
 6844               	.LBB425:
 6845               	.LM1065:
 6846 1fe0 8D93      		st X+,r24
 6847               	.LM1066:
 6848 1fe2 0894      		sec
 6849 1fe4 E11C      		adc r14,__zero_reg__
 6850 1fe6 F11C      		adc r15,__zero_reg__
 6851               	.L539:
 6852               	.LBB426:
 6853               	.LM1067:
 6854 1fe8 F701      		movw r30,r14
 6855 1fea E050      		subi r30,lo8(-(__c.2649))
 6856 1fec F040      		sbci r31,hi8(-(__c.2649))
 6857               	/* #APP */
 6858               	 ;  463 "ip_arp_udp_tcp.c" 1
 6859 1fee 8491      		lpm r24, Z
 6860               		
 6861               	 ;  0 "" 2
 6862               	/* #NOAPP */
 6863               	.LBE426:
 6864 1ff0 8823      		tst r24
 6865 1ff2 01F4      		brne .L540
 6866               	.LBE425:
 6867               	.LBE424:
 6868               	.LM1068:
 6869 1ff4 86E3      		ldi r24,lo8(54)
 6870 1ff6 90E0      		ldi r25,hi8(54)
 6871               	.LVL561:
 6872 1ff8 E80E      		add r14,r24
 6873 1ffa F91E      		adc r15,r25
 6874 1ffc D801      		movw r26,r16
 6875 1ffe AE0D      		add r26,r14
 6876 2000 BF1D      		adc r27,r15
 6877 2002 8AEC      		ldi r24,lo8(-54)
 6878 2004 9FEF      		ldi r25,hi8(-54)
 6879 2006 E80E      		add r14,r24
 6880 2008 F91E      		adc r15,r25
 6881 200a 8091 0000 		lds r24,client_urlbuf
 6882               	.LVL562:
 6883 200e 9091 0000 		lds r25,client_urlbuf+1
 6884               	.LVL563:
 6885 2012 9C01      		movw r18,r24
 6886               	.LVL564:
 6887 2014 00C0      		rjmp .L541
 6888               	.LVL565:
 6889               	.L542:
 6890               	.LBB427:
 6891               	.LBB428:
 6892               	.LM1069:
 6893 2016 8D93      		st X+,r24
 6894               	.LM1070:
 6895 2018 0894      		sec
 6896 201a E11C      		adc r14,__zero_reg__
 6897 201c F11C      		adc r15,__zero_reg__
 6898               	.L541:
 6899 201e F901      		movw r30,r18
 6900               	.LBB429:
 6901               	.LM1071:
 6902 2020 2F5F      		subi r18,lo8(-(1))
 6903 2022 3F4F      		sbci r19,hi8(-(1))
 6904               	/* #APP */
 6905               	 ;  463 "ip_arp_udp_tcp.c" 1
 6906 2024 8491      		lpm r24, Z
 6907               		
 6908               	 ;  0 "" 2
 6909               	/* #NOAPP */
 6910               	.LBE429:
 6911 2026 8823      		tst r24
 6912 2028 01F4      		brne .L542
 6913 202a 86E3      		ldi r24,lo8(54)
 6914 202c 90E0      		ldi r25,hi8(54)
 6915               	.LVL566:
 6916 202e E80E      		add r14,r24
 6917 2030 F91E      		adc r15,r25
 6918 2032 D801      		movw r26,r16
 6919 2034 AE0D      		add r26,r14
 6920 2036 BF1D      		adc r27,r15
 6921 2038 8AEC      		ldi r24,lo8(-54)
 6922 203a 9FEF      		ldi r25,hi8(-54)
 6923 203c E80E      		add r14,r24
 6924 203e F91E      		adc r15,r25
 6925               	.LM1072:
 6926 2040 80E0      		ldi r24,lo8(__c.2651)
 6927 2042 90E0      		ldi r25,hi8(__c.2651)
 6928               	.LVL567:
 6929 2044 00C0      		rjmp .L543
 6930               	.LVL568:
 6931               	.L544:
 6932               	.LBE428:
 6933               	.LBE427:
 6934               	.LBB430:
 6935               	.LBB431:
 6936               	.LM1073:
 6937 2046 2D93      		st X+,r18
 6938               	.LM1074:
 6939 2048 0894      		sec
 6940 204a E11C      		adc r14,__zero_reg__
 6941 204c F11C      		adc r15,__zero_reg__
 6942               	.LVL569:
 6943               	.L543:
 6944 204e FC01      		movw r30,r24
 6945               	.LVL570:
 6946               	.LBB432:
 6947               	.LM1075:
 6948 2050 0196      		adiw r24,1
 6949               	/* #APP */
 6950               	 ;  463 "ip_arp_udp_tcp.c" 1
 6951 2052 2491      		lpm r18, Z
 6952               		
 6953               	 ;  0 "" 2
 6954               	.LVL571:
 6955               	/* #NOAPP */
 6956               	.LBE432:
 6957 2054 2223      		tst r18
 6958 2056 01F4      		brne .L544
 6959               	.LBE431:
 6960               	.LBE430:
 6961               	.LM1076:
 6962 2058 86E3      		ldi r24,lo8(54)
 6963 205a 90E0      		ldi r25,hi8(54)
 6964               	.LVL572:
 6965 205c E80E      		add r14,r24
 6966 205e F91E      		adc r15,r25
 6967 2060 D801      		movw r26,r16
 6968 2062 AE0D      		add r26,r14
 6969 2064 BF1D      		adc r27,r15
 6970 2066 8AEC      		ldi r24,lo8(-54)
 6971 2068 9FEF      		ldi r25,hi8(-54)
 6972 206a E80E      		add r14,r24
 6973 206c F91E      		adc r15,r25
 6974 206e 8091 0000 		lds r24,client_hoststr
 6975               	.LVL573:
 6976 2072 9091 0000 		lds r25,client_hoststr+1
 6977               	.LVL574:
 6978 2076 9C01      		movw r18,r24
 6979               	.LVL575:
 6980 2078 00C0      		rjmp .L545
 6981               	.LVL576:
 6982               	.L546:
 6983               	.LBB433:
 6984               	.LBB434:
 6985               	.LM1077:
 6986 207a 8D93      		st X+,r24
 6987               	.LM1078:
 6988 207c 0894      		sec
 6989 207e E11C      		adc r14,__zero_reg__
 6990 2080 F11C      		adc r15,__zero_reg__
 6991               	.LVL577:
 6992               	.L545:
 6993 2082 F901      		movw r30,r18
 6994               	.LVL578:
 6995               	.LBB435:
 6996               	.LM1079:
 6997 2084 2F5F      		subi r18,lo8(-(1))
 6998 2086 3F4F      		sbci r19,hi8(-(1))
 6999               	/* #APP */
 7000               	 ;  463 "ip_arp_udp_tcp.c" 1
 7001 2088 8491      		lpm r24, Z
 7002               		
 7003               	 ;  0 "" 2
 7004               	/* #NOAPP */
 7005               	.LBE435:
 7006 208a 8823      		tst r24
 7007 208c 01F4      		brne .L546
 7008               	.LBE434:
 7009               	.LBE433:
 7010               	.LM1080:
 7011 208e 4091 0000 		lds r20,client_additionalheaderline
 7012 2092 5091 0000 		lds r21,(client_additionalheaderline)+1
 7013 2096 4115      		cp r20,__zero_reg__
 7014 2098 5105      		cpc r21,__zero_reg__
 7015 209a 01F0      		breq .L547
 7016 209c 86E3      		ldi r24,lo8(54)
 7017 209e 90E0      		ldi r25,hi8(54)
 7018               	.LVL579:
 7019 20a0 E80E      		add r14,r24
 7020 20a2 F91E      		adc r15,r25
 7021 20a4 D801      		movw r26,r16
 7022 20a6 AE0D      		add r26,r14
 7023 20a8 BF1D      		adc r27,r15
 7024 20aa 8AEC      		ldi r24,lo8(-54)
 7025 20ac 9FEF      		ldi r25,hi8(-54)
 7026 20ae E80E      		add r14,r24
 7027 20b0 F91E      		adc r15,r25
 7028               	.LM1081:
 7029 20b2 80E0      		ldi r24,lo8(__c.2653)
 7030 20b4 90E0      		ldi r25,hi8(__c.2653)
 7031               	.LVL580:
 7032 20b6 00C0      		rjmp .L548
 7033               	.LVL581:
 7034               	.L549:
 7035               	.LBB436:
 7036               	.LBB437:
 7037               	.LM1082:
 7038 20b8 2D93      		st X+,r18
 7039               	.LM1083:
 7040 20ba 0894      		sec
 7041 20bc E11C      		adc r14,__zero_reg__
 7042 20be F11C      		adc r15,__zero_reg__
 7043               	.LVL582:
 7044               	.L548:
 7045 20c0 FC01      		movw r30,r24
 7046               	.LVL583:
 7047               	.LBB438:
 7048               	.LM1084:
 7049 20c2 0196      		adiw r24,1
 7050               	/* #APP */
 7051               	 ;  463 "ip_arp_udp_tcp.c" 1
 7052 20c4 2491      		lpm r18, Z
 7053               		
 7054               	 ;  0 "" 2
 7055               	.LVL584:
 7056               	/* #NOAPP */
 7057               	.LBE438:
 7058 20c6 2223      		tst r18
 7059 20c8 01F4      		brne .L549
 7060 20ca 86E3      		ldi r24,lo8(54)
 7061 20cc 90E0      		ldi r25,hi8(54)
 7062               	.LVL585:
 7063 20ce E80E      		add r14,r24
 7064 20d0 F91E      		adc r15,r25
 7065 20d2 D801      		movw r26,r16
 7066 20d4 AE0D      		add r26,r14
 7067 20d6 BF1D      		adc r27,r15
 7068 20d8 8AEC      		ldi r24,lo8(-54)
 7069 20da 9FEF      		ldi r25,hi8(-54)
 7070 20dc E80E      		add r14,r24
 7071 20de F91E      		adc r15,r25
 7072 20e0 CA01      		movw r24,r20
 7073               	.LVL586:
 7074 20e2 00C0      		rjmp .L550
 7075               	.LVL587:
 7076               	.L551:
 7077               	.LBE437:
 7078               	.LBE436:
 7079               	.LBB439:
 7080               	.LBB440:
 7081               	.LM1085:
 7082 20e4 2D93      		st X+,r18
 7083               	.LM1086:
 7084 20e6 0894      		sec
 7085 20e8 E11C      		adc r14,__zero_reg__
 7086 20ea F11C      		adc r15,__zero_reg__
 7087               	.LVL588:
 7088               	.L550:
 7089 20ec FC01      		movw r30,r24
 7090               	.LVL589:
 7091               	.LBB441:
 7092               	.LM1087:
 7093 20ee 0196      		adiw r24,1
 7094               	/* #APP */
 7095               	 ;  463 "ip_arp_udp_tcp.c" 1
 7096 20f0 2491      		lpm r18, Z
 7097               		
 7098               	 ;  0 "" 2
 7099               	.LVL590:
 7100               	/* #NOAPP */
 7101               	.LBE441:
 7102 20f2 2223      		tst r18
 7103 20f4 01F4      		brne .L551
 7104               	.LVL591:
 7105               	.L547:
 7106 20f6 86E3      		ldi r24,lo8(54)
 7107 20f8 90E0      		ldi r25,hi8(54)
 7108               	.LVL592:
 7109 20fa E80E      		add r14,r24
 7110 20fc F91E      		adc r15,r25
 7111 20fe D801      		movw r26,r16
 7112 2100 AE0D      		add r26,r14
 7113 2102 BF1D      		adc r27,r15
 7114 2104 8AEC      		ldi r24,lo8(-54)
 7115 2106 9FEF      		ldi r25,hi8(-54)
 7116 2108 E80E      		add r14,r24
 7117 210a F91E      		adc r15,r25
 7118               	.LM1088:
 7119 210c 80E0      		ldi r24,lo8(__c.2655)
 7120 210e 90E0      		ldi r25,hi8(__c.2655)
 7121               	.LVL593:
 7122 2110 00C0      		rjmp .L552
 7123               	.LVL594:
 7124               	.L553:
 7125               	.LBE440:
 7126               	.LBE439:
 7127               	.LBB442:
 7128               	.LBB443:
 7129               	.LM1089:
 7130 2112 2D93      		st X+,r18
 7131               	.LM1090:
 7132 2114 0894      		sec
 7133 2116 E11C      		adc r14,__zero_reg__
 7134 2118 F11C      		adc r15,__zero_reg__
 7135               	.LVL595:
 7136               	.L552:
 7137 211a FC01      		movw r30,r24
 7138               	.LVL596:
 7139               	.LBB444:
 7140               	.LM1091:
 7141 211c 0196      		adiw r24,1
 7142               	/* #APP */
 7143               	 ;  463 "ip_arp_udp_tcp.c" 1
 7144 211e 2491      		lpm r18, Z
 7145               		
 7146               	 ;  0 "" 2
 7147               	.LVL597:
 7148               	/* #NOAPP */
 7149               	.LBE444:
 7150 2120 2223      		tst r18
 7151 2122 01F4      		brne .L553
 7152 2124 86E3      		ldi r24,lo8(54)
 7153 2126 90E0      		ldi r25,hi8(54)
 7154               	.LVL598:
 7155 2128 E80E      		add r14,r24
 7156 212a F91E      		adc r15,r25
 7157 212c D801      		movw r26,r16
 7158 212e AE0D      		add r26,r14
 7159 2130 BF1D      		adc r27,r15
 7160 2132 8AEC      		ldi r24,lo8(-54)
 7161 2134 9FEF      		ldi r25,hi8(-54)
 7162 2136 E80E      		add r14,r24
 7163 2138 F91E      		adc r15,r25
 7164               	.LM1092:
 7165 213a 80E0      		ldi r24,lo8(__c.2657)
 7166 213c 90E0      		ldi r25,hi8(__c.2657)
 7167               	.LVL599:
 7168 213e 00C0      		rjmp .L554
 7169               	.LVL600:
 7170               	.L555:
 7171               	.LBE443:
 7172               	.LBE442:
 7173               	.LBB445:
 7174               	.LBB446:
 7175               	.LM1093:
 7176 2140 2D93      		st X+,r18
 7177               	.LM1094:
 7178 2142 0894      		sec
 7179 2144 E11C      		adc r14,__zero_reg__
 7180 2146 F11C      		adc r15,__zero_reg__
 7181               	.LVL601:
 7182               	.L554:
 7183 2148 FC01      		movw r30,r24
 7184               	.LVL602:
 7185               	.LBB447:
 7186               	.LM1095:
 7187 214a 0196      		adiw r24,1
 7188               	/* #APP */
 7189               	 ;  463 "ip_arp_udp_tcp.c" 1
 7190 214c 2491      		lpm r18, Z
 7191               		
 7192               	 ;  0 "" 2
 7193               	.LVL603:
 7194               	/* #NOAPP */
 7195               	.LBE447:
 7196 214e 2223      		tst r18
 7197 2150 01F4      		brne .L555
 7198               	.LBE446:
 7199               	.LBE445:
 7200               	.LM1096:
 7201 2152 E091 0000 		lds r30,client_postval
 7202               	.LVL604:
 7203 2156 F091 0000 		lds r31,client_postval+1
 7204 215a DF01      		movw r26,r30
 7205 215c 0D90      		ld __tmp_reg__,X+
 7206 215e 0020      		tst __tmp_reg__
 7207 2160 01F4      		brne .-6
 7208 2162 1197      		sbiw r26,1
 7209 2164 CD01      		movw r24,r26
 7210               	.LVL605:
 7211 2166 8E1B      		sub r24,r30
 7212 2168 9F0B      		sbc r25,r31
 7213 216a 8E01      		movw r16,r28
 7214 216c 0F5F      		subi r16,lo8(-(1))
 7215 216e 1F4F      		sbci r17,hi8(-(1))
 7216 2170 B801      		movw r22,r16
 7217 2172 4AE0      		ldi r20,lo8(10)
 7218 2174 50E0      		ldi r21,hi8(10)
 7219 2176 0E94 0000 		call itoa
 7220               	.LVL606:
 7221               	.LM1097:
 7222 217a C090 0000 		lds r12,bufptr
 7223 217e D090 0000 		lds r13,(bufptr)+1
 7224 2182 C601      		movw r24,r12
 7225 2184 B701      		movw r22,r14
 7226 2186 A801      		movw r20,r16
 7227 2188 0E94 0000 		call fill_tcp_data
 7228 218c BC01      		movw r22,r24
 7229               	.LVL607:
 7230 218e 6A5C      		subi r22,lo8(-(54))
 7231 2190 7F4F      		sbci r23,hi8(-(54))
 7232 2192 D601      		movw r26,r12
 7233 2194 A60F      		add r26,r22
 7234 2196 B71F      		adc r27,r23
 7235 2198 6653      		subi r22,lo8(-(-54))
 7236 219a 7040      		sbci r23,hi8(-(-54))
 7237               	.LM1098:
 7238 219c 80E0      		ldi r24,lo8(__c.2659)
 7239 219e 90E0      		ldi r25,hi8(__c.2659)
 7240               	.LVL608:
 7241 21a0 00C0      		rjmp .L556
 7242               	.LVL609:
 7243               	.L557:
 7244               	.LBB448:
 7245               	.LBB449:
 7246               	.LM1099:
 7247 21a2 2D93      		st X+,r18
 7248               	.LM1100:
 7249 21a4 6F5F      		subi r22,lo8(-(1))
 7250 21a6 7F4F      		sbci r23,hi8(-(1))
 7251               	.L556:
 7252 21a8 FC01      		movw r30,r24
 7253               	.LBB450:
 7254               	.LM1101:
 7255 21aa 0196      		adiw r24,1
 7256               	/* #APP */
 7257               	 ;  463 "ip_arp_udp_tcp.c" 1
 7258 21ac 2491      		lpm r18, Z
 7259               		
 7260               	 ;  0 "" 2
 7261               	/* #NOAPP */
 7262               	.LBE450:
 7263 21ae 2223      		tst r18
 7264 21b0 01F4      		brne .L557
 7265               	.LBE449:
 7266               	.LBE448:
 7267               	.LM1102:
 7268 21b2 4091 0000 		lds r20,client_postval
 7269 21b6 5091 0000 		lds r21,(client_postval)+1
 7270 21ba C601      		movw r24,r12
 7271               	.LVL610:
 7272 21bc 0E94 0000 		call fill_tcp_data
 7273               	.LVL611:
 7274 21c0 AC01      		movw r20,r24
 7275               	.LVL612:
 7276               	.L527:
 7277               	.LM1103:
 7278 21c2 CA01      		movw r24,r20
 7279               	.LVL613:
 7280               	/* epilogue start */
 7281 21c4 0F90      		pop __tmp_reg__
 7282 21c6 0F90      		pop __tmp_reg__
 7283 21c8 0F90      		pop __tmp_reg__
 7284 21ca 0F90      		pop __tmp_reg__
 7285 21cc 0F90      		pop __tmp_reg__
 7286 21ce CF91      		pop r28
 7287 21d0 DF91      		pop r29
 7288 21d2 1F91      		pop r17
 7289 21d4 0F91      		pop r16
 7290 21d6 FF90      		pop r15
 7291 21d8 EF90      		pop r14
 7292 21da DF90      		pop r13
 7293 21dc CF90      		pop r12
 7294 21de 0895      		ret
 7295               	.LFE55:
 7297               	.global	arpreqhdr
 7298               		.section	.progmem.data,"a",@progbits
 7301               	arpreqhdr:
 7302 0000 00        		.byte	0
 7303 0001 01        		.byte	1
 7304 0002 08        		.byte	8
 7305 0003 00        		.byte	0
 7306 0004 06        		.byte	6
 7307 0005 04        		.byte	4
 7308 0006 00        		.byte	0
 7309 0007 01        		.byte	1
 7310               	.global	iphdr
 7313               	iphdr:
 7314 0008 45        		.byte	69
 7315 0009 00        		.byte	0
 7316 000a 00        		.byte	0
 7317 000b 82        		.byte	-126
 7318 000c 00        		.byte	0
 7319 000d 00        		.byte	0
 7320 000e 40        		.byte	64
 7321 000f 00        		.byte	0
 7322 0010 20        		.byte	32
 7323               		.data
 7326               	mymac:
 7327 000c 54        		.byte	84
 7328 000d 55        		.byte	85
 7329 000e 58        		.byte	88
 7330 000f 10        		.byte	16
 7331 0010 00        		.byte	0
 7332 0011 29        		.byte	41
 7335               	myip:
 7336 0012 C0        		.byte	-64
 7337 0013 A8        		.byte	-88
 7338 0014 01        		.byte	1
 7339 0015 5C        		.byte	92
 7342               	gwip:
 7343 0016 C0        		.byte	-64
 7344 0017 A8        		.byte	-88
 7345 0018 01        		.byte	1
 7346 0019 01        		.byte	1
 7347               		.lcomm dns_state,1
 7348               		.lcomm sec,1
 7349               		.lcomm start_web_client,1
 7350               		.lcomm web_client_attempts,1
 7351               		.section	.progmem.data
 7354               	__c.3209:
 7355 0011 4854 5450 		.ascii	"HTTP/1.0 401 Un"
 7355      2F31 2E30 
 7355      2034 3031 
 7355      2055 6E
 7356 0020 6175 7468 		.string	"authorized\r\nContent-Type: text/html\r\n\r\n<h1>401 Unauthorized</h1>"
 7356      6F72 697A 
 7356      6564 0D0A 
 7356      436F 6E74 
 7356      656E 742D 
 7359               	__c.3206:
 7360 0061 3C68 313E 		.string	"<h1>200 OK</h1>"
 7360      3230 3020 
 7360      4F4B 3C2F 
 7360      6831 3E00 
 7363               	__c.3204:
 7364 0071 7475 7867 		.string	"tuxgraphics.org"
 7364      7261 7068 
 7364      6963 732E 
 7364      6F72 6700 
 7367               	__c.3202:
 7368 0081 2F63 6769 		.string	"/cgi-bin/upld?pingIP=chi&y="
 7368      2D62 696E 
 7368      2F75 706C 
 7368      643F 7069 
 7368      6E67 4950 
 7371               	__c.3200:
 7372 009d 6464 616E 		.string	"ddanupam"
 7372      7570 616D 
 7372      00
 7375               	__c.3198:
 7376 00a6 7475 7867 		.string	"tuxgraphics.org"
 7376      7261 7068 
 7376      6963 732E 
 7376      6F72 6700 
 7377               		.lcomm web_client_sendok,1
 7378               		.lcomm cnt2step,1
 7381               	__c.3127:
 7382 00b6 0A3C 2F70 		.string	"\n</pre><br><hr>"
 7382      7265 3E3C 
 7382      6272 3E3C 
 7382      6872 3E00 
 7385               	__c.3125:
 7386 00c6 0A63 6865 		.ascii	"\ncheck result: <a href=http://tuxg"
 7386      636B 2072 
 7386      6573 756C 
 7386      743A 203C 
 7386      6120 6872 
 7387 00e8 7261 7068 		.string	"raphics.org/cgi-bin/upld>http://tuxgraphics.org/cgi-bin/upld</a>"
 7387      6963 732E 
 7387      6F72 672F 
 7387      6367 692D 
 7387      6269 6E2F 
 7390               	__c.3123:
 7391 0129 0A4E 756D 		.string	"\nNumber successful data uploads to web: "
 7391      6265 7220 
 7391      7375 6363 
 7391      6573 7366 
 7391      756C 2064 
 7394               	__c.3121:
 7395 0152 4E75 6D62 		.string	"Number of data uploads started by ping: "
 7395      6572 206F 
 7395      6620 6461 
 7395      7461 2075 
 7395      706C 6F61 
 7398               	__c.3119:
 7399 017b 7761 6974 		.string	"waiting for DNS answer.\n"
 7399      696E 6720 
 7399      666F 7220 
 7399      444E 5320 
 7399      616E 7377 
 7402               	__c.3117:
 7403 0194 7761 6974 		.string	"waiting for GW IP to answer arp.\n"
 7403      696E 6720 
 7403      666F 7220 
 7403      4757 2049 
 7403      5020 746F 
 7406               	__c.3115:
 7407 01b6 3C68 323E 		.string	"<h2>web client status</h2>\n<pre>\n"
 7407      7765 6220 
 7407      636C 6965 
 7407      6E74 2073 
 7407      7461 7475 
 7410               	__c.3106:
 7411 01d8 4854 5450 		.string	"HTTP/1.0 200 OK\r\nContent-Type: text/html\r\nPragma: no-cache\r\n\r\n"
 7411      2F31 2E30 
 7411      2032 3030 
 7411      204F 4B0D 
 7411      0A43 6F6E 
 7412               		.lcomm dnstid_l,1
 7413               		.lcomm dns_ansError,1
 7414               		.lcomm haveDNSanswer,1
 7415               		.data
 7418               	dnsip:
 7419 001a 08        		.byte	8
 7420 001b 08        		.byte	8
 7421 001c 08        		.byte	8
 7422 001d 08        		.byte	8
 7423               		.lcomm waitgwmac,1
 7426               	delaycnt:
 7427 001e 0100      		.word	1
 7428               		.lcomm tcp_client_state,1
 7431               	tcpclient_src_port_l:
 7432 0020 01        		.byte	1
 7433               		.lcomm tcp_fd,1
 7434               		.lcomm tcp_client_port_h,1
 7435               		.lcomm tcp_client_port_l,1
 7436               		.lcomm bufptr,2
 7437               		.lcomm wwwport_h,1
 7440               	wwwport_l:
 7441 0021 50        		.byte	80
 7442               		.lcomm info_data_len,2
 7443               		.lcomm browsertype,1
 7444               		.lcomm www_fd,1
 7445               		.section	.progmem.data
 7448               	__c.2659:
 7449 0217 0D0A 436F 		.string	"\r\nContent-Type: application/x-www-form-urlencoded\r\n\r\n"
 7449      6E74 656E 
 7449      742D 5479 
 7449      7065 3A20 
 7449      6170 706C 
 7452               	__c.2657:
 7453 024d 436F 6E74 		.string	"Content-Length: "
 7453      656E 742D 
 7453      4C65 6E67 
 7453      7468 3A20 
 7453      00
 7456               	__c.2655:
 7457 025e 0D0A 5573 		.string	"\r\nUser-Agent: tgr/1.1\r\nAccept: */*\r\nConnection: close\r\n"
 7457      6572 2D41 
 7457      6765 6E74 
 7457      3A20 7467 
 7457      722F 312E 
 7460               	__c.2653:
 7461 0296 0D0A 00   		.string	"\r\n"
 7464               	__c.2651:
 7465 0299 2048 5454 		.string	" HTTP/1.1\r\nHost: "
 7465      502F 312E 
 7465      310D 0A48 
 7465      6F73 743A 
 7465      2000 
 7468               	__c.2649:
 7469 02ab 504F 5354 		.string	"POST "
 7469      2000 
 7472               	__c.2647:
 7473 02b1 0D0A 5573 		.string	"\r\nUser-Agent: tgr/1.0\r\nAccept: text/html\r\nConnection: close\r\n\r\n"
 7473      6572 2D41 
 7473      6765 6E74 
 7473      3A20 7467 
 7473      722F 312E 
 7476               	__c.2645:
 7477 02f1 2048 5454 		.string	" HTTP/1.1\r\nHost: "
 7477      502F 312E 
 7477      310D 0A48 
 7477      6F73 743A 
 7477      2000 
 7480               	__c.2643:
 7481 0303 4745 5420 		.string	"GET "
 7481      00
 7482               		.data
 7485               	seqnum:
 7486 0022 0A        		.byte	10
 7487               		.lcomm Enc28j60Bank,1
 7488               		.lcomm gNextPacketPtr,2
 7489               		.lcomm tcpsrvip,4
 7490               		.lcomm client_tcp_result_callback,2
 7491               		.lcomm client_tcp_datafill_callback,2
 7492               		.lcomm client_browser_callback,2
 7493               		.lcomm client_additionalheaderline,2
 7494               		.lcomm client_postval,2
 7495               		.lcomm client_urlbuf,2
 7496               		.lcomm client_urlbuf_var,2
 7497               		.lcomm client_hoststr,2
 7498               		.lcomm icmp_callback,2
 7499               		.lcomm gwmacaddr,6
 7500               		.lcomm macaddr,6
 7501               		.lcomm ipaddr,4
 7502               		.lcomm dns_answerip,4
 7503               		.lcomm urlvarstr,21
 7504               		.lcomm buf,651
 7505               		.lcomm pingsrcip,4
 8122               	.Letext0:
DEFINED SYMBOLS
                            *ABS*:00000000 main.c
C:\DOCUME~1\LAB\LOCALS~1\Temp/ccJlU6N2.s:2      *ABS*:0000003f __SREG__
C:\DOCUME~1\LAB\LOCALS~1\Temp/ccJlU6N2.s:3      *ABS*:0000003e __SP_H__
C:\DOCUME~1\LAB\LOCALS~1\Temp/ccJlU6N2.s:4      *ABS*:0000003d __SP_L__
C:\DOCUME~1\LAB\LOCALS~1\Temp/ccJlU6N2.s:5      *ABS*:00000034 __CCP__
C:\DOCUME~1\LAB\LOCALS~1\Temp/ccJlU6N2.s:6      *ABS*:00000000 __tmp_reg__
C:\DOCUME~1\LAB\LOCALS~1\Temp/ccJlU6N2.s:7      *ABS*:00000001 __zero_reg__
C:\DOCUME~1\LAB\LOCALS~1\Temp/ccJlU6N2.s:18     .text:00000000 enc28j60ReadOp
C:\DOCUME~1\LAB\LOCALS~1\Temp/ccJlU6N2.s:63     .text:00000024 enc28j60WriteOp
C:\DOCUME~1\LAB\LOCALS~1\Temp/ccJlU6N2.s:95     .text:0000003a enc28j60ReadBuffer
C:\DOCUME~1\LAB\LOCALS~1\Temp/ccJlU6N2.s:151    .text:0000006c enc28j60WriteBuffer
C:\DOCUME~1\LAB\LOCALS~1\Temp/ccJlU6N2.s:199    .text:00000094 enc28j60SetBank
C:\DOCUME~1\LAB\LOCALS~1\Temp/ccJlU6N2.s:7444   .bss:00000015 Enc28j60Bank
C:\DOCUME~1\LAB\LOCALS~1\Temp/ccJlU6N2.s:279    .text:000000e2 enc28j60Read
C:\DOCUME~1\LAB\LOCALS~1\Temp/ccJlU6N2.s:303    .text:000000f6 enc28j60Write
C:\DOCUME~1\LAB\LOCALS~1\Temp/ccJlU6N2.s:349    .text:0000011c enc28j60PhyReadH
C:\DOCUME~1\LAB\LOCALS~1\Temp/ccJlU6N2.s:404    .text:0000014e enc28j60PhyWrite
C:\DOCUME~1\LAB\LOCALS~1\Temp/ccJlU6N2.s:469    .text:0000018a enc28j60clkout
C:\DOCUME~1\LAB\LOCALS~1\Temp/ccJlU6N2.s:488    .text:00000196 enc28j60Init
C:\DOCUME~1\LAB\LOCALS~1\Temp/ccJlU6N2.s:7487   .bss:00000016 gNextPacketPtr
C:\DOCUME~1\LAB\LOCALS~1\Temp/ccJlU6N2.s:752    .text:00000306 enc28j60getrev
C:\DOCUME~1\LAB\LOCALS~1\Temp/ccJlU6N2.s:767    .text:0000030e enc28j60linkup
C:\DOCUME~1\LAB\LOCALS~1\Temp/ccJlU6N2.s:788    .text:00000320 enc28j60PacketSend
C:\DOCUME~1\LAB\LOCALS~1\Temp/ccJlU6N2.s:990    .text:000003f8 enc28j60hasRxPkt
C:\DOCUME~1\LAB\LOCALS~1\Temp/ccJlU6N2.s:1007   .text:00000404 enc28j60PacketReceive
C:\DOCUME~1\LAB\LOCALS~1\Temp/ccJlU6N2.s:1212   .text:00000538 checksum
C:\DOCUME~1\LAB\LOCALS~1\Temp/ccJlU6N2.s:1389   .text:0000062e init_ip_arp_udp_tcp
C:\DOCUME~1\LAB\LOCALS~1\Temp/ccJlU6N2.s:7436   .bss:00000010 wwwport_h
C:\DOCUME~1\LAB\LOCALS~1\Temp/ccJlU6N2.s:7440   .data:00000021 wwwport_l
C:\DOCUME~1\LAB\LOCALS~1\Temp/ccJlU6N2.s:7500   .bss:0000003a ipaddr
C:\DOCUME~1\LAB\LOCALS~1\Temp/ccJlU6N2.s:7499   .bss:00000034 macaddr
C:\DOCUME~1\LAB\LOCALS~1\Temp/ccJlU6N2.s:1450   .text:0000067e check_ip_message_is_from
C:\DOCUME~1\LAB\LOCALS~1\Temp/ccJlU6N2.s:1489   .text:000006aa eth_type_is_arp_and_my_ip
C:\DOCUME~1\LAB\LOCALS~1\Temp/ccJlU6N2.s:1537   .text:000006e2 eth_type_is_ip_and_my_ip
C:\DOCUME~1\LAB\LOCALS~1\Temp/ccJlU6N2.s:1590   .text:00000722 make_eth
C:\DOCUME~1\LAB\LOCALS~1\Temp/ccJlU6N2.s:1621   .text:0000073c fill_ip_hdr_checksum
C:\DOCUME~1\LAB\LOCALS~1\Temp/ccJlU6N2.s:1665   .text:0000076a make_ip
C:\DOCUME~1\LAB\LOCALS~1\Temp/ccJlU6N2.s:1700   .text:0000078c step_seq
C:\DOCUME~1\LAB\LOCALS~1\Temp/ccJlU6N2.s:1750   .text:000007b6 make_tcphead
C:\DOCUME~1\LAB\LOCALS~1\Temp/ccJlU6N2.s:1799   .text:000007e4 make_arp_answer_from_request
C:\DOCUME~1\LAB\LOCALS~1\Temp/ccJlU6N2.s:1884   .text:0000084c make_echo_reply_from_request
C:\DOCUME~1\LAB\LOCALS~1\Temp/ccJlU6N2.s:1954   .text:0000089c make_udp_reply_from_request
C:\DOCUME~1\LAB\LOCALS~1\Temp/ccJlU6N2.s:2084   .text:00000942 make_tcp_synack_from_syn
C:\DOCUME~1\LAB\LOCALS~1\Temp/ccJlU6N2.s:7485   .data:00000022 seqnum
C:\DOCUME~1\LAB\LOCALS~1\Temp/ccJlU6N2.s:2189   .text:000009c8 get_tcp_data_len
C:\DOCUME~1\LAB\LOCALS~1\Temp/ccJlU6N2.s:2237   .text:000009fe fill_tcp_data_p
C:\DOCUME~1\LAB\LOCALS~1\Temp/ccJlU6N2.s:2286   .text:00000a24 fill_tcp_data_len
C:\DOCUME~1\LAB\LOCALS~1\Temp/ccJlU6N2.s:2328   .text:00000a4a make_tcp_ack_from_any
C:\DOCUME~1\LAB\LOCALS~1\Temp/ccJlU6N2.s:2420   .text:00000ab8 make_tcp_ack_with_data_noflags
C:\DOCUME~1\LAB\LOCALS~1\Temp/ccJlU6N2.s:2485   .text:00000b08 www_server_reply
C:\DOCUME~1\LAB\LOCALS~1\Temp/ccJlU6N2.s:7437   .bss:00000011 info_data_len
C:\DOCUME~1\LAB\LOCALS~1\Temp/ccJlU6N2.s:2525   .text:00000b3a fill_buf_p
C:\DOCUME~1\LAB\LOCALS~1\Temp/ccJlU6N2.s:2564   .text:00000b52 send_udp_prepare
C:\DOCUME~1\LAB\LOCALS~1\Temp/ccJlU6N2.s:7498   .bss:0000002e gwmacaddr
C:\DOCUME~1\LAB\LOCALS~1\Temp/ccJlU6N2.s:7313   .progmem.data:00000008 iphdr
C:\DOCUME~1\LAB\LOCALS~1\Temp/ccJlU6N2.s:2710   .text:00000bfc send_udp_transmit
C:\DOCUME~1\LAB\LOCALS~1\Temp/ccJlU6N2.s:2767   .text:00000c46 send_udp
C:\DOCUME~1\LAB\LOCALS~1\Temp/ccJlU6N2.s:2846   .text:00000ca6 client_arp_whohas
C:\DOCUME~1\LAB\LOCALS~1\Temp/ccJlU6N2.s:7301   .progmem.data:00000000 arpreqhdr
C:\DOCUME~1\LAB\LOCALS~1\Temp/ccJlU6N2.s:7414   .bss:00000009 waitgwmac
C:\DOCUME~1\LAB\LOCALS~1\Temp/ccJlU6N2.s:2974   .text:00000d46 client_waiting_gw
C:\DOCUME~1\LAB\LOCALS~1\Temp/ccJlU6N2.s:2991   .text:00000d52 client_store_gw_mac
C:\DOCUME~1\LAB\LOCALS~1\Temp/ccJlU6N2.s:7342   .data:00000016 gwip
C:\DOCUME~1\LAB\LOCALS~1\Temp/ccJlU6N2.s:3046   .text:00000d94 client_gw_arp_refresh
C:\DOCUME~1\LAB\LOCALS~1\Temp/ccJlU6N2.s:3064   .text:00000da4 client_set_gwip
C:\DOCUME~1\LAB\LOCALS~1\Temp/ccJlU6N2.s:3100   .text:00000dcc client_tcp_set_serverip
C:\DOCUME~1\LAB\LOCALS~1\Temp/ccJlU6N2.s:7488   .bss:00000018 tcpsrvip
C:\DOCUME~1\LAB\LOCALS~1\Temp/ccJlU6N2.s:3134   .text:00000dee client_syn
C:\DOCUME~1\LAB\LOCALS~1\Temp/ccJlU6N2.s:3339   .text:00000ef2 client_tcp_req
C:\DOCUME~1\LAB\LOCALS~1\Temp/ccJlU6N2.s:7489   .bss:0000001c client_tcp_result_callback
C:\DOCUME~1\LAB\LOCALS~1\Temp/ccJlU6N2.s:7490   .bss:0000001e client_tcp_datafill_callback
C:\DOCUME~1\LAB\LOCALS~1\Temp/ccJlU6N2.s:7433   .bss:0000000c tcp_client_port_h
C:\DOCUME~1\LAB\LOCALS~1\Temp/ccJlU6N2.s:7434   .bss:0000000d tcp_client_port_l
C:\DOCUME~1\LAB\LOCALS~1\Temp/ccJlU6N2.s:7423   .bss:0000000a tcp_client_state
C:\DOCUME~1\LAB\LOCALS~1\Temp/ccJlU6N2.s:7428   .bss:0000000b tcp_fd
C:\DOCUME~1\LAB\LOCALS~1\Temp/ccJlU6N2.s:3378   .text:00000f28 client_browse_url
C:\DOCUME~1\LAB\LOCALS~1\Temp/ccJlU6N2.s:7494   .bss:00000026 client_urlbuf
C:\DOCUME~1\LAB\LOCALS~1\Temp/ccJlU6N2.s:7495   .bss:00000028 client_urlbuf_var
C:\DOCUME~1\LAB\LOCALS~1\Temp/ccJlU6N2.s:7496   .bss:0000002a client_hoststr
C:\DOCUME~1\LAB\LOCALS~1\Temp/ccJlU6N2.s:7442   .bss:00000013 browsertype
C:\DOCUME~1\LAB\LOCALS~1\Temp/ccJlU6N2.s:7491   .bss:00000020 client_browser_callback
C:\DOCUME~1\LAB\LOCALS~1\Temp/ccJlU6N2.s:5042   .text:00001790 www_client_internal_result_callback
C:\DOCUME~1\LAB\LOCALS~1\Temp/ccJlU6N2.s:6591   .text:00001ece www_client_internal_datafill_callback
C:\DOCUME~1\LAB\LOCALS~1\Temp/ccJlU6N2.s:7443   .bss:00000014 www_fd
C:\DOCUME~1\LAB\LOCALS~1\Temp/ccJlU6N2.s:3441   .text:00000f90 client_http_post
C:\DOCUME~1\LAB\LOCALS~1\Temp/ccJlU6N2.s:7492   .bss:00000022 client_additionalheaderline
C:\DOCUME~1\LAB\LOCALS~1\Temp/ccJlU6N2.s:7493   .bss:00000024 client_postval
C:\DOCUME~1\LAB\LOCALS~1\Temp/ccJlU6N2.s:3515   .text:00001008 register_ping_rec_callback
C:\DOCUME~1\LAB\LOCALS~1\Temp/ccJlU6N2.s:7497   .bss:0000002c icmp_callback
C:\DOCUME~1\LAB\LOCALS~1\Temp/ccJlU6N2.s:3531   .text:00001012 packetloop_icmp_tcp
C:\DOCUME~1\LAB\LOCALS~1\Temp/ccJlU6N2.s:7426   .data:0000001e delaycnt
C:\DOCUME~1\LAB\LOCALS~1\Temp/ccJlU6N2.s:7431   .data:00000020 tcpclient_src_port_l
C:\DOCUME~1\LAB\LOCALS~1\Temp/ccJlU6N2.s:7435   .bss:0000000e bufptr
C:\DOCUME~1\LAB\LOCALS~1\Temp/ccJlU6N2.s:4141   .text:000013ce find_key_val
C:\DOCUME~1\LAB\LOCALS~1\Temp/ccJlU6N2.s:4282   .text:00001466 h2int
C:\DOCUME~1\LAB\LOCALS~1\Temp/ccJlU6N2.s:4320   .text:0000148a urldecode
C:\DOCUME~1\LAB\LOCALS~1\Temp/ccJlU6N2.s:4450   .text:00001510 int2h
C:\DOCUME~1\LAB\LOCALS~1\Temp/ccJlU6N2.s:4501   .text:00001544 dnslkup_haveanswer
C:\DOCUME~1\LAB\LOCALS~1\Temp/ccJlU6N2.s:7413   .bss:00000008 haveDNSanswer
C:\DOCUME~1\LAB\LOCALS~1\Temp/ccJlU6N2.s:4514   .text:0000154a dnslkup_get_error_info
C:\DOCUME~1\LAB\LOCALS~1\Temp/ccJlU6N2.s:7412   .bss:00000007 dns_ansError
C:\DOCUME~1\LAB\LOCALS~1\Temp/ccJlU6N2.s:4527   .text:00001550 dnslkup_getip
C:\DOCUME~1\LAB\LOCALS~1\Temp/ccJlU6N2.s:7501   .bss:0000003e dns_answerip
C:\DOCUME~1\LAB\LOCALS~1\Temp/ccJlU6N2.s:4541   .text:00001556 dnslkup_request
C:\DOCUME~1\LAB\LOCALS~1\Temp/ccJlU6N2.s:7378   .bss:00000006 dnstid_l
C:\DOCUME~1\LAB\LOCALS~1\Temp/ccJlU6N2.s:7418   .data:0000001a dnsip
C:\DOCUME~1\LAB\LOCALS~1\Temp/ccJlU6N2.s:4715   .text:00001628 udp_client_check_for_dns_answer
C:\DOCUME~1\LAB\LOCALS~1\Temp/ccJlU6N2.s:4853   .text:000016da http200ok
C:\DOCUME~1\LAB\LOCALS~1\Temp/ccJlU6N2.s:7503   .bss:00000057 buf
C:\DOCUME~1\LAB\LOCALS~1\Temp/ccJlU6N2.s:7410   .progmem.data:000001d8 __c.3106
C:\DOCUME~1\LAB\LOCALS~1\Temp/ccJlU6N2.s:4901   .text:000016fc init_cnt2
C:\DOCUME~1\LAB\LOCALS~1\Temp/ccJlU6N2.s:7377   .bss:00000005 cnt2step
C:\DOCUME~1\LAB\LOCALS~1\Temp/ccJlU6N2.s:4923   .text:0000170c __vector_9
C:\DOCUME~1\LAB\LOCALS~1\Temp/ccJlU6N2.s:7347   .bss:00000001 sec
C:\DOCUME~1\LAB\LOCALS~1\Temp/ccJlU6N2.s:4961   .text:00001744 ping_callback
C:\DOCUME~1\LAB\LOCALS~1\Temp/ccJlU6N2.s:7348   .bss:00000002 start_web_client
C:\DOCUME~1\LAB\LOCALS~1\Temp/ccJlU6N2.s:7504   .bss:000002e2 pingsrcip
C:\DOCUME~1\LAB\LOCALS~1\Temp/ccJlU6N2.s:4997   .text:0000176e browserresult_callback
C:\DOCUME~1\LAB\LOCALS~1\Temp/ccJlU6N2.s:7350   .bss:00000004 web_client_sendok
C:\DOCUME~1\LAB\LOCALS~1\Temp/ccJlU6N2.s:5020   .text:00001780 trigger
C:\DOCUME~1\LAB\LOCALS~1\Temp/ccJlU6N2.s:5155   .text:00001838 mk_net_str
C:\DOCUME~1\LAB\LOCALS~1\Temp/ccJlU6N2.s:5251   .text:000018aa parse_ip
C:\DOCUME~1\LAB\LOCALS~1\Temp/ccJlU6N2.s:5359   .text:0000192e urlencode
C:\DOCUME~1\LAB\LOCALS~1\Temp/ccJlU6N2.s:5443   .text:00001994 fill_tcp_data
C:\DOCUME~1\LAB\LOCALS~1\Temp/ccJlU6N2.s:5506   .text:000019d6 print_webpage
C:\DOCUME~1\LAB\LOCALS~1\Temp/ccJlU6N2.s:7406   .progmem.data:000001b6 __c.3115
C:\DOCUME~1\LAB\LOCALS~1\Temp/ccJlU6N2.s:7402   .progmem.data:00000194 __c.3117
                             .bss:00000000 dns_state
C:\DOCUME~1\LAB\LOCALS~1\Temp/ccJlU6N2.s:7394   .progmem.data:00000152 __c.3121
C:\DOCUME~1\LAB\LOCALS~1\Temp/ccJlU6N2.s:7398   .progmem.data:0000017b __c.3119
C:\DOCUME~1\LAB\LOCALS~1\Temp/ccJlU6N2.s:7349   .bss:00000003 web_client_attempts
C:\DOCUME~1\LAB\LOCALS~1\Temp/ccJlU6N2.s:7390   .progmem.data:00000129 __c.3123
C:\DOCUME~1\LAB\LOCALS~1\Temp/ccJlU6N2.s:7385   .progmem.data:000000c6 __c.3125
C:\DOCUME~1\LAB\LOCALS~1\Temp/ccJlU6N2.s:7381   .progmem.data:000000b6 __c.3127
C:\DOCUME~1\LAB\LOCALS~1\Temp/ccJlU6N2.s:5948   .text:00001bb0 main
C:\DOCUME~1\LAB\LOCALS~1\Temp/ccJlU6N2.s:7326   .data:0000000c mymac
C:\DOCUME~1\LAB\LOCALS~1\Temp/ccJlU6N2.s:7335   .data:00000012 myip
C:\DOCUME~1\LAB\LOCALS~1\Temp/ccJlU6N2.s:7502   .bss:00000042 urlvarstr
C:\DOCUME~1\LAB\LOCALS~1\Temp/ccJlU6N2.s:7367   .progmem.data:00000081 __c.3202
C:\DOCUME~1\LAB\LOCALS~1\Temp/ccJlU6N2.s:7363   .progmem.data:00000071 __c.3204
C:\DOCUME~1\LAB\LOCALS~1\Temp/ccJlU6N2.s:7375   .progmem.data:000000a6 __c.3198
C:\DOCUME~1\LAB\LOCALS~1\Temp/ccJlU6N2.s:7371   .progmem.data:0000009d __c.3200
C:\DOCUME~1\LAB\LOCALS~1\Temp/ccJlU6N2.s:7359   .progmem.data:00000061 __c.3206
C:\DOCUME~1\LAB\LOCALS~1\Temp/ccJlU6N2.s:7354   .progmem.data:00000011 __c.3209
C:\DOCUME~1\LAB\LOCALS~1\Temp/ccJlU6N2.s:7480   .progmem.data:00000303 __c.2643
C:\DOCUME~1\LAB\LOCALS~1\Temp/ccJlU6N2.s:7476   .progmem.data:000002f1 __c.2645
C:\DOCUME~1\LAB\LOCALS~1\Temp/ccJlU6N2.s:7472   .progmem.data:000002b1 __c.2647
C:\DOCUME~1\LAB\LOCALS~1\Temp/ccJlU6N2.s:7468   .progmem.data:000002ab __c.2649
C:\DOCUME~1\LAB\LOCALS~1\Temp/ccJlU6N2.s:7464   .progmem.data:00000299 __c.2651
C:\DOCUME~1\LAB\LOCALS~1\Temp/ccJlU6N2.s:7460   .progmem.data:00000296 __c.2653
C:\DOCUME~1\LAB\LOCALS~1\Temp/ccJlU6N2.s:7456   .progmem.data:0000025e __c.2655
C:\DOCUME~1\LAB\LOCALS~1\Temp/ccJlU6N2.s:7452   .progmem.data:0000024d __c.2657
C:\DOCUME~1\LAB\LOCALS~1\Temp/ccJlU6N2.s:7448   .progmem.data:00000217 __c.2659

UNDEFINED SYMBOLS
strncmp
itoa
atoi
isalnum
__do_copy_data
__do_clear_bss
