   1               		.file	"main.c"
   2               	__SREG__ = 0x3f
   3               	__SP_H__ = 0x3e
   4               	__SP_L__ = 0x3d
   5               	__CCP__  = 0x34
   6               	__tmp_reg__ = 0
   7               	__zero_reg__ = 1
  15               	.Ltext0:
  16               	.global	enc28j60ReadOp
  18               	enc28j60ReadOp:
  19               	.LFB6:
  20               	.LM1:
  21               	.LVL0:
  22               	/* prologue: function */
  23               	/* frame size = 0 */
  24               	.LM2:
  25 0000 C498      		cbi 56-32,4
  26               	.LM3:
  27 0002 962F      		mov r25,r22
  28 0004 9F71      		andi r25,lo8(31)
  29 0006 982B      		or r25,r24
  30 0008 9FB9      		out 47-32,r25
  31               	.L2:
  32               	.LM4:
  33 000a 779B      		sbis 46-32,7
  34 000c 00C0      		rjmp .L2
  35               	.LM5:
  36 000e 1FB8      		out 47-32,__zero_reg__
  37               	.L3:
  38               	.LM6:
  39 0010 779B      		sbis 46-32,7
  40 0012 00C0      		rjmp .L3
  41               	.LM7:
  42 0014 67FF      		sbrs r22,7
  43 0016 00C0      		rjmp .L4
  44               	.LM8:
  45 0018 1FB8      		out 47-32,__zero_reg__
  46               	.L5:
  47               	.LM9:
  48 001a 779B      		sbis 46-32,7
  49 001c 00C0      		rjmp .L5
  50               	.L4:
  51               	.LM10:
  52 001e C49A      		sbi 56-32,4
  53               	.LM11:
  54 0020 8FB1      		in r24,47-32
  55               	.LVL1:
  56               	/* epilogue start */
  57               	.LM12:
  58 0022 0895      		ret
  59               	.LFE6:
  61               	.global	enc28j60WriteOp
  63               	enc28j60WriteOp:
  64               	.LFB7:
  65               	.LM13:
  66               	.LVL2:
  67               	/* prologue: function */
  68               	/* frame size = 0 */
  69               	.LM14:
  70 0024 C498      		cbi 56-32,4
  71               	.LM15:
  72 0026 6F71      		andi r22,lo8(31)
  73               	.LVL3:
  74 0028 682B      		or r22,r24
  75 002a 6FB9      		out 47-32,r22
  76               	.L11:
  77               	.LM16:
  78 002c 779B      		sbis 46-32,7
  79 002e 00C0      		rjmp .L11
  80               	.LM17:
  81 0030 4FB9      		out 47-32,r20
  82               	.L12:
  83               	.LM18:
  84 0032 779B      		sbis 46-32,7
  85 0034 00C0      		rjmp .L12
  86               	.LM19:
  87 0036 C49A      		sbi 56-32,4
  88               	/* epilogue start */
  89               	.LM20:
  90 0038 0895      		ret
  91               	.LFE7:
  93               	.global	enc28j60ReadBuffer
  95               	enc28j60ReadBuffer:
  96               	.LFB8:
  97               	.LM21:
  98               	.LVL4:
  99               	/* prologue: function */
 100               	/* frame size = 0 */
 101 003a AC01      		movw r20,r24
 102 003c FB01      		movw r30,r22
 103               	.LM22:
 104 003e C498      		cbi 56-32,4
 105               	.LM23:
 106 0040 8AE3      		ldi r24,lo8(58)
 107               	.LVL5:
 108 0042 8FB9      		out 47-32,r24
 109               	.LVL6:
 110               	.L17:
 111               	.LM24:
 112 0044 779B      		sbis 46-32,7
 113 0046 00C0      		rjmp .L17
 114 0048 9A01      		movw r18,r20
 115 004a DF01      		movw r26,r30
 116 004c 00C0      		rjmp .L18
 117               	.LVL7:
 118               	.L20:
 119               	.LM25:
 120 004e 1FB8      		out 47-32,__zero_reg__
 121               	.L19:
 122               	.LM26:
 123 0050 779B      		sbis 46-32,7
 124 0052 00C0      		rjmp .L19
 125               	.LM27:
 126 0054 2150      		subi r18,lo8(-(-1))
 127 0056 3040      		sbci r19,hi8(-(-1))
 128               	.LM28:
 129 0058 8FB1      		in r24,47-32
 130 005a 8D93      		st X+,r24
 131               	.LVL8:
 132               	.L18:
 133               	.LM29:
 134 005c 2115      		cp r18,__zero_reg__
 135 005e 3105      		cpc r19,__zero_reg__
 136 0060 01F4      		brne .L20
 137               	.LM30:
 138 0062 E40F      		add r30,r20
 139 0064 F51F      		adc r31,r21
 140               	.LVL9:
 141 0066 1082      		st Z,__zero_reg__
 142               	.LM31:
 143 0068 C49A      		sbi 56-32,4
 144               	/* epilogue start */
 145               	.LM32:
 146 006a 0895      		ret
 147               	.LFE8:
 149               	.global	enc28j60WriteBuffer
 151               	enc28j60WriteBuffer:
 152               	.LFB9:
 153               	.LM33:
 154               	.LVL10:
 155               	/* prologue: function */
 156               	/* frame size = 0 */
 157 006c 9C01      		movw r18,r24
 158 006e FB01      		movw r30,r22
 159               	.LM34:
 160 0070 C498      		cbi 56-32,4
 161               	.LM35:
 162 0072 8AE7      		ldi r24,lo8(122)
 163               	.LVL11:
 164 0074 8FB9      		out 47-32,r24
 165               	.LVL12:
 166               	.L25:
 167               	.LM36:
 168 0076 779B      		sbis 46-32,7
 169 0078 00C0      		rjmp .L25
 170 007a 00C0      		rjmp .L32
 171               	.L28:
 172               	.LM37:
 173 007c 8081      		ld r24,Z
 174 007e 8FB9      		out 47-32,r24
 175               	.L27:
 176               	.LM38:
 177 0080 779B      		sbis 46-32,7
 178 0082 00C0      		rjmp .L27
 179               	.LM39:
 180 0084 2150      		subi r18,lo8(-(-1))
 181 0086 3040      		sbci r19,hi8(-(-1))
 182               	.LM40:
 183 0088 3196      		adiw r30,1
 184               	.LVL13:
 185               	.L32:
 186               	.LM41:
 187 008a 2115      		cp r18,__zero_reg__
 188 008c 3105      		cpc r19,__zero_reg__
 189 008e 01F4      		brne .L28
 190               	.LM42:
 191 0090 C49A      		sbi 56-32,4
 192               	/* epilogue start */
 193               	.LM43:
 194 0092 0895      		ret
 195               	.LFE9:
 197               	.global	enc28j60SetBank
 199               	enc28j60SetBank:
 200               	.LFB10:
 201               	.LM44:
 202               	.LVL14:
 203               	/* prologue: function */
 204               	/* frame size = 0 */
 205 0094 482F      		mov r20,r24
 206               	.LM45:
 207 0096 282F      		mov r18,r24
 208 0098 30E0      		ldi r19,lo8(0)
 209 009a 2076      		andi r18,lo8(96)
 210 009c 3070      		andi r19,hi8(96)
 211 009e 8091 0000 		lds r24,Enc28j60Bank
 212               	.LVL15:
 213 00a2 90E0      		ldi r25,lo8(0)
 214 00a4 2817      		cp r18,r24
 215 00a6 3907      		cpc r19,r25
 216 00a8 01F0      		breq .L39
 217               	.LBB237:
 218               	.LBB238:
 219               	.LM46:
 220 00aa C498      		cbi 56-32,4
 221               	.LM47:
 222 00ac 8FEB      		ldi r24,lo8(-65)
 223 00ae 8FB9      		out 47-32,r24
 224               	.L35:
 225               	.LM48:
 226 00b0 779B      		sbis 46-32,7
 227 00b2 00C0      		rjmp .L35
 228               	.LM49:
 229 00b4 83E0      		ldi r24,lo8(3)
 230 00b6 8FB9      		out 47-32,r24
 231               	.L36:
 232               	.LM50:
 233 00b8 779B      		sbis 46-32,7
 234 00ba 00C0      		rjmp .L36
 235               	.LM51:
 236 00bc C49A      		sbi 56-32,4
 237               	.LBE238:
 238               	.LBE237:
 239               	.LBB239:
 240               	.LBB240:
 241               	.LM52:
 242 00be C498      		cbi 56-32,4
 243               	.LM53:
 244 00c0 8FE9      		ldi r24,lo8(-97)
 245 00c2 8FB9      		out 47-32,r24
 246               	.L37:
 247               	.LM54:
 248 00c4 779B      		sbis 46-32,7
 249 00c6 00C0      		rjmp .L37
 250               	.LBE240:
 251               	.LBE239:
 252               	.LM55:
 253 00c8 85E0      		ldi r24,5
 254 00ca 3595      	1:	asr r19
 255 00cc 2795      		ror r18
 256 00ce 8A95      		dec r24
 257 00d0 01F4      		brne 1b
 258               	.LBB242:
 259               	.LBB241:
 260               	.LM56:
 261 00d2 2FB9      		out 47-32,r18
 262               	.L38:
 263               	.LM57:
 264 00d4 779B      		sbis 46-32,7
 265 00d6 00C0      		rjmp .L38
 266               	.LM58:
 267 00d8 C49A      		sbi 56-32,4
 268               	.LBE241:
 269               	.LBE242:
 270               	.LM59:
 271 00da 4076      		andi r20,lo8(96)
 272 00dc 4093 0000 		sts Enc28j60Bank,r20
 273               	.L39:
 274 00e0 0895      		ret
 275               	.LFE10:
 277               	.global	enc28j60Read
 279               	enc28j60Read:
 280               	.LFB11:
 281               	.LM60:
 282               	.LVL16:
 283 00e2 1F93      		push r17
 284               	/* prologue: function */
 285               	/* frame size = 0 */
 286 00e4 182F      		mov r17,r24
 287               	.LM61:
 288 00e6 0E94 0000 		call enc28j60SetBank
 289               	.LVL17:
 290               	.LM62:
 291 00ea 80E0      		ldi r24,lo8(0)
 292 00ec 612F      		mov r22,r17
 293 00ee 0E94 0000 		call enc28j60ReadOp
 294               	/* epilogue start */
 295               	.LM63:
 296 00f2 1F91      		pop r17
 297               	.LVL18:
 298 00f4 0895      		ret
 299               	.LFE11:
 301               	.global	enc28j60Write
 303               	enc28j60Write:
 304               	.LFB13:
 305               	.LM64:
 306               	.LVL19:
 307 00f6 0F93      		push r16
 308 00f8 1F93      		push r17
 309               	/* prologue: function */
 310               	/* frame size = 0 */
 311 00fa 182F      		mov r17,r24
 312 00fc 062F      		mov r16,r22
 313               	.LM65:
 314 00fe 0E94 0000 		call enc28j60SetBank
 315               	.LVL20:
 316               	.LBB243:
 317               	.LBB244:
 318               	.LM66:
 319 0102 C498      		cbi 56-32,4
 320               	.LM67:
 321 0104 1F71      		andi r17,lo8(31)
 322 0106 1064      		ori r17,lo8(64)
 323 0108 1FB9      		out 47-32,r17
 324               	.L47:
 325               	.LM68:
 326 010a 779B      		sbis 46-32,7
 327 010c 00C0      		rjmp .L47
 328               	.LM69:
 329 010e 0FB9      		out 47-32,r16
 330               	.L48:
 331               	.LM70:
 332 0110 779B      		sbis 46-32,7
 333 0112 00C0      		rjmp .L48
 334               	.LM71:
 335 0114 C49A      		sbi 56-32,4
 336               	/* epilogue start */
 337               	.LBE244:
 338               	.LBE243:
 339               	.LM72:
 340 0116 1F91      		pop r17
 341               	.LVL21:
 342 0118 0F91      		pop r16
 343               	.LVL22:
 344 011a 0895      		ret
 345               	.LFE13:
 347               	.global	enc28j60PhyReadH
 349               	enc28j60PhyReadH:
 350               	.LFB12:
 351               	.LM73:
 352               	.LVL23:
 353               	/* prologue: function */
 354               	/* frame size = 0 */
 355 011c 682F      		mov r22,r24
 356               	.LM74:
 357 011e 84ED      		ldi r24,lo8(-44)
 358               	.LVL24:
 359 0120 0E94 0000 		call enc28j60Write
 360               	.LVL25:
 361               	.LM75:
 362 0124 82ED      		ldi r24,lo8(-46)
 363 0126 61E0      		ldi r22,lo8(1)
 364 0128 0E94 0000 		call enc28j60Write
 365               	.LBB245:
 366               	.LBB246:
 367               	.LBB247:
 368               	.LBB248:
 369               	.LM76:
 370 012c 80E5      		ldi r24,lo8(80)
 371               	.LVL26:
 372               	/* #APP */
 373               	 ;  83 "c:/winavr/lib/gcc/../../avr/include/util/delay_basic.h" 1
 374 012e 8A95      		1: dec r24
 375 0130 01F4      		brne 1b
 376               	 ;  0 "" 2
 377               	/* #NOAPP */
 378               	.L53:
 379               	.LBE248:
 380               	.LBE247:
 381               	.LBE246:
 382               	.LBE245:
 383               	.LM77:
 384 0132 8AEE      		ldi r24,lo8(-22)
 385               	.LVL27:
 386 0134 0E94 0000 		call enc28j60Read
 387 0138 80FD      		sbrc r24,0
 388 013a 00C0      		rjmp .L53
 389               	.LM78:
 390 013c 82ED      		ldi r24,lo8(-46)
 391 013e 60E0      		ldi r22,lo8(0)
 392 0140 0E94 0000 		call enc28j60Write
 393               	.LM79:
 394 0144 89ED      		ldi r24,lo8(-39)
 395 0146 0E94 0000 		call enc28j60Read
 396               	.LM80:
 397 014a 90E0      		ldi r25,lo8(0)
 398               	/* epilogue start */
 399 014c 0895      		ret
 400               	.LFE12:
 402               	.global	enc28j60PhyWrite
 404               	enc28j60PhyWrite:
 405               	.LFB14:
 406               	.LM81:
 407               	.LVL28:
 408 014e 0F93      		push r16
 409 0150 1F93      		push r17
 410               	/* prologue: function */
 411               	/* frame size = 0 */
 412 0152 982F      		mov r25,r24
 413 0154 162F      		mov r17,r22
 414 0156 072F      		mov r16,r23
 415               	.LVL29:
 416               	.LM82:
 417 0158 84ED      		ldi r24,lo8(-44)
 418               	.LVL30:
 419 015a 692F      		mov r22,r25
 420               	.LVL31:
 421 015c 0E94 0000 		call enc28j60Write
 422               	.LVL32:
 423               	.LM83:
 424 0160 86ED      		ldi r24,lo8(-42)
 425 0162 612F      		mov r22,r17
 426 0164 0E94 0000 		call enc28j60Write
 427               	.LM84:
 428 0168 87ED      		ldi r24,lo8(-41)
 429 016a 602F      		mov r22,r16
 430 016c 0E94 0000 		call enc28j60Write
 431               	.LBB249:
 432               	.LBB250:
 433               	.LBB251:
 434               	.LBB252:
 435               	.LM85:
 436 0170 10E5      		ldi r17,lo8(80)
 437               	.LVL33:
 438 0172 00C0      		rjmp .L57
 439               	.L58:
 440 0174 812F      		mov r24,r17
 441               	.LVL34:
 442               	/* #APP */
 443               	 ;  83 "c:/winavr/lib/gcc/../../avr/include/util/delay_basic.h" 1
 444 0176 8A95      		1: dec r24
 445 0178 01F4      		brne 1b
 446               	 ;  0 "" 2
 447               	/* #NOAPP */
 448               	.L57:
 449               	.LBE252:
 450               	.LBE251:
 451               	.LBE250:
 452               	.LBE249:
 453               	.LM86:
 454 017a 8AEE      		ldi r24,lo8(-22)
 455               	.LVL35:
 456 017c 0E94 0000 		call enc28j60Read
 457 0180 80FD      		sbrc r24,0
 458 0182 00C0      		rjmp .L58
 459               	/* epilogue start */
 460               	.LM87:
 461 0184 1F91      		pop r17
 462 0186 0F91      		pop r16
 463               	.LVL36:
 464 0188 0895      		ret
 465               	.LFE14:
 467               	.global	enc28j60clkout
 469               	enc28j60clkout:
 470               	.LFB15:
 471               	.LM88:
 472               	.LVL37:
 473               	/* prologue: function */
 474               	/* frame size = 0 */
 475               	.LM89:
 476 018a 682F      		mov r22,r24
 477 018c 6770      		andi r22,lo8(7)
 478 018e 85E7      		ldi r24,lo8(117)
 479               	.LVL38:
 480 0190 0E94 0000 		call enc28j60Write
 481               	/* epilogue start */
 482               	.LM90:
 483 0194 0895      		ret
 484               	.LFE15:
 486               	.global	enc28j60Init
 488               	enc28j60Init:
 489               	.LFB16:
 490               	.LM91:
 491               	.LVL39:
 492 0196 CF93      		push r28
 493 0198 DF93      		push r29
 494               	/* prologue: function */
 495               	/* frame size = 0 */
 496 019a EC01      		movw r28,r24
 497               	.LM92:
 498 019c BC9A      		sbi 55-32,4
 499               	.LM93:
 500 019e C49A      		sbi 56-32,4
 501               	.LM94:
 502 01a0 87B3      		in r24,55-32
 503               	.LVL40:
 504 01a2 806A      		ori r24,lo8(-96)
 505 01a4 87BB      		out 55-32,r24
 506               	.LM95:
 507 01a6 BE98      		cbi 55-32,6
 508               	.LM96:
 509 01a8 C598      		cbi 56-32,5
 510               	.LM97:
 511 01aa C798      		cbi 56-32,7
 512               	.LM98:
 513 01ac 81E5      		ldi r24,lo8(81)
 514 01ae 8DB9      		out 45-32,r24
 515               	.LM99:
 516 01b0 709A      		sbi 46-32,0
 517               	.LBB253:
 518               	.LBB254:
 519               	.LM100:
 520 01b2 C498      		cbi 56-32,4
 521               	.LM101:
 522 01b4 8FEF      		ldi r24,lo8(-1)
 523 01b6 8FB9      		out 47-32,r24
 524               	.L63:
 525               	.LM102:
 526 01b8 779B      		sbis 46-32,7
 527 01ba 00C0      		rjmp .L63
 528               	.LM103:
 529 01bc 8FEF      		ldi r24,lo8(-1)
 530 01be 8FB9      		out 47-32,r24
 531               	.L64:
 532               	.LM104:
 533 01c0 779B      		sbis 46-32,7
 534 01c2 00C0      		rjmp .L64
 535               	.LM105:
 536 01c4 C49A      		sbi 56-32,4
 537               	.LBE254:
 538               	.LBE253:
 539               	.LBB255:
 540               	.LBB256:
 541               	.LM106:
 542 01c6 8DEC      		ldi r24,lo8(-51)
 543               	.LVL41:
 544               	/* #APP */
 545               	 ;  83 "c:/winavr/lib/gcc/../../avr/include/util/delay_basic.h" 1
 546 01c8 8A95      		1: dec r24
 547 01ca 01F4      		brne 1b
 548               	 ;  0 "" 2
 549               	/* #NOAPP */
 550               	.LBE256:
 551               	.LBE255:
 552               	.LM107:
 553 01cc 1092 0000 		sts (gNextPacketPtr)+1,__zero_reg__
 554 01d0 1092 0000 		sts gNextPacketPtr,__zero_reg__
 555               	.LM108:
 556 01d4 88E0      		ldi r24,lo8(8)
 557               	.LVL42:
 558 01d6 60E0      		ldi r22,lo8(0)
 559 01d8 0E94 0000 		call enc28j60Write
 560               	.LM109:
 561 01dc 89E0      		ldi r24,lo8(9)
 562 01de 60E0      		ldi r22,lo8(0)
 563 01e0 0E94 0000 		call enc28j60Write
 564               	.LM110:
 565 01e4 8CE0      		ldi r24,lo8(12)
 566 01e6 60E0      		ldi r22,lo8(0)
 567 01e8 0E94 0000 		call enc28j60Write
 568               	.LM111:
 569 01ec 8DE0      		ldi r24,lo8(13)
 570 01ee 60E0      		ldi r22,lo8(0)
 571 01f0 0E94 0000 		call enc28j60Write
 572               	.LM112:
 573 01f4 8AE0      		ldi r24,lo8(10)
 574 01f6 6EEF      		ldi r22,lo8(-2)
 575 01f8 0E94 0000 		call enc28j60Write
 576               	.LM113:
 577 01fc 8BE0      		ldi r24,lo8(11)
 578 01fe 69E1      		ldi r22,lo8(25)
 579 0200 0E94 0000 		call enc28j60Write
 580               	.LM114:
 581 0204 84E0      		ldi r24,lo8(4)
 582 0206 6FEF      		ldi r22,lo8(-1)
 583 0208 0E94 0000 		call enc28j60Write
 584               	.LM115:
 585 020c 85E0      		ldi r24,lo8(5)
 586 020e 69E1      		ldi r22,lo8(25)
 587 0210 0E94 0000 		call enc28j60Write
 588               	.LM116:
 589 0214 86E0      		ldi r24,lo8(6)
 590 0216 6FEF      		ldi r22,lo8(-1)
 591 0218 0E94 0000 		call enc28j60Write
 592               	.LM117:
 593 021c 87E0      		ldi r24,lo8(7)
 594 021e 6FE1      		ldi r22,lo8(31)
 595 0220 0E94 0000 		call enc28j60Write
 596               	.LM118:
 597 0224 88E3      		ldi r24,lo8(56)
 598 0226 60EB      		ldi r22,lo8(-80)
 599 0228 0E94 0000 		call enc28j60Write
 600               	.LM119:
 601 022c 88E2      		ldi r24,lo8(40)
 602 022e 6FE3      		ldi r22,lo8(63)
 603 0230 0E94 0000 		call enc28j60Write
 604               	.LM120:
 605 0234 89E2      		ldi r24,lo8(41)
 606 0236 60E3      		ldi r22,lo8(48)
 607 0238 0E94 0000 		call enc28j60Write
 608               	.LM121:
 609 023c 80E3      		ldi r24,lo8(48)
 610 023e 69EF      		ldi r22,lo8(-7)
 611 0240 0E94 0000 		call enc28j60Write
 612               	.LM122:
 613 0244 81E3      		ldi r24,lo8(49)
 614 0246 67EF      		ldi r22,lo8(-9)
 615 0248 0E94 0000 		call enc28j60Write
 616               	.LM123:
 617 024c 80EC      		ldi r24,lo8(-64)
 618 024e 6DE0      		ldi r22,lo8(13)
 619 0250 0E94 0000 		call enc28j60Write
 620               	.LM124:
 621 0254 81EC      		ldi r24,lo8(-63)
 622 0256 60E0      		ldi r22,lo8(0)
 623 0258 0E94 0000 		call enc28j60Write
 624               	.LBB257:
 625               	.LBB258:
 626               	.LM125:
 627 025c C498      		cbi 56-32,4
 628               	.LM126:
 629 025e 82E8      		ldi r24,lo8(-126)
 630 0260 8FB9      		out 47-32,r24
 631               	.L65:
 632               	.LM127:
 633 0262 779B      		sbis 46-32,7
 634 0264 00C0      		rjmp .L65
 635               	.LM128:
 636 0266 82E3      		ldi r24,lo8(50)
 637 0268 8FB9      		out 47-32,r24
 638               	.L66:
 639               	.LM129:
 640 026a 779B      		sbis 46-32,7
 641 026c 00C0      		rjmp .L66
 642               	.LM130:
 643 026e C49A      		sbi 56-32,4
 644               	.LBE258:
 645               	.LBE257:
 646               	.LM131:
 647 0270 86EC      		ldi r24,lo8(-58)
 648 0272 62E1      		ldi r22,lo8(18)
 649 0274 0E94 0000 		call enc28j60Write
 650               	.LM132:
 651 0278 87EC      		ldi r24,lo8(-57)
 652 027a 6CE0      		ldi r22,lo8(12)
 653 027c 0E94 0000 		call enc28j60Write
 654               	.LM133:
 655 0280 84EC      		ldi r24,lo8(-60)
 656 0282 62E1      		ldi r22,lo8(18)
 657 0284 0E94 0000 		call enc28j60Write
 658               	.LM134:
 659 0288 8AEC      		ldi r24,lo8(-54)
 660 028a 6CED      		ldi r22,lo8(-36)
 661 028c 0E94 0000 		call enc28j60Write
 662               	.LM135:
 663 0290 8BEC      		ldi r24,lo8(-53)
 664 0292 65E0      		ldi r22,lo8(5)
 665 0294 0E94 0000 		call enc28j60Write
 666               	.LM136:
 667 0298 84EE      		ldi r24,lo8(-28)
 668 029a 6881      		ld r22,Y
 669 029c 0E94 0000 		call enc28j60Write
 670               	.LM137:
 671 02a0 85EE      		ldi r24,lo8(-27)
 672 02a2 6981      		ldd r22,Y+1
 673 02a4 0E94 0000 		call enc28j60Write
 674               	.LM138:
 675 02a8 82EE      		ldi r24,lo8(-30)
 676 02aa 6A81      		ldd r22,Y+2
 677 02ac 0E94 0000 		call enc28j60Write
 678               	.LM139:
 679 02b0 83EE      		ldi r24,lo8(-29)
 680 02b2 6B81      		ldd r22,Y+3
 681 02b4 0E94 0000 		call enc28j60Write
 682               	.LM140:
 683 02b8 80EE      		ldi r24,lo8(-32)
 684 02ba 6C81      		ldd r22,Y+4
 685 02bc 0E94 0000 		call enc28j60Write
 686               	.LM141:
 687 02c0 81EE      		ldi r24,lo8(-31)
 688 02c2 6D81      		ldd r22,Y+5
 689 02c4 0E94 0000 		call enc28j60Write
 690               	.LM142:
 691 02c8 80E1      		ldi r24,lo8(16)
 692 02ca 60E0      		ldi r22,lo8(256)
 693 02cc 71E0      		ldi r23,hi8(256)
 694 02ce 0E94 0000 		call enc28j60PhyWrite
 695               	.LM143:
 696 02d2 8FE1      		ldi r24,lo8(31)
 697 02d4 0E94 0000 		call enc28j60SetBank
 698               	.LBB259:
 699               	.LBB260:
 700               	.LM144:
 701 02d8 C498      		cbi 56-32,4
 702               	.LM145:
 703 02da 8BE9      		ldi r24,lo8(-101)
 704 02dc 8FB9      		out 47-32,r24
 705               	.L67:
 706               	.LM146:
 707 02de 779B      		sbis 46-32,7
 708 02e0 00C0      		rjmp .L67
 709               	.LM147:
 710 02e2 80EC      		ldi r24,lo8(-64)
 711 02e4 8FB9      		out 47-32,r24
 712               	.L68:
 713               	.LM148:
 714 02e6 779B      		sbis 46-32,7
 715 02e8 00C0      		rjmp .L68
 716               	.LM149:
 717 02ea C49A      		sbi 56-32,4
 718               	.LBE260:
 719               	.LBE259:
 720               	.LBB261:
 721               	.LBB262:
 722               	.LM150:
 723 02ec C498      		cbi 56-32,4
 724               	.LM151:
 725 02ee 8FE9      		ldi r24,lo8(-97)
 726 02f0 8FB9      		out 47-32,r24
 727               	.L69:
 728               	.LM152:
 729 02f2 779B      		sbis 46-32,7
 730 02f4 00C0      		rjmp .L69
 731               	.LM153:
 732 02f6 84E0      		ldi r24,lo8(4)
 733 02f8 8FB9      		out 47-32,r24
 734               	.L70:
 735               	.LM154:
 736 02fa 779B      		sbis 46-32,7
 737 02fc 00C0      		rjmp .L70
 738               	.LM155:
 739 02fe C49A      		sbi 56-32,4
 740               	/* epilogue start */
 741               	.LBE262:
 742               	.LBE261:
 743               	.LM156:
 744 0300 DF91      		pop r29
 745 0302 CF91      		pop r28
 746               	.LVL43:
 747 0304 0895      		ret
 748               	.LFE16:
 750               	.global	enc28j60getrev
 752               	enc28j60getrev:
 753               	.LFB17:
 754               	.LM157:
 755               	/* prologue: function */
 756               	/* frame size = 0 */
 757               	.LM158:
 758 0306 82E7      		ldi r24,lo8(114)
 759 0308 0E94 0000 		call enc28j60Read
 760               	/* epilogue start */
 761               	.LM159:
 762 030c 0895      		ret
 763               	.LFE17:
 765               	.global	enc28j60linkup
 767               	enc28j60linkup:
 768               	.LFB18:
 769               	.LM160:
 770               	/* prologue: function */
 771               	/* frame size = 0 */
 772               	.LM161:
 773 030e 81E1      		ldi r24,lo8(17)
 774 0310 0E94 0000 		call enc28j60PhyReadH
 775 0314 20E0      		ldi r18,lo8(0)
 776 0316 892B      		or r24,r25
 777 0318 01F0      		breq .L83
 778 031a 21E0      		ldi r18,lo8(1)
 779               	.L83:
 780               	.LM162:
 781 031c 822F      		mov r24,r18
 782               	/* epilogue start */
 783 031e 0895      		ret
 784               	.LFE18:
 786               	.global	enc28j60PacketSend
 788               	enc28j60PacketSend:
 789               	.LFB19:
 790               	.LM163:
 791               	.LVL44:
 792 0320 DF92      		push r13
 793 0322 EF92      		push r14
 794 0324 FF92      		push r15
 795 0326 0F93      		push r16
 796 0328 1F93      		push r17
 797 032a CF93      		push r28
 798 032c DF93      		push r29
 799               	/* prologue: function */
 800               	/* frame size = 0 */
 801 032e EC01      		movw r28,r24
 802 0330 8B01      		movw r16,r22
 803               	.LBB263:
 804               	.LBB264:
 805               	.LM164:
 806 0332 3FE9      		ldi r19,lo8(-97)
 807 0334 D32E      		mov r13,r19
 808               	.LM165:
 809 0336 20E8      		ldi r18,lo8(-128)
 810 0338 F22E      		mov r15,r18
 811               	.LBE264:
 812               	.LBE263:
 813               	.LBB266:
 814               	.LBB267:
 815               	.LM166:
 816 033a 9FEB      		ldi r25,lo8(-65)
 817 033c E92E      		mov r14,r25
 818 033e 00C0      		rjmp .L113
 819               	.LVL45:
 820               	.L91:
 821               	.LBE267:
 822               	.LBE266:
 823               	.LM167:
 824 0340 8CE1      		ldi r24,lo8(28)
 825 0342 0E94 0000 		call enc28j60Read
 826 0346 81FF      		sbrs r24,1
 827 0348 00C0      		rjmp .L113
 828               	.LBB269:
 829               	.LBB265:
 830               	.LM168:
 831 034a C498      		cbi 56-32,4
 832               	.LM169:
 833 034c DFB8      		out 47-32,r13
 834               	.L87:
 835               	.LM170:
 836 034e 779B      		sbis 46-32,7
 837 0350 00C0      		rjmp .L87
 838               	.LM171:
 839 0352 FFB8      		out 47-32,r15
 840               	.L88:
 841               	.LM172:
 842 0354 779B      		sbis 46-32,7
 843 0356 00C0      		rjmp .L88
 844               	.LM173:
 845 0358 C49A      		sbi 56-32,4
 846               	.LBE265:
 847               	.LBE269:
 848               	.LBB270:
 849               	.LBB268:
 850               	.LM174:
 851 035a C498      		cbi 56-32,4
 852               	.LM175:
 853 035c EFB8      		out 47-32,r14
 854               	.L89:
 855               	.LM176:
 856 035e 779B      		sbis 46-32,7
 857 0360 00C0      		rjmp .L89
 858               	.LM177:
 859 0362 FFB8      		out 47-32,r15
 860               	.L90:
 861               	.LM178:
 862 0364 779B      		sbis 46-32,7
 863 0366 00C0      		rjmp .L90
 864               	.LM179:
 865 0368 C49A      		sbi 56-32,4
 866               	.LVL46:
 867               	.L113:
 868               	.LBE268:
 869               	.LBE270:
 870               	.LM180:
 871 036a 80E0      		ldi r24,lo8(0)
 872 036c 6FE1      		ldi r22,lo8(31)
 873 036e 0E94 0000 		call enc28j60ReadOp
 874 0372 83FD      		sbrc r24,3
 875 0374 00C0      		rjmp .L91
 876               	.LM181:
 877 0376 82E0      		ldi r24,lo8(2)
 878 0378 6FEF      		ldi r22,lo8(-1)
 879 037a 0E94 0000 		call enc28j60Write
 880               	.LM182:
 881 037e 83E0      		ldi r24,lo8(3)
 882 0380 69E1      		ldi r22,lo8(25)
 883 0382 0E94 0000 		call enc28j60Write
 884               	.LM183:
 885 0386 CE01      		movw r24,r28
 886 0388 8150      		subi r24,lo8(-(-1))
 887 038a 682F      		mov r22,r24
 888 038c 86E0      		ldi r24,lo8(6)
 889 038e 0E94 0000 		call enc28j60Write
 890               	.LM184:
 891 0392 9E01      		movw r18,r28
 892 0394 2150      		subi r18,lo8(-(6655))
 893 0396 364E      		sbci r19,hi8(-(6655))
 894 0398 87E0      		ldi r24,lo8(7)
 895 039a 632F      		mov r22,r19
 896 039c 0E94 0000 		call enc28j60Write
 897               	.LBB271:
 898               	.LBB272:
 899               	.LM185:
 900 03a0 C498      		cbi 56-32,4
 901               	.LM186:
 902 03a2 8AE7      		ldi r24,lo8(122)
 903 03a4 8FB9      		out 47-32,r24
 904               	.L92:
 905               	.LM187:
 906 03a6 779B      		sbis 46-32,7
 907 03a8 00C0      		rjmp .L92
 908               	.LM188:
 909 03aa 1FB8      		out 47-32,__zero_reg__
 910               	.L93:
 911               	.LM189:
 912 03ac 779B      		sbis 46-32,7
 913 03ae 00C0      		rjmp .L93
 914               	.LM190:
 915 03b0 C49A      		sbi 56-32,4
 916               	.LBE272:
 917               	.LBE271:
 918               	.LBB273:
 919               	.LBB274:
 920               	.LM191:
 921 03b2 C498      		cbi 56-32,4
 922               	.LM192:
 923 03b4 8AE7      		ldi r24,lo8(122)
 924 03b6 8FB9      		out 47-32,r24
 925               	.L94:
 926               	.LM193:
 927 03b8 779B      		sbis 46-32,7
 928 03ba 00C0      		rjmp .L94
 929 03bc 00C0      		rjmp .L114
 930               	.L97:
 931               	.LM194:
 932 03be F801      		movw r30,r16
 933 03c0 8081      		ld r24,Z
 934 03c2 8FB9      		out 47-32,r24
 935               	.L96:
 936               	.LM195:
 937 03c4 779B      		sbis 46-32,7
 938 03c6 00C0      		rjmp .L96
 939               	.LM196:
 940 03c8 2197      		sbiw r28,1
 941               	.LM197:
 942 03ca 0F5F      		subi r16,lo8(-(1))
 943 03cc 1F4F      		sbci r17,hi8(-(1))
 944               	.L114:
 945               	.LM198:
 946 03ce 2097      		sbiw r28,0
 947 03d0 01F4      		brne .L97
 948               	.LM199:
 949 03d2 C49A      		sbi 56-32,4
 950               	.LBE274:
 951               	.LBE273:
 952               	.LBB275:
 953               	.LBB276:
 954               	.LM200:
 955 03d4 C498      		cbi 56-32,4
 956               	.LM201:
 957 03d6 8FE9      		ldi r24,lo8(-97)
 958 03d8 8FB9      		out 47-32,r24
 959               	.L98:
 960               	.LM202:
 961 03da 779B      		sbis 46-32,7
 962 03dc 00C0      		rjmp .L98
 963               	.LM203:
 964 03de 88E0      		ldi r24,lo8(8)
 965 03e0 8FB9      		out 47-32,r24
 966               	.L99:
 967               	.LM204:
 968 03e2 779B      		sbis 46-32,7
 969 03e4 00C0      		rjmp .L99
 970               	.LM205:
 971 03e6 C49A      		sbi 56-32,4
 972               	/* epilogue start */
 973               	.LBE276:
 974               	.LBE275:
 975               	.LM206:
 976 03e8 DF91      		pop r29
 977 03ea CF91      		pop r28
 978               	.LVL47:
 979 03ec 1F91      		pop r17
 980 03ee 0F91      		pop r16
 981               	.LVL48:
 982 03f0 FF90      		pop r15
 983 03f2 EF90      		pop r14
 984 03f4 DF90      		pop r13
 985 03f6 0895      		ret
 986               	.LFE19:
 988               	.global	enc28j60hasRxPkt
 990               	enc28j60hasRxPkt:
 991               	.LFB20:
 992               	.LM207:
 993               	/* prologue: function */
 994               	/* frame size = 0 */
 995               	.LM208:
 996 03f8 89E3      		ldi r24,lo8(57)
 997 03fa 0E94 0000 		call enc28j60Read
 998 03fe 8111      		cpse r24,__zero_reg__
 999 0400 81E0      		ldi r24,lo8(1)
 1000               	.L116:
 1001               	.LM209:
 1002 0402 0895      		ret
 1003               	.LFE20:
 1005               	.global	enc28j60PacketReceive
 1007               	enc28j60PacketReceive:
 1008               	.LFB21:
 1009               	.LM210:
 1010               	.LVL49:
 1011 0404 8F92      		push r8
 1012 0406 9F92      		push r9
 1013 0408 AF92      		push r10
 1014 040a BF92      		push r11
 1015 040c CF92      		push r12
 1016 040e DF92      		push r13
 1017 0410 EF92      		push r14
 1018 0412 FF92      		push r15
 1019 0414 0F93      		push r16
 1020 0416 1F93      		push r17
 1021 0418 CF93      		push r28
 1022 041a DF93      		push r29
 1023               	/* prologue: function */
 1024               	/* frame size = 0 */
 1025 041c 5C01      		movw r10,r24
 1026 041e 4B01      		movw r8,r22
 1027               	.LM211:
 1028 0420 89E3      		ldi r24,lo8(57)
 1029               	.LVL50:
 1030 0422 0E94 0000 		call enc28j60Read
 1031               	.LVL51:
 1032 0426 8823      		tst r24
 1033 0428 01F4      		brne .L119
 1034 042a C0E0      		ldi r28,lo8(0)
 1035 042c D0E0      		ldi r29,hi8(0)
 1036               	.LVL52:
 1037 042e 00C0      		rjmp .L120
 1038               	.LVL53:
 1039               	.L119:
 1040               	.LM212:
 1041 0430 6091 0000 		lds r22,gNextPacketPtr
 1042 0434 1091 0000 		lds r17,gNextPacketPtr+1
 1043 0438 80E0      		ldi r24,lo8(0)
 1044 043a 0E94 0000 		call enc28j60Write
 1045               	.LM213:
 1046 043e 81E0      		ldi r24,lo8(1)
 1047 0440 612F      		mov r22,r17
 1048 0442 0E94 0000 		call enc28j60Write
 1049               	.LM214:
 1050 0446 8AE3      		ldi r24,lo8(58)
 1051 0448 60E0      		ldi r22,lo8(0)
 1052 044a 0E94 0000 		call enc28j60ReadOp
 1053 044e 182F      		mov r17,r24
 1054               	.LM215:
 1055 0450 8AE3      		ldi r24,lo8(58)
 1056 0452 60E0      		ldi r22,lo8(0)
 1057 0454 0E94 0000 		call enc28j60ReadOp
 1058 0458 382F      		mov r19,r24
 1059 045a 20E0      		ldi r18,lo8(0)
 1060 045c E12E      		mov r14,r17
 1061 045e FF24      		clr r15
 1062 0460 E22A      		or r14,r18
 1063 0462 F32A      		or r15,r19
 1064 0464 F092 0000 		sts (gNextPacketPtr)+1,r15
 1065 0468 E092 0000 		sts gNextPacketPtr,r14
 1066               	.LM216:
 1067 046c 8AE3      		ldi r24,lo8(58)
 1068 046e 60E0      		ldi r22,lo8(0)
 1069 0470 0E94 0000 		call enc28j60ReadOp
 1070 0474 C82E      		mov r12,r24
 1071               	.LM217:
 1072 0476 8AE3      		ldi r24,lo8(58)
 1073 0478 60E0      		ldi r22,lo8(0)
 1074 047a 0E94 0000 		call enc28j60ReadOp
 1075 047e D82E      		mov r13,r24
 1076               	.LM218:
 1077 0480 8AE3      		ldi r24,lo8(58)
 1078 0482 60E0      		ldi r22,lo8(0)
 1079 0484 0E94 0000 		call enc28j60ReadOp
 1080 0488 082F      		mov r16,r24
 1081               	.LVL54:
 1082 048a 10E0      		ldi r17,lo8(0)
 1083               	.LVL55:
 1084               	.LM219:
 1085 048c 8AE3      		ldi r24,lo8(58)
 1086 048e 60E0      		ldi r22,lo8(0)
 1087 0490 0E94 0000 		call enc28j60ReadOp
 1088               	.LM220:
 1089 0494 382F      		mov r19,r24
 1090 0496 20E0      		ldi r18,lo8(0)
 1091 0498 202B      		or r18,r16
 1092 049a 312B      		or r19,r17
 1093 049c 27FD      		sbrc r18,7
 1094 049e 00C0      		rjmp .L121
 1095 04a0 C0E0      		ldi r28,lo8(0)
 1096 04a2 D0E0      		ldi r29,hi8(0)
 1097               	.LVL56:
 1098 04a4 00C0      		rjmp .L122
 1099               	.LVL57:
 1100               	.L121:
 1101               	.LM221:
 1102 04a6 CC2D      		mov r28,r12
 1103               	.LVL58:
 1104 04a8 D0E0      		ldi r29,lo8(0)
 1105               	.LVL59:
 1106               	.LM222:
 1107 04aa 9D2D      		mov r25,r13
 1108 04ac 80E0      		ldi r24,lo8(0)
 1109 04ae C82B      		or r28,r24
 1110 04b0 D92B      		or r29,r25
 1111               	.LVL60:
 1112               	.LM223:
 1113 04b2 C501      		movw r24,r10
 1114 04b4 0197      		sbiw r24,1
 1115 04b6 2497      		sbiw r28,4
 1116 04b8 8C17      		cp r24,r28
 1117 04ba 9D07      		cpc r25,r29
 1118 04bc 00F4      		brsh .L123
 1119 04be EC01      		movw r28,r24
 1120               	.L123:
 1121               	.LM224:
 1122 04c0 CE01      		movw r24,r28
 1123 04c2 B401      		movw r22,r8
 1124 04c4 0E94 0000 		call enc28j60ReadBuffer
 1125               	.L122:
 1126               	.LM225:
 1127 04c8 DE2C      		mov r13,r14
 1128 04ca 8CE0      		ldi r24,lo8(12)
 1129 04cc 6E2D      		mov r22,r14
 1130 04ce 0E94 0000 		call enc28j60Write
 1131               	.LM226:
 1132 04d2 8DE0      		ldi r24,lo8(13)
 1133 04d4 6F2D      		mov r22,r15
 1134 04d6 0E94 0000 		call enc28j60Write
 1135               	.LM227:
 1136 04da 8701      		movw r16,r14
 1137               	.LVL61:
 1138 04dc 0150      		subi r16,lo8(-(-1))
 1139 04de 1040      		sbci r17,hi8(-(-1))
 1140 04e0 89E1      		ldi r24,hi8(6655)
 1141 04e2 0F3F      		cpi r16,lo8(6655)
 1142 04e4 1807      		cpc r17,r24
 1143 04e6 00F0      		brlo .L124
 1144               	.LM228:
 1145 04e8 8CE0      		ldi r24,lo8(12)
 1146 04ea 6EEF      		ldi r22,lo8(-2)
 1147 04ec 0E94 0000 		call enc28j60Write
 1148               	.LM229:
 1149 04f0 8DE0      		ldi r24,lo8(13)
 1150 04f2 69E1      		ldi r22,lo8(25)
 1151 04f4 00C0      		rjmp .L131
 1152               	.L124:
 1153               	.LM230:
 1154 04f6 DA94      		dec r13
 1155 04f8 8CE0      		ldi r24,lo8(12)
 1156 04fa 6D2D      		mov r22,r13
 1157 04fc 0E94 0000 		call enc28j60Write
 1158               	.LM231:
 1159 0500 8DE0      		ldi r24,lo8(13)
 1160 0502 612F      		mov r22,r17
 1161               	.LVL62:
 1162               	.L131:
 1163 0504 0E94 0000 		call enc28j60Write
 1164               	.LBB277:
 1165               	.LBB278:
 1166               	.LM232:
 1167 0508 C498      		cbi 56-32,4
 1168               	.LM233:
 1169 050a 8EE9      		ldi r24,lo8(-98)
 1170 050c 8FB9      		out 47-32,r24
 1171               	.L126:
 1172               	.LM234:
 1173 050e 779B      		sbis 46-32,7
 1174 0510 00C0      		rjmp .L126
 1175               	.LM235:
 1176 0512 80E4      		ldi r24,lo8(64)
 1177 0514 8FB9      		out 47-32,r24
 1178               	.L127:
 1179               	.LM236:
 1180 0516 779B      		sbis 46-32,7
 1181 0518 00C0      		rjmp .L127
 1182               	.LM237:
 1183 051a C49A      		sbi 56-32,4
 1184               	.L120:
 1185               	.LBE278:
 1186               	.LBE277:
 1187               	.LM238:
 1188 051c CE01      		movw r24,r28
 1189               	.LVL63:
 1190               	/* epilogue start */
 1191 051e DF91      		pop r29
 1192               	.LVL64:
 1193 0520 CF91      		pop r28
 1194 0522 1F91      		pop r17
 1195               	.LVL65:
 1196 0524 0F91      		pop r16
 1197 0526 FF90      		pop r15
 1198 0528 EF90      		pop r14
 1199 052a DF90      		pop r13
 1200 052c CF90      		pop r12
 1201 052e BF90      		pop r11
 1202 0530 AF90      		pop r10
 1203               	.LVL66:
 1204 0532 9F90      		pop r9
 1205 0534 8F90      		pop r8
 1206               	.LVL67:
 1207 0536 0895      		ret
 1208               	.LFE21:
 1210               	.global	checksum
 1212               	checksum:
 1213               	.LFB22:
 1214               	.LM239:
 1215               	.LVL68:
 1216 0538 CF92      		push r12
 1217 053a DF92      		push r13
 1218 053c EF92      		push r14
 1219 053e FF92      		push r15
 1220 0540 0F93      		push r16
 1221 0542 1F93      		push r17
 1222 0544 CF93      		push r28
 1223 0546 DF93      		push r29
 1224               	/* prologue: function */
 1225               	/* frame size = 0 */
 1226 0548 6C01      		movw r12,r24
 1227               	.LM240:
 1228 054a 4130      		cpi r20,lo8(1)
 1229 054c 01F4      		brne .L133
 1230               	.LVL69:
 1231               	.LM241:
 1232 054e 6850      		subi r22,lo8(-(-8))
 1233 0550 7040      		sbci r23,hi8(-(-8))
 1234               	.LVL70:
 1235 0552 7B01      		movw r14,r22
 1236               	.LVL71:
 1237 0554 00E0      		ldi r16,lo8(0)
 1238 0556 10E0      		ldi r17,hi8(0)
 1239               	.LVL72:
 1240 0558 685F      		subi r22,lo8(-(8))
 1241 055a 7F4F      		sbci r23,hi8(-(8))
 1242 055c 21E1      		ldi r18,lo8(17)
 1243 055e 30E0      		ldi r19,hi8(17)
 1244 0560 40E0      		ldi r20,hlo8(17)
 1245 0562 50E0      		ldi r21,hhi8(17)
 1246 0564 E20E      		add r14,r18
 1247 0566 F31E      		adc r15,r19
 1248 0568 041F      		adc r16,r20
 1249 056a 151F      		adc r17,r21
 1250               	.LVL73:
 1251 056c 00C0      		rjmp .L134
 1252               	.LVL74:
 1253               	.L133:
 1254               	.LM242:
 1255 056e 4230      		cpi r20,lo8(2)
 1256 0570 01F0      		breq .L135
 1257 0572 EE24      		clr r14
 1258 0574 FF24      		clr r15
 1259 0576 8701      		movw r16,r14
 1260               	.LVL75:
 1261 0578 00C0      		rjmp .L134
 1262               	.LVL76:
 1263               	.L135:
 1264               	.LM243:
 1265 057a 6850      		subi r22,lo8(-(-8))
 1266 057c 7040      		sbci r23,hi8(-(-8))
 1267               	.LVL77:
 1268 057e 7B01      		movw r14,r22
 1269               	.LVL78:
 1270 0580 00E0      		ldi r16,lo8(0)
 1271 0582 10E0      		ldi r17,hi8(0)
 1272               	.LVL79:
 1273 0584 685F      		subi r22,lo8(-(8))
 1274 0586 7F4F      		sbci r23,hi8(-(8))
 1275 0588 86E0      		ldi r24,lo8(6)
 1276 058a 90E0      		ldi r25,hi8(6)
 1277 058c A0E0      		ldi r26,hlo8(6)
 1278 058e B0E0      		ldi r27,hhi8(6)
 1279 0590 E80E      		add r14,r24
 1280 0592 F91E      		adc r15,r25
 1281 0594 0A1F      		adc r16,r26
 1282 0596 1B1F      		adc r17,r27
 1283               	.LVL80:
 1284               	.L134:
 1285 0598 F601      		movw r30,r12
 1286 059a EB01      		movw r28,r22
 1287 059c 00C0      		rjmp .L136
 1288               	.LVL81:
 1289               	.L137:
 1290               	.LM244:
 1291 059e 8081      		ld r24,Z
 1292 05a0 90E0      		ldi r25,lo8(0)
 1293 05a2 A0E0      		ldi r26,lo8(0)
 1294 05a4 B0E0      		ldi r27,hi8(0)
 1295 05a6 BA2F      		mov r27,r26
 1296 05a8 A92F      		mov r26,r25
 1297 05aa 982F      		mov r25,r24
 1298 05ac 8827      		clr r24
 1299 05ae 2181      		ldd r18,Z+1
 1300 05b0 30E0      		ldi r19,lo8(0)
 1301 05b2 40E0      		ldi r20,lo8(0)
 1302 05b4 50E0      		ldi r21,hi8(0)
 1303               	.LVL82:
 1304 05b6 822B      		or r24,r18
 1305 05b8 932B      		or r25,r19
 1306 05ba A42B      		or r26,r20
 1307 05bc B52B      		or r27,r21
 1308 05be E80E      		add r14,r24
 1309 05c0 F91E      		adc r15,r25
 1310 05c2 0A1F      		adc r16,r26
 1311 05c4 1B1F      		adc r17,r27
 1312               	.LM245:
 1313 05c6 3296      		adiw r30,2
 1314               	.LM246:
 1315 05c8 2297      		sbiw r28,2
 1316               	.LVL83:
 1317               	.L136:
 1318               	.LM247:
 1319 05ca C230      		cpi r28,2
 1320 05cc D105      		cpc r29,__zero_reg__
 1321 05ce 00F4      		brsh .L137
 1322 05d0 FB01      		movw r30,r22
 1323               	.LVL84:
 1324 05d2 EE7F      		andi r30,lo8(-2)
 1325 05d4 EC0D      		add r30,r12
 1326 05d6 FD1D      		adc r31,r13
 1327               	.LM248:
 1328 05d8 60FF      		sbrs r22,0
 1329 05da 00C0      		rjmp .L141
 1330               	.LVL85:
 1331               	.LM249:
 1332 05dc 8081      		ld r24,Z
 1333 05de 90E0      		ldi r25,lo8(0)
 1334 05e0 A0E0      		ldi r26,lo8(0)
 1335 05e2 B0E0      		ldi r27,hi8(0)
 1336 05e4 BA2F      		mov r27,r26
 1337 05e6 A92F      		mov r26,r25
 1338 05e8 982F      		mov r25,r24
 1339 05ea 8827      		clr r24
 1340 05ec 00C0      		rjmp .L142
 1341               	.LVL86:
 1342               	.L139:
 1343               	.LM250:
 1344 05ee 2FEF      		ldi r18,lo8(65535)
 1345 05f0 3FEF      		ldi r19,hi8(65535)
 1346 05f2 40E0      		ldi r20,hlo8(65535)
 1347 05f4 50E0      		ldi r21,hhi8(65535)
 1348 05f6 E222      		and r14,r18
 1349 05f8 F322      		and r15,r19
 1350 05fa 0423      		and r16,r20
 1351 05fc 1523      		and r17,r21
 1352               	.LVL87:
 1353               	.L142:
 1354 05fe E80E      		add r14,r24
 1355 0600 F91E      		adc r15,r25
 1356 0602 0A1F      		adc r16,r26
 1357 0604 1B1F      		adc r17,r27
 1358               	.L141:
 1359               	.LM251:
 1360 0606 C801      		movw r24,r16
 1361 0608 AA27      		clr r26
 1362 060a BB27      		clr r27
 1363               	.LVL88:
 1364 060c 0097      		sbiw r24,0
 1365 060e A105      		cpc r26,__zero_reg__
 1366 0610 B105      		cpc r27,__zero_reg__
 1367 0612 01F4      		brne .L139
 1368 0614 9701      		movw r18,r14
 1369               	.LVL89:
 1370 0616 2095      		com r18
 1371 0618 3095      		com r19
 1372               	.LM252:
 1373 061a C901      		movw r24,r18
 1374               	/* epilogue start */
 1375 061c DF91      		pop r29
 1376 061e CF91      		pop r28
 1377 0620 1F91      		pop r17
 1378 0622 0F91      		pop r16
 1379               	.LVL90:
 1380 0624 FF90      		pop r15
 1381 0626 EF90      		pop r14
 1382 0628 DF90      		pop r13
 1383 062a CF90      		pop r12
 1384 062c 0895      		ret
 1385               	.LFE22:
 1387               	.global	init_ip_arp_udp_tcp
 1389               	init_ip_arp_udp_tcp:
 1390               	.LFB23:
 1391               	.LM253:
 1392               	.LVL91:
 1393 062e CF93      		push r28
 1394 0630 DF93      		push r29
 1395               	/* prologue: function */
 1396               	/* frame size = 0 */
 1397 0632 EC01      		movw r28,r24
 1398               	.LM254:
 1399 0634 5093 0000 		sts wwwport_h,r21
 1400               	.LVL92:
 1401               	.LM255:
 1402 0638 4093 0000 		sts wwwport_l,r20
 1403 063c 20E0      		ldi r18,lo8(0)
 1404 063e 30E0      		ldi r19,hi8(0)
 1405               	.LVL93:
 1406               	.L144:
 1407               	.LM256:
 1408 0640 F901      		movw r30,r18
 1409 0642 E050      		subi r30,lo8(-(ipaddr))
 1410 0644 F040      		sbci r31,hi8(-(ipaddr))
 1411 0646 DB01      		movw r26,r22
 1412 0648 A20F      		add r26,r18
 1413 064a B31F      		adc r27,r19
 1414 064c 8C91      		ld r24,X
 1415 064e 8083      		st Z,r24
 1416 0650 2F5F      		subi r18,lo8(-(1))
 1417 0652 3F4F      		sbci r19,hi8(-(1))
 1418               	.LM257:
 1419 0654 2430      		cpi r18,4
 1420 0656 3105      		cpc r19,__zero_reg__
 1421 0658 01F4      		brne .L144
 1422 065a 20E0      		ldi r18,lo8(0)
 1423 065c 30E0      		ldi r19,hi8(0)
 1424               	.L145:
 1425               	.LM258:
 1426 065e F901      		movw r30,r18
 1427 0660 E050      		subi r30,lo8(-(macaddr))
 1428 0662 F040      		sbci r31,hi8(-(macaddr))
 1429 0664 DE01      		movw r26,r28
 1430 0666 A20F      		add r26,r18
 1431 0668 B31F      		adc r27,r19
 1432 066a 8C91      		ld r24,X
 1433 066c 8083      		st Z,r24
 1434 066e 2F5F      		subi r18,lo8(-(1))
 1435 0670 3F4F      		sbci r19,hi8(-(1))
 1436               	.LM259:
 1437 0672 2630      		cpi r18,6
 1438 0674 3105      		cpc r19,__zero_reg__
 1439 0676 01F4      		brne .L145
 1440               	/* epilogue start */
 1441               	.LM260:
 1442 0678 DF91      		pop r29
 1443 067a CF91      		pop r28
 1444               	.LVL94:
 1445 067c 0895      		ret
 1446               	.LFE23:
 1448               	.global	check_ip_message_is_from
 1450               	check_ip_message_is_from:
 1451               	.LFB24:
 1452               	.LM261:
 1453               	.LVL95:
 1454               	/* prologue: function */
 1455               	/* frame size = 0 */
 1456               	.LM262:
 1457 067e DC01      		movw r26,r24
 1458               	.LVL96:
 1459 0680 20E0      		ldi r18,lo8(0)
 1460 0682 30E0      		ldi r19,hi8(0)
 1461               	.L152:
 1462               	.LM263:
 1463 0684 FB01      		movw r30,r22
 1464 0686 E20F      		add r30,r18
 1465 0688 F31F      		adc r31,r19
 1466 068a 5A96      		adiw r26,26
 1467 068c 9C91      		ld r25,X
 1468 068e 5A97      		sbiw r26,26
 1469 0690 8081      		ld r24,Z
 1470 0692 9817      		cp r25,r24
 1471 0694 01F0      		breq .L150
 1472 0696 80E0      		ldi r24,lo8(0)
 1473 0698 0895      		ret
 1474               	.L150:
 1475 069a 2F5F      		subi r18,lo8(-(1))
 1476 069c 3F4F      		sbci r19,hi8(-(1))
 1477 069e 1196      		adiw r26,1
 1478               	.LM264:
 1479 06a0 2430      		cpi r18,4
 1480 06a2 3105      		cpc r19,__zero_reg__
 1481 06a4 01F4      		brne .L152
 1482 06a6 81E0      		ldi r24,lo8(1)
 1483               	.LM265:
 1484 06a8 0895      		ret
 1485               	.LFE24:
 1487               	.global	eth_type_is_arp_and_my_ip
 1489               	eth_type_is_arp_and_my_ip:
 1490               	.LFB25:
 1491               	.LM266:
 1492               	.LVL97:
 1493               	/* prologue: function */
 1494               	/* frame size = 0 */
 1495 06aa FC01      		movw r30,r24
 1496               	.LM267:
 1497 06ac 6932      		cpi r22,41
 1498 06ae 7105      		cpc r23,__zero_reg__
 1499 06b0 00F0      		brlo .L156
 1500               	.LVL98:
 1501               	.LM268:
 1502 06b2 8485      		ldd r24,Z+12
 1503 06b4 8830      		cpi r24,lo8(8)
 1504 06b6 01F4      		brne .L156
 1505 06b8 8585      		ldd r24,Z+13
 1506 06ba 8630      		cpi r24,lo8(6)
 1507 06bc 01F4      		brne .L156
 1508 06be DF01      		movw r26,r30
 1509 06c0 9696      		adiw r26,38
 1510 06c2 E0E0      		ldi r30,lo8(ipaddr)
 1511 06c4 F0E0      		ldi r31,hi8(ipaddr)
 1512               	.LVL99:
 1513               	.L157:
 1514               	.LM269:
 1515 06c6 9C91      		ld r25,X
 1516 06c8 8081      		ld r24,Z
 1517 06ca 9817      		cp r25,r24
 1518 06cc 01F4      		brne .L156
 1519 06ce 1196      		adiw r26,1
 1520 06d0 3196      		adiw r30,1
 1521               	.LM270:
 1522 06d2 80E0      		ldi r24,hi8(ipaddr+4)
 1523 06d4 E030      		cpi r30,lo8(ipaddr+4)
 1524 06d6 F807      		cpc r31,r24
 1525 06d8 01F4      		brne .L157
 1526 06da 81E0      		ldi r24,lo8(1)
 1527 06dc 0895      		ret
 1528               	.LVL100:
 1529               	.L156:
 1530 06de 80E0      		ldi r24,lo8(0)
 1531               	.LM271:
 1532 06e0 0895      		ret
 1533               	.LFE25:
 1535               	.global	eth_type_is_ip_and_my_ip
 1537               	eth_type_is_ip_and_my_ip:
 1538               	.LFB26:
 1539               	.LM272:
 1540               	.LVL101:
 1541               	/* prologue: function */
 1542               	/* frame size = 0 */
 1543 06e2 FC01      		movw r30,r24
 1544               	.LM273:
 1545 06e4 6A32      		cpi r22,42
 1546 06e6 7105      		cpc r23,__zero_reg__
 1547 06e8 00F0      		brlo .L162
 1548               	.LVL102:
 1549               	.LM274:
 1550 06ea 8485      		ldd r24,Z+12
 1551 06ec 8830      		cpi r24,lo8(8)
 1552 06ee 01F4      		brne .L162
 1553 06f0 8585      		ldd r24,Z+13
 1554 06f2 8823      		tst r24
 1555 06f4 01F4      		brne .L162
 1556               	.LM275:
 1557 06f6 8685      		ldd r24,Z+14
 1558 06f8 8534      		cpi r24,lo8(69)
 1559 06fa 01F4      		brne .L162
 1560 06fc DF01      		movw r26,r30
 1561 06fe E0E0      		ldi r30,lo8(ipaddr)
 1562 0700 F0E0      		ldi r31,hi8(ipaddr)
 1563               	.LVL103:
 1564               	.L163:
 1565               	.LM276:
 1566 0702 5E96      		adiw r26,30
 1567 0704 9C91      		ld r25,X
 1568 0706 5E97      		sbiw r26,30
 1569 0708 8081      		ld r24,Z
 1570 070a 9817      		cp r25,r24
 1571 070c 01F4      		brne .L162
 1572 070e 1196      		adiw r26,1
 1573 0710 3196      		adiw r30,1
 1574               	.LM277:
 1575 0712 80E0      		ldi r24,hi8(ipaddr+4)
 1576 0714 E030      		cpi r30,lo8(ipaddr+4)
 1577 0716 F807      		cpc r31,r24
 1578 0718 01F4      		brne .L163
 1579 071a 81E0      		ldi r24,lo8(1)
 1580 071c 0895      		ret
 1581               	.LVL104:
 1582               	.L162:
 1583 071e 80E0      		ldi r24,lo8(0)
 1584               	.LM278:
 1585 0720 0895      		ret
 1586               	.LFE26:
 1588               	.global	make_eth
 1590               	make_eth:
 1591               	.LFB27:
 1592               	.LM279:
 1593               	.LVL105:
 1594               	/* prologue: function */
 1595               	/* frame size = 0 */
 1596               	.LM280:
 1597 0722 FC01      		movw r30,r24
 1598               	.LVL106:
 1599 0724 A0E0      		ldi r26,lo8(macaddr)
 1600 0726 B0E0      		ldi r27,hi8(macaddr)
 1601               	.L168:
 1602               	.LM281:
 1603 0728 8681      		ldd r24,Z+6
 1604 072a 8083      		st Z,r24
 1605               	.LM282:
 1606 072c 8D91      		ld r24,X+
 1607 072e 8683      		std Z+6,r24
 1608 0730 3196      		adiw r30,1
 1609               	.LM283:
 1610 0732 80E0      		ldi r24,hi8(macaddr+6)
 1611 0734 A030      		cpi r26,lo8(macaddr+6)
 1612 0736 B807      		cpc r27,r24
 1613 0738 01F4      		brne .L168
 1614               	/* epilogue start */
 1615               	.LM284:
 1616 073a 0895      		ret
 1617               	.LFE27:
 1619               	.global	fill_ip_hdr_checksum
 1621               	fill_ip_hdr_checksum:
 1622               	.LFB28:
 1623               	.LM285:
 1624               	.LVL107:
 1625 073c 0F93      		push r16
 1626 073e 1F93      		push r17
 1627               	/* prologue: function */
 1628               	/* frame size = 0 */
 1629 0740 8C01      		movw r16,r24
 1630               	.LM286:
 1631 0742 FC01      		movw r30,r24
 1632 0744 108E      		std Z+24,__zero_reg__
 1633               	.LM287:
 1634 0746 118E      		std Z+25,__zero_reg__
 1635               	.LM288:
 1636 0748 80E4      		ldi r24,lo8(64)
 1637               	.LVL108:
 1638 074a 848B      		std Z+20,r24
 1639               	.LM289:
 1640 074c 158A      		std Z+21,__zero_reg__
 1641               	.LM290:
 1642 074e 868B      		std Z+22,r24
 1643               	.LM291:
 1644 0750 C801      		movw r24,r16
 1645 0752 0E96      		adiw r24,14
 1646 0754 64E1      		ldi r22,lo8(20)
 1647 0756 70E0      		ldi r23,hi8(20)
 1648 0758 40E0      		ldi r20,lo8(0)
 1649 075a 0E94 0000 		call checksum
 1650               	.LM292:
 1651 075e F801      		movw r30,r16
 1652 0760 908F      		std Z+24,r25
 1653               	.LM293:
 1654 0762 818F      		std Z+25,r24
 1655               	/* epilogue start */
 1656               	.LM294:
 1657 0764 1F91      		pop r17
 1658 0766 0F91      		pop r16
 1659               	.LVL109:
 1660 0768 0895      		ret
 1661               	.LFE28:
 1663               	.global	make_ip
 1665               	make_ip:
 1666               	.LFB29:
 1667               	.LM295:
 1668               	.LVL110:
 1669               	/* prologue: function */
 1670               	/* frame size = 0 */
 1671 076a AC01      		movw r20,r24
 1672               	.LVL111:
 1673               	.LM296:
 1674 076c FC01      		movw r30,r24
 1675 076e A0E0      		ldi r26,lo8(ipaddr)
 1676 0770 B0E0      		ldi r27,hi8(ipaddr)
 1677               	.L174:
 1678               	.LM297:
 1679 0772 828D      		ldd r24,Z+26
 1680 0774 868F      		std Z+30,r24
 1681               	.LM298:
 1682 0776 8D91      		ld r24,X+
 1683 0778 828F      		std Z+26,r24
 1684 077a 3196      		adiw r30,1
 1685               	.LM299:
 1686 077c 80E0      		ldi r24,hi8(ipaddr+4)
 1687 077e A030      		cpi r26,lo8(ipaddr+4)
 1688 0780 B807      		cpc r27,r24
 1689 0782 01F4      		brne .L174
 1690               	.LM300:
 1691 0784 CA01      		movw r24,r20
 1692 0786 0E94 0000 		call fill_ip_hdr_checksum
 1693               	/* epilogue start */
 1694               	.LM301:
 1695 078a 0895      		ret
 1696               	.LFE29:
 1698               	.global	step_seq
 1700               	step_seq:
 1701               	.LFB30:
 1702               	.LM302:
 1703               	.LVL112:
 1704               	/* prologue: function */
 1705               	/* frame size = 0 */
 1706               	.LM303:
 1707 078c FC01      		movw r30,r24
 1708 078e B996      		adiw r30,41
 1709 0790 94E0      		ldi r25,lo8(4)
 1710               	.LVL113:
 1711               	.L181:
 1712               	.LM304:
 1713 0792 8081      		ld r24,Z
 1714               	.LVL114:
 1715 0794 680F      		add r22,r24
 1716 0796 711D      		adc r23,__zero_reg__
 1717               	.LVL115:
 1718               	.LM305:
 1719 0798 8481      		ldd r24,Z+4
 1720               	.LVL116:
 1721               	.LM306:
 1722 079a 6483      		std Z+4,r22
 1723               	.LM307:
 1724 079c 4423      		tst r20
 1725 079e 01F0      		breq .L178
 1726               	.LM308:
 1727 07a0 8083      		st Z,r24
 1728 07a2 00C0      		rjmp .L179
 1729               	.L178:
 1730               	.LM309:
 1731 07a4 1082      		st Z,__zero_reg__
 1732               	.L179:
 1733               	.LM310:
 1734 07a6 9150      		subi r25,lo8(-(-1))
 1735 07a8 3197      		sbiw r30,1
 1736               	.LM311:
 1737 07aa 9923      		tst r25
 1738 07ac 01F0      		breq .L182
 1739               	.LM312:
 1740 07ae 672F      		mov r22,r23
 1741 07b0 7727      		clr r23
 1742               	.LVL117:
 1743 07b2 00C0      		rjmp .L181
 1744               	.L182:
 1745 07b4 0895      		ret
 1746               	.LFE30:
 1748               	.global	make_tcphead
 1750               	make_tcphead:
 1751               	.LFB31:
 1752               	.LM313:
 1753               	.LVL118:
 1754 07b6 0F93      		push r16
 1755 07b8 1F93      		push r17
 1756               	/* prologue: function */
 1757               	/* frame size = 0 */
 1758 07ba 8C01      		movw r16,r24
 1759               	.LM314:
 1760 07bc FC01      		movw r30,r24
 1761 07be 94A1      		ldd r25,Z+36
 1762               	.LVL119:
 1763               	.LM315:
 1764 07c0 82A1      		ldd r24,Z+34
 1765               	.LVL120:
 1766 07c2 84A3      		std Z+36,r24
 1767               	.LM316:
 1768 07c4 92A3      		std Z+34,r25
 1769               	.LM317:
 1770 07c6 95A1      		ldd r25,Z+37
 1771               	.LVL121:
 1772               	.LM318:
 1773 07c8 83A1      		ldd r24,Z+35
 1774 07ca 85A3      		std Z+37,r24
 1775               	.LM319:
 1776 07cc 93A3      		std Z+35,r25
 1777               	.LM320:
 1778 07ce C801      		movw r24,r16
 1779 07d0 0E94 0000 		call step_seq
 1780               	.LVL122:
 1781               	.LM321:
 1782 07d4 F801      		movw r30,r16
 1783 07d6 12AA      		std Z+50,__zero_reg__
 1784               	.LM322:
 1785 07d8 13AA      		std Z+51,__zero_reg__
 1786               	.LM323:
 1787 07da 80E5      		ldi r24,lo8(80)
 1788 07dc 86A7      		std Z+46,r24
 1789               	/* epilogue start */
 1790               	.LM324:
 1791 07de 1F91      		pop r17
 1792 07e0 0F91      		pop r16
 1793               	.LVL123:
 1794 07e2 0895      		ret
 1795               	.LFE31:
 1797               	.global	make_arp_answer_from_request
 1799               	make_arp_answer_from_request:
 1800               	.LFB32:
 1801               	.LM325:
 1802               	.LVL124:
 1803 07e4 CF93      		push r28
 1804 07e6 DF93      		push r29
 1805               	/* prologue: function */
 1806               	/* frame size = 0 */
 1807 07e8 AC01      		movw r20,r24
 1808               	.LM326:
 1809 07ea EC01      		movw r28,r24
 1810 07ec 20E0      		ldi r18,lo8(macaddr)
 1811 07ee 30E0      		ldi r19,hi8(macaddr)
 1812 07f0 FC01      		movw r30,r24
 1813 07f2 D901      		movw r26,r18
 1814               	.L186:
 1815               	.LBB279:
 1816               	.LBB280:
 1817               	.LM327:
 1818 07f4 8681      		ldd r24,Z+6
 1819               	.LVL125:
 1820 07f6 8083      		st Z,r24
 1821               	.LM328:
 1822 07f8 8D91      		ld r24,X+
 1823 07fa 8683      		std Z+6,r24
 1824 07fc 3196      		adiw r30,1
 1825               	.LM329:
 1826 07fe 80E0      		ldi r24,hi8(macaddr+6)
 1827 0800 A030      		cpi r26,lo8(macaddr+6)
 1828 0802 B807      		cpc r27,r24
 1829 0804 01F4      		brne .L186
 1830               	.LBE280:
 1831               	.LBE279:
 1832               	.LM330:
 1833 0806 FA01      		movw r30,r20
 1834 0808 148A      		std Z+20,__zero_reg__
 1835               	.LM331:
 1836 080a 82E0      		ldi r24,lo8(2)
 1837 080c 858B      		std Z+21,r24
 1838               	.L187:
 1839               	.LM332:
 1840 080e 8E89      		ldd r24,Y+22
 1841 0810 88A3      		std Y+32,r24
 1842               	.LM333:
 1843 0812 F901      		movw r30,r18
 1844 0814 8191      		ld r24,Z+
 1845 0816 9F01      		movw r18,r30
 1846 0818 8E8B      		std Y+22,r24
 1847 081a 2196      		adiw r28,1
 1848               	.LM334:
 1849 081c F0E0      		ldi r31,hi8(macaddr+6)
 1850 081e 2030      		cpi r18,lo8(macaddr+6)
 1851 0820 3F07      		cpc r19,r31
 1852 0822 01F4      		brne .L187
 1853 0824 FA01      		movw r30,r20
 1854 0826 7C96      		adiw r30,28
 1855 0828 A0E0      		ldi r26,lo8(ipaddr)
 1856 082a B0E0      		ldi r27,hi8(ipaddr)
 1857               	.L188:
 1858               	.LM335:
 1859 082c 8081      		ld r24,Z
 1860 082e 8287      		std Z+10,r24
 1861               	.LM336:
 1862 0830 8D91      		ld r24,X+
 1863 0832 8193      		st Z+,r24
 1864               	.LM337:
 1865 0834 80E0      		ldi r24,hi8(ipaddr+4)
 1866 0836 A030      		cpi r26,lo8(ipaddr+4)
 1867 0838 B807      		cpc r27,r24
 1868 083a 01F4      		brne .L188
 1869               	.LM338:
 1870 083c 8AE2      		ldi r24,lo8(42)
 1871 083e 90E0      		ldi r25,hi8(42)
 1872 0840 BA01      		movw r22,r20
 1873 0842 0E94 0000 		call enc28j60PacketSend
 1874               	.LVL126:
 1875               	/* epilogue start */
 1876               	.LM339:
 1877 0846 DF91      		pop r29
 1878 0848 CF91      		pop r28
 1879 084a 0895      		ret
 1880               	.LFE32:
 1882               	.global	make_echo_reply_from_request
 1884               	make_echo_reply_from_request:
 1885               	.LFB33:
 1886               	.LM340:
 1887               	.LVL127:
 1888 084c 0F93      		push r16
 1889 084e 1F93      		push r17
 1890 0850 CF93      		push r28
 1891 0852 DF93      		push r29
 1892               	/* prologue: function */
 1893               	/* frame size = 0 */
 1894 0854 EC01      		movw r28,r24
 1895 0856 8B01      		movw r16,r22
 1896               	.LM341:
 1897 0858 FC01      		movw r30,r24
 1898 085a A0E0      		ldi r26,lo8(macaddr)
 1899 085c B0E0      		ldi r27,hi8(macaddr)
 1900               	.LVL128:
 1901               	.L194:
 1902               	.LBB281:
 1903               	.LBB282:
 1904               	.LM342:
 1905 085e 8681      		ldd r24,Z+6
 1906               	.LVL129:
 1907 0860 8083      		st Z,r24
 1908               	.LM343:
 1909 0862 8D91      		ld r24,X+
 1910 0864 8683      		std Z+6,r24
 1911 0866 3196      		adiw r30,1
 1912               	.LM344:
 1913 0868 80E0      		ldi r24,hi8(macaddr+6)
 1914 086a A030      		cpi r26,lo8(macaddr+6)
 1915 086c B807      		cpc r27,r24
 1916 086e 01F4      		brne .L194
 1917               	.LBE282:
 1918               	.LBE281:
 1919               	.LM345:
 1920 0870 CE01      		movw r24,r28
 1921 0872 0E94 0000 		call make_ip
 1922               	.LM346:
 1923 0876 1AA2      		std Y+34,__zero_reg__
 1924               	.LM347:
 1925 0878 8CA1      		ldd r24,Y+36
 1926 087a 883F      		cpi r24,lo8(-8)
 1927 087c 00F0      		brlo .L195
 1928               	.LM348:
 1929 087e 8DA1      		ldd r24,Y+37
 1930 0880 8F5F      		subi r24,lo8(-(1))
 1931 0882 8DA3      		std Y+37,r24
 1932               	.L195:
 1933               	.LM349:
 1934 0884 8CA1      		ldd r24,Y+36
 1935 0886 885F      		subi r24,lo8(-(8))
 1936 0888 8CA3      		std Y+36,r24
 1937               	.LM350:
 1938 088a C801      		movw r24,r16
 1939 088c BE01      		movw r22,r28
 1940 088e 0E94 0000 		call enc28j60PacketSend
 1941               	/* epilogue start */
 1942               	.LM351:
 1943 0892 DF91      		pop r29
 1944 0894 CF91      		pop r28
 1945               	.LVL130:
 1946 0896 1F91      		pop r17
 1947 0898 0F91      		pop r16
 1948               	.LVL131:
 1949 089a 0895      		ret
 1950               	.LFE33:
 1952               	.global	make_udp_reply_from_request
 1954               	make_udp_reply_from_request:
 1955               	.LFB34:
 1956               	.LM352:
 1957               	.LVL132:
 1958 089c DF92      		push r13
 1959 089e EF92      		push r14
 1960 08a0 FF92      		push r15
 1961 08a2 0F93      		push r16
 1962 08a4 1F93      		push r17
 1963 08a6 CF93      		push r28
 1964 08a8 DF93      		push r29
 1965               	/* prologue: function */
 1966               	/* frame size = 0 */
 1967 08aa EC01      		movw r28,r24
 1968 08ac 7B01      		movw r14,r22
 1969 08ae D22E      		mov r13,r18
 1970 08b0 132F      		mov r17,r19
 1971               	.LVL133:
 1972               	.LM353:
 1973 08b2 FC01      		movw r30,r24
 1974 08b4 A0E0      		ldi r26,lo8(macaddr)
 1975 08b6 B0E0      		ldi r27,hi8(macaddr)
 1976               	.LVL134:
 1977               	.L199:
 1978               	.LBB283:
 1979               	.LBB284:
 1980               	.LM354:
 1981 08b8 8681      		ldd r24,Z+6
 1982               	.LVL135:
 1983 08ba 8083      		st Z,r24
 1984               	.LM355:
 1985 08bc 8D91      		ld r24,X+
 1986 08be 8683      		std Z+6,r24
 1987 08c0 3196      		adiw r30,1
 1988               	.LM356:
 1989 08c2 80E0      		ldi r24,hi8(macaddr+6)
 1990 08c4 A030      		cpi r26,lo8(macaddr+6)
 1991 08c6 B807      		cpc r27,r24
 1992 08c8 01F4      		brne .L199
 1993 08ca 042F      		mov r16,r20
 1994 08cc 4D3D      		cpi r20,lo8(-35)
 1995 08ce 00F0      		brlo .L200
 1996 08d0 0CED      		ldi r16,lo8(-36)
 1997               	.LVL136:
 1998               	.L200:
 1999               	.LBE284:
 2000               	.LBE283:
 2001               	.LM357:
 2002 08d2 188A      		std Y+16,__zero_reg__
 2003               	.LM358:
 2004 08d4 045E      		subi r16,lo8(-(28))
 2005 08d6 098B      		std Y+17,r16
 2006               	.LM359:
 2007 08d8 CE01      		movw r24,r28
 2008 08da 0E94 0000 		call make_ip
 2009               	.LM360:
 2010 08de 8AA1      		ldd r24,Y+34
 2011 08e0 8CA3      		std Y+36,r24
 2012               	.LM361:
 2013 08e2 8BA1      		ldd r24,Y+35
 2014 08e4 8DA3      		std Y+37,r24
 2015               	.LM362:
 2016 08e6 1AA3      		std Y+34,r17
 2017               	.LM363:
 2018 08e8 DBA2      		std Y+35,r13
 2019               	.LM364:
 2020 08ea 1EA2      		std Y+38,__zero_reg__
 2021               	.LM365:
 2022 08ec 0451      		subi r16,lo8(-(-20))
 2023 08ee 0FA3      		std Y+39,r16
 2024 08f0 0850      		subi r16,lo8(-(-8))
 2025               	.LM366:
 2026 08f2 18A6      		std Y+40,__zero_reg__
 2027               	.LM367:
 2028 08f4 19A6      		std Y+41,__zero_reg__
 2029 08f6 DE01      		movw r26,r28
 2030 08f8 9A96      		adiw r26,42
 2031 08fa 20E0      		ldi r18,lo8(0)
 2032 08fc 30E0      		ldi r19,hi8(0)
 2033 08fe 00C0      		rjmp .L201
 2034               	.L202:
 2035               	.LM368:
 2036 0900 F701      		movw r30,r14
 2037 0902 E20F      		add r30,r18
 2038 0904 F31F      		adc r31,r19
 2039 0906 8081      		ld r24,Z
 2040 0908 8D93      		st X+,r24
 2041 090a 2F5F      		subi r18,lo8(-(1))
 2042 090c 3F4F      		sbci r19,hi8(-(1))
 2043               	.L201:
 2044               	.LM369:
 2045 090e 2017      		cp r18,r16
 2046 0910 00F0      		brlo .L202
 2047               	.LM370:
 2048 0912 10E0      		ldi r17,lo8(0)
 2049               	.LVL137:
 2050 0914 005F      		subi r16,lo8(-(16))
 2051 0916 1F4F      		sbci r17,hi8(-(16))
 2052               	.LVL138:
 2053 0918 CE01      		movw r24,r28
 2054 091a 4A96      		adiw r24,26
 2055 091c B801      		movw r22,r16
 2056 091e 41E0      		ldi r20,lo8(1)
 2057 0920 0E94 0000 		call checksum
 2058               	.LM371:
 2059 0924 98A7      		std Y+40,r25
 2060               	.LM372:
 2061 0926 89A7      		std Y+41,r24
 2062               	.LM373:
 2063 0928 C801      		movw r24,r16
 2064 092a 4A96      		adiw r24,26
 2065 092c BE01      		movw r22,r28
 2066 092e 0E94 0000 		call enc28j60PacketSend
 2067               	/* epilogue start */
 2068               	.LM374:
 2069 0932 DF91      		pop r29
 2070 0934 CF91      		pop r28
 2071               	.LVL139:
 2072 0936 1F91      		pop r17
 2073 0938 0F91      		pop r16
 2074 093a FF90      		pop r15
 2075 093c EF90      		pop r14
 2076               	.LVL140:
 2077 093e DF90      		pop r13
 2078               	.LVL141:
 2079 0940 0895      		ret
 2080               	.LFE34:
 2082               	.global	make_tcp_synack_from_syn
 2084               	make_tcp_synack_from_syn:
 2085               	.LFB35:
 2086               	.LM375:
 2087               	.LVL142:
 2088 0942 CF93      		push r28
 2089 0944 DF93      		push r29
 2090               	/* prologue: function */
 2091               	/* frame size = 0 */
 2092 0946 EC01      		movw r28,r24
 2093               	.LM376:
 2094 0948 FC01      		movw r30,r24
 2095 094a A0E0      		ldi r26,lo8(macaddr)
 2096 094c B0E0      		ldi r27,hi8(macaddr)
 2097               	.L206:
 2098               	.LBB285:
 2099               	.LBB286:
 2100               	.LM377:
 2101 094e 8681      		ldd r24,Z+6
 2102               	.LVL143:
 2103 0950 8083      		st Z,r24
 2104               	.LM378:
 2105 0952 8D91      		ld r24,X+
 2106 0954 8683      		std Z+6,r24
 2107 0956 3196      		adiw r30,1
 2108               	.LM379:
 2109 0958 80E0      		ldi r24,hi8(macaddr+6)
 2110 095a A030      		cpi r26,lo8(macaddr+6)
 2111 095c B807      		cpc r27,r24
 2112 095e 01F4      		brne .L206
 2113               	.LBE286:
 2114               	.LBE285:
 2115               	.LM380:
 2116 0960 188A      		std Y+16,__zero_reg__
 2117               	.LM381:
 2118 0962 8CE2      		ldi r24,lo8(44)
 2119 0964 898B      		std Y+17,r24
 2120               	.LM382:
 2121 0966 CE01      		movw r24,r28
 2122 0968 0E94 0000 		call make_ip
 2123               	.LM383:
 2124 096c 82E1      		ldi r24,lo8(18)
 2125 096e 8FA7      		std Y+47,r24
 2126               	.LM384:
 2127 0970 CE01      		movw r24,r28
 2128 0972 61E0      		ldi r22,lo8(1)
 2129 0974 70E0      		ldi r23,hi8(1)
 2130 0976 40E0      		ldi r20,lo8(0)
 2131 0978 0E94 0000 		call make_tcphead
 2132               	.LM385:
 2133 097c 1EA2      		std Y+38,__zero_reg__
 2134               	.LM386:
 2135 097e 1FA2      		std Y+39,__zero_reg__
 2136               	.LM387:
 2137 0980 8091 0000 		lds r24,seqnum
 2138 0984 88A7      		std Y+40,r24
 2139               	.LM388:
 2140 0986 19A6      		std Y+41,__zero_reg__
 2141               	.LM389:
 2142 0988 8D5F      		subi r24,lo8(-(3))
 2143 098a 8093 0000 		sts seqnum,r24
 2144               	.LM390:
 2145 098e 82E0      		ldi r24,lo8(2)
 2146 0990 8EAB      		std Y+54,r24
 2147               	.LM391:
 2148 0992 84E0      		ldi r24,lo8(4)
 2149 0994 8FAB      		std Y+55,r24
 2150               	.LM392:
 2151 0996 95E0      		ldi r25,lo8(5)
 2152 0998 98AF      		std Y+56,r25
 2153               	.LM393:
 2154 099a 19AE      		std Y+57,__zero_reg__
 2155               	.LM394:
 2156 099c 80E6      		ldi r24,lo8(96)
 2157 099e 8EA7      		std Y+46,r24
 2158               	.LM395:
 2159 09a0 98AB      		std Y+48,r25
 2160               	.LM396:
 2161 09a2 88E7      		ldi r24,lo8(120)
 2162 09a4 89AB      		std Y+49,r24
 2163               	.LM397:
 2164 09a6 CE01      		movw r24,r28
 2165 09a8 4A96      		adiw r24,26
 2166 09aa 60E2      		ldi r22,lo8(32)
 2167 09ac 70E0      		ldi r23,hi8(32)
 2168 09ae 42E0      		ldi r20,lo8(2)
 2169 09b0 0E94 0000 		call checksum
 2170               	.LM398:
 2171 09b4 9AAB      		std Y+50,r25
 2172               	.LM399:
 2173 09b6 8BAB      		std Y+51,r24
 2174               	.LM400:
 2175 09b8 8AE3      		ldi r24,lo8(58)
 2176 09ba 90E0      		ldi r25,hi8(58)
 2177 09bc BE01      		movw r22,r28
 2178 09be 0E94 0000 		call enc28j60PacketSend
 2179               	/* epilogue start */
 2180               	.LM401:
 2181 09c2 DF91      		pop r29
 2182 09c4 CF91      		pop r28
 2183               	.LVL144:
 2184 09c6 0895      		ret
 2185               	.LFE35:
 2187               	.global	get_tcp_data_len
 2189               	get_tcp_data_len:
 2190               	.LFB36:
 2191               	.LM402:
 2192               	.LVL145:
 2193               	/* prologue: function */
 2194               	/* frame size = 0 */
 2195 09c8 FC01      		movw r30,r24
 2196               	.LM403:
 2197 09ca 9089      		ldd r25,Z+16
 2198 09cc 80E0      		ldi r24,lo8(0)
 2199               	.LVL146:
 2200 09ce 2189      		ldd r18,Z+17
 2201 09d0 422F      		mov r20,r18
 2202               	.LVL147:
 2203 09d2 50E0      		ldi r21,lo8(0)
 2204               	.LVL148:
 2205 09d4 482B      		or r20,r24
 2206 09d6 592B      		or r21,r25
 2207               	.LVL149:
 2208               	.LM404:
 2209 09d8 26A5      		ldd r18,Z+46
 2210 09da 822F      		mov r24,r18
 2211 09dc 8295      		swap r24
 2212 09de 8F70      		andi r24,lo8(15)
 2213 09e0 90E0      		ldi r25,lo8(0)
 2214 09e2 880F      		lsl r24
 2215 09e4 991F      		rol r25
 2216 09e6 880F      		lsl r24
 2217 09e8 991F      		rol r25
 2218 09ea 481B      		sub r20,r24
 2219 09ec 590B      		sbc r21,r25
 2220               	.LM405:
 2221 09ee 4451      		subi r20,lo8(-(-20))
 2222 09f0 5040      		sbci r21,hi8(-(-20))
 2223 09f2 57FF      		sbrs r21,7
 2224 09f4 00C0      		rjmp .L210
 2225 09f6 40E0      		ldi r20,lo8(0)
 2226 09f8 50E0      		ldi r21,hi8(0)
 2227               	.L210:
 2228               	.LM406:
 2229 09fa CA01      		movw r24,r20
 2230               	.LVL150:
 2231               	/* epilogue start */
 2232 09fc 0895      		ret
 2233               	.LFE36:
 2235               	.global	fill_tcp_data_p
 2237               	fill_tcp_data_p:
 2238               	.LFB37:
 2239               	.LM407:
 2240               	.LVL151:
 2241               	/* prologue: function */
 2242               	/* frame size = 0 */
 2243               	.LM408:
 2244 09fe 6A5C      		subi r22,lo8(-(54))
 2245 0a00 7F4F      		sbci r23,hi8(-(54))
 2246               	.LVL152:
 2247 0a02 DC01      		movw r26,r24
 2248 0a04 A60F      		add r26,r22
 2249 0a06 B71F      		adc r27,r23
 2250 0a08 6653      		subi r22,lo8(-(-54))
 2251 0a0a 7040      		sbci r23,hi8(-(-54))
 2252 0a0c 00C0      		rjmp .L213
 2253               	.LVL153:
 2254               	.L214:
 2255               	.LM409:
 2256 0a0e 8D93      		st X+,r24
 2257               	.LM410:
 2258 0a10 6F5F      		subi r22,lo8(-(1))
 2259 0a12 7F4F      		sbci r23,hi8(-(1))
 2260               	.LVL154:
 2261               	.L213:
 2262 0a14 FA01      		movw r30,r20
 2263               	.LBB287:
 2264               	.LM411:
 2265 0a16 4F5F      		subi r20,lo8(-(1))
 2266 0a18 5F4F      		sbci r21,hi8(-(1))
 2267               	/* #APP */
 2268               	 ;  463 "ip_arp_udp_tcp.c" 1
 2269 0a1a 8491      		lpm r24, Z
 2270               		
 2271               	 ;  0 "" 2
 2272               	.LVL155:
 2273               	/* #NOAPP */
 2274               	.LBE287:
 2275 0a1c 8823      		tst r24
 2276 0a1e 01F4      		brne .L214
 2277               	.LM412:
 2278 0a20 CB01      		movw r24,r22
 2279               	.LVL156:
 2280               	/* epilogue start */
 2281 0a22 0895      		ret
 2282               	.LFE37:
 2284               	.global	fill_tcp_data_len
 2286               	fill_tcp_data_len:
 2287               	.LFB38:
 2288               	.LM413:
 2289               	.LVL157:
 2290               	/* prologue: function */
 2291               	/* frame size = 0 */
 2292 0a24 DA01      		movw r26,r20
 2293               	.LM414:
 2294 0a26 6A5C      		subi r22,lo8(-(54))
 2295 0a28 7F4F      		sbci r23,hi8(-(54))
 2296               	.LVL158:
 2297 0a2a FC01      		movw r30,r24
 2298 0a2c E60F      		add r30,r22
 2299 0a2e F71F      		adc r31,r23
 2300 0a30 6653      		subi r22,lo8(-(-54))
 2301 0a32 7040      		sbci r23,hi8(-(-54))
 2302 0a34 922F      		mov r25,r18
 2303 0a36 00C0      		rjmp .L217
 2304               	.LVL159:
 2305               	.L218:
 2306               	.LM415:
 2307 0a38 8D91      		ld r24,X+
 2308               	.LVL160:
 2309 0a3a 8193      		st Z+,r24
 2310               	.LM416:
 2311 0a3c 9150      		subi r25,lo8(-(-1))
 2312               	.LVL161:
 2313               	.L217:
 2314               	.LM417:
 2315 0a3e 9923      		tst r25
 2316 0a40 01F4      		brne .L218
 2317 0a42 CB01      		movw r24,r22
 2318               	.LVL162:
 2319 0a44 820F      		add r24,r18
 2320 0a46 911D      		adc r25,__zero_reg__
 2321               	/* epilogue start */
 2322               	.LM418:
 2323 0a48 0895      		ret
 2324               	.LFE38:
 2326               	.global	make_tcp_ack_from_any
 2328               	make_tcp_ack_from_any:
 2329               	.LFB40:
 2330               	.LM419:
 2331               	.LVL163:
 2332 0a4a CF93      		push r28
 2333 0a4c DF93      		push r29
 2334               	/* prologue: function */
 2335               	/* frame size = 0 */
 2336 0a4e EC01      		movw r28,r24
 2337               	.LM420:
 2338 0a50 FC01      		movw r30,r24
 2339 0a52 A0E0      		ldi r26,lo8(macaddr)
 2340 0a54 B0E0      		ldi r27,hi8(macaddr)
 2341               	.L221:
 2342               	.LBB288:
 2343               	.LBB289:
 2344               	.LM421:
 2345 0a56 8681      		ldd r24,Z+6
 2346               	.LVL164:
 2347 0a58 8083      		st Z,r24
 2348               	.LM422:
 2349 0a5a 8D91      		ld r24,X+
 2350 0a5c 8683      		std Z+6,r24
 2351 0a5e 3196      		adiw r30,1
 2352               	.LM423:
 2353 0a60 80E0      		ldi r24,hi8(macaddr+6)
 2354 0a62 A030      		cpi r26,lo8(macaddr+6)
 2355 0a64 B807      		cpc r27,r24
 2356 0a66 01F4      		brne .L221
 2357               	.LBE289:
 2358               	.LBE288:
 2359               	.LM424:
 2360 0a68 842F      		mov r24,r20
 2361 0a6a 8061      		ori r24,lo8(16)
 2362 0a6c 8FA7      		std Y+47,r24
 2363               	.LM425:
 2364 0a6e 4430      		cpi r20,lo8(4)
 2365 0a70 01F0      		breq .L224
 2366               	.L222:
 2367               	.LM426:
 2368 0a72 6115      		cp r22,__zero_reg__
 2369 0a74 7105      		cpc r23,__zero_reg__
 2370 0a76 01F4      		brne .L224
 2371 0a78 61E0      		ldi r22,lo8(1)
 2372 0a7a 70E0      		ldi r23,hi8(1)
 2373               	.LVL165:
 2374               	.L224:
 2375               	.LM427:
 2376 0a7c CE01      		movw r24,r28
 2377 0a7e 41E0      		ldi r20,lo8(1)
 2378               	.LVL166:
 2379 0a80 0E94 0000 		call make_tcphead
 2380               	.LVL167:
 2381               	.LM428:
 2382 0a84 188A      		std Y+16,__zero_reg__
 2383               	.LM429:
 2384 0a86 88E2      		ldi r24,lo8(40)
 2385 0a88 898B      		std Y+17,r24
 2386               	.LM430:
 2387 0a8a CE01      		movw r24,r28
 2388 0a8c 0E94 0000 		call make_ip
 2389               	.LM431:
 2390 0a90 84E0      		ldi r24,lo8(4)
 2391 0a92 88AB      		std Y+48,r24
 2392               	.LM432:
 2393 0a94 19AA      		std Y+49,__zero_reg__
 2394               	.LM433:
 2395 0a96 CE01      		movw r24,r28
 2396 0a98 4A96      		adiw r24,26
 2397 0a9a 6CE1      		ldi r22,lo8(28)
 2398 0a9c 70E0      		ldi r23,hi8(28)
 2399 0a9e 42E0      		ldi r20,lo8(2)
 2400 0aa0 0E94 0000 		call checksum
 2401               	.LM434:
 2402 0aa4 9AAB      		std Y+50,r25
 2403               	.LM435:
 2404 0aa6 8BAB      		std Y+51,r24
 2405               	.LM436:
 2406 0aa8 86E3      		ldi r24,lo8(54)
 2407 0aaa 90E0      		ldi r25,hi8(54)
 2408 0aac BE01      		movw r22,r28
 2409 0aae 0E94 0000 		call enc28j60PacketSend
 2410               	/* epilogue start */
 2411               	.LM437:
 2412 0ab2 DF91      		pop r29
 2413 0ab4 CF91      		pop r28
 2414               	.LVL168:
 2415 0ab6 0895      		ret
 2416               	.LFE40:
 2418               	.global	make_tcp_ack_with_data_noflags
 2420               	make_tcp_ack_with_data_noflags:
 2421               	.LFB41:
 2422               	.LM438:
 2423               	.LVL169:
 2424 0ab8 EF92      		push r14
 2425 0aba FF92      		push r15
 2426 0abc 0F93      		push r16
 2427 0abe 1F93      		push r17
 2428               	/* prologue: function */
 2429               	/* frame size = 0 */
 2430 0ac0 8C01      		movw r16,r24
 2431 0ac2 7B01      		movw r14,r22
 2432               	.LM439:
 2433 0ac4 CB01      		movw r24,r22
 2434               	.LVL170:
 2435 0ac6 8896      		adiw r24,40
 2436               	.LM440:
 2437 0ac8 F801      		movw r30,r16
 2438 0aca 908B      		std Z+16,r25
 2439               	.LVL171:
 2440               	.LM441:
 2441 0acc 818B      		std Z+17,r24
 2442               	.LM442:
 2443 0ace C801      		movw r24,r16
 2444               	.LVL172:
 2445 0ad0 0E94 0000 		call fill_ip_hdr_checksum
 2446               	.LVL173:
 2447               	.LM443:
 2448 0ad4 F801      		movw r30,r16
 2449 0ad6 12AA      		std Z+50,__zero_reg__
 2450               	.LM444:
 2451 0ad8 13AA      		std Z+51,__zero_reg__
 2452               	.LM445:
 2453 0ada 8CE1      		ldi r24,lo8(28)
 2454 0adc 90E0      		ldi r25,hi8(28)
 2455 0ade E80E      		add r14,r24
 2456 0ae0 F91E      		adc r15,r25
 2457 0ae2 C801      		movw r24,r16
 2458 0ae4 4A96      		adiw r24,26
 2459 0ae6 B701      		movw r22,r14
 2460 0ae8 42E0      		ldi r20,lo8(2)
 2461 0aea 0E94 0000 		call checksum
 2462               	.LM446:
 2463 0aee F801      		movw r30,r16
 2464 0af0 92AB      		std Z+50,r25
 2465               	.LM447:
 2466 0af2 83AB      		std Z+51,r24
 2467               	.LM448:
 2468 0af4 C701      		movw r24,r14
 2469 0af6 4A96      		adiw r24,26
 2470 0af8 B801      		movw r22,r16
 2471 0afa 0E94 0000 		call enc28j60PacketSend
 2472               	/* epilogue start */
 2473               	.LM449:
 2474 0afe 1F91      		pop r17
 2475 0b00 0F91      		pop r16
 2476               	.LVL174:
 2477 0b02 FF90      		pop r15
 2478 0b04 EF90      		pop r14
 2479               	.LVL175:
 2480 0b06 0895      		ret
 2481               	.LFE41:
 2483               	.global	www_server_reply
 2485               	www_server_reply:
 2486               	.LFB42:
 2487               	.LM450:
 2488               	.LVL176:
 2489 0b08 EF92      		push r14
 2490 0b0a FF92      		push r15
 2491 0b0c 0F93      		push r16
 2492 0b0e 1F93      		push r17
 2493               	/* prologue: function */
 2494               	/* frame size = 0 */
 2495 0b10 8C01      		movw r16,r24
 2496 0b12 7B01      		movw r14,r22
 2497               	.LM451:
 2498 0b14 6091 0000 		lds r22,info_data_len
 2499 0b18 7091 0000 		lds r23,(info_data_len)+1
 2500               	.LVL177:
 2501 0b1c 40E0      		ldi r20,lo8(0)
 2502 0b1e 0E94 0000 		call make_tcp_ack_from_any
 2503               	.LVL178:
 2504               	.LM452:
 2505 0b22 89E1      		ldi r24,lo8(25)
 2506 0b24 F801      		movw r30,r16
 2507 0b26 87A7      		std Z+47,r24
 2508               	.LM453:
 2509 0b28 C801      		movw r24,r16
 2510 0b2a B701      		movw r22,r14
 2511 0b2c 0E94 0000 		call make_tcp_ack_with_data_noflags
 2512               	/* epilogue start */
 2513               	.LM454:
 2514 0b30 1F91      		pop r17
 2515 0b32 0F91      		pop r16
 2516               	.LVL179:
 2517 0b34 FF90      		pop r15
 2518 0b36 EF90      		pop r14
 2519               	.LVL180:
 2520 0b38 0895      		ret
 2521               	.LFE42:
 2523               	.global	fill_buf_p
 2525               	fill_buf_p:
 2526               	.LFB43:
 2527               	.LM455:
 2528               	.LVL181:
 2529               	/* prologue: function */
 2530               	/* frame size = 0 */
 2531 0b3a DC01      		movw r26,r24
 2532 0b3c FA01      		movw r30,r20
 2533 0b3e 00C0      		rjmp .L232
 2534               	.LVL182:
 2535               	.L233:
 2536               	.LBB290:
 2537               	.LM456:
 2538               	/* #APP */
 2539               	 ;  579 "ip_arp_udp_tcp.c" 1
 2540 0b40 8491      		lpm r24, Z
 2541               		
 2542               	 ;  0 "" 2
 2543               	/* #NOAPP */
 2544               	.LBE290:
 2545 0b42 8D93      		st X+,r24
 2546               	.LM457:
 2547 0b44 3196      		adiw r30,1
 2548               	.LM458:
 2549 0b46 6150      		subi r22,lo8(-(-1))
 2550 0b48 7040      		sbci r23,hi8(-(-1))
 2551               	.LVL183:
 2552               	.L232:
 2553               	.LM459:
 2554 0b4a 6115      		cp r22,__zero_reg__
 2555 0b4c 7105      		cpc r23,__zero_reg__
 2556 0b4e 01F4      		brne .L233
 2557               	/* epilogue start */
 2558               	.LM460:
 2559 0b50 0895      		ret
 2560               	.LFE43:
 2562               	.global	send_udp_prepare
 2564               	send_udp_prepare:
 2565               	.LFB44:
 2566               	.LM461:
 2567               	.LVL184:
 2568 0b52 FF92      		push r15
 2569 0b54 0F93      		push r16
 2570 0b56 1F93      		push r17
 2571 0b58 CF93      		push r28
 2572 0b5a DF93      		push r29
 2573               	/* prologue: function */
 2574               	/* frame size = 0 */
 2575 0b5c EC01      		movw r28,r24
 2576 0b5e F62E      		mov r15,r22
 2577 0b60 072F      		mov r16,r23
 2578               	.LVL185:
 2579 0b62 BA01      		movw r22,r20
 2580               	.LVL186:
 2581 0b64 122F      		mov r17,r18
 2582 0b66 932F      		mov r25,r19
 2583               	.LVL187:
 2584               	.LM462:
 2585 0b68 AE01      		movw r20,r28
 2586               	.LVL188:
 2587 0b6a 9E01      		movw r18,r28
 2588               	.LVL189:
 2589 0b6c A0E0      		ldi r26,lo8(0)
 2590 0b6e B0E0      		ldi r27,hi8(0)
 2591               	.LVL190:
 2592               	.L236:
 2593               	.LM463:
 2594 0b70 FD01      		movw r30,r26
 2595 0b72 E050      		subi r30,lo8(-(gwmacaddr))
 2596 0b74 F040      		sbci r31,hi8(-(gwmacaddr))
 2597 0b76 8081      		ld r24,Z
 2598 0b78 F901      		movw r30,r18
 2599 0b7a 8083      		st Z,r24
 2600               	.LM464:
 2601 0b7c FD01      		movw r30,r26
 2602 0b7e E050      		subi r30,lo8(-(macaddr))
 2603 0b80 F040      		sbci r31,hi8(-(macaddr))
 2604 0b82 8081      		ld r24,Z
 2605 0b84 F901      		movw r30,r18
 2606 0b86 8683      		std Z+6,r24
 2607 0b88 1196      		adiw r26,1
 2608 0b8a 2F5F      		subi r18,lo8(-(1))
 2609 0b8c 3F4F      		sbci r19,hi8(-(1))
 2610               	.LM465:
 2611 0b8e A630      		cpi r26,6
 2612 0b90 B105      		cpc r27,__zero_reg__
 2613 0b92 01F4      		brne .L236
 2614               	.LM466:
 2615 0b94 88E0      		ldi r24,lo8(8)
 2616 0b96 8C87      		std Y+12,r24
 2617               	.LM467:
 2618 0b98 1D86      		std Y+13,__zero_reg__
 2619 0b9a DE01      		movw r26,r28
 2620 0b9c E0E0      		ldi r30,lo8(iphdr)
 2621 0b9e F0E0      		ldi r31,hi8(iphdr)
 2622               	.LVL191:
 2623               	.L237:
 2624               	.LBB291:
 2625               	.LBB292:
 2626               	.LBB293:
 2627               	.LM468:
 2628               	/* #APP */
 2629               	 ;  579 "ip_arp_udp_tcp.c" 1
 2630 0ba0 8491      		lpm r24, Z
 2631               		
 2632               	 ;  0 "" 2
 2633               	.LVL192:
 2634               	/* #NOAPP */
 2635               	.LBE293:
 2636 0ba2 1E96      		adiw r26,14
 2637 0ba4 8C93      		st X,r24
 2638 0ba6 1E97      		sbiw r26,14
 2639               	.LM469:
 2640 0ba8 3196      		adiw r30,1
 2641 0baa 1196      		adiw r26,1
 2642               	.LM470:
 2643 0bac 80E0      		ldi r24,hi8(iphdr+9)
 2644 0bae E030      		cpi r30,lo8(iphdr+9)
 2645 0bb0 F807      		cpc r31,r24
 2646               	.LVL193:
 2647 0bb2 01F4      		brne .L237
 2648               	.LBE292:
 2649               	.LBE291:
 2650               	.LM471:
 2651 0bb4 188A      		std Y+16,__zero_reg__
 2652               	.LM472:
 2653 0bb6 81E1      		ldi r24,lo8(17)
 2654 0bb8 8F8B      		std Y+23,r24
 2655 0bba A0E0      		ldi r26,lo8(0)
 2656 0bbc B0E0      		ldi r27,hi8(0)
 2657               	.L238:
 2658               	.LM473:
 2659 0bbe FB01      		movw r30,r22
 2660               	.LVL194:
 2661 0bc0 EA0F      		add r30,r26
 2662 0bc2 FB1F      		adc r31,r27
 2663 0bc4 8081      		ld r24,Z
 2664 0bc6 FA01      		movw r30,r20
 2665 0bc8 868F      		std Z+30,r24
 2666               	.LM474:
 2667 0bca FD01      		movw r30,r26
 2668 0bcc E050      		subi r30,lo8(-(ipaddr))
 2669 0bce F040      		sbci r31,hi8(-(ipaddr))
 2670 0bd0 8081      		ld r24,Z
 2671 0bd2 FA01      		movw r30,r20
 2672 0bd4 828F      		std Z+26,r24
 2673 0bd6 1196      		adiw r26,1
 2674 0bd8 4F5F      		subi r20,lo8(-(1))
 2675 0bda 5F4F      		sbci r21,hi8(-(1))
 2676               	.LM475:
 2677 0bdc A430      		cpi r26,4
 2678 0bde B105      		cpc r27,__zero_reg__
 2679 0be0 01F4      		brne .L238
 2680               	.LM476:
 2681 0be2 9CA3      		std Y+36,r25
 2682               	.LM477:
 2683 0be4 1DA3      		std Y+37,r17
 2684               	.LM478:
 2685 0be6 0AA3      		std Y+34,r16
 2686               	.LM479:
 2687 0be8 FBA2      		std Y+35,r15
 2688               	.LM480:
 2689 0bea 1EA2      		std Y+38,__zero_reg__
 2690               	.LM481:
 2691 0bec 18A6      		std Y+40,__zero_reg__
 2692               	.LM482:
 2693 0bee 19A6      		std Y+41,__zero_reg__
 2694               	/* epilogue start */
 2695               	.LM483:
 2696 0bf0 DF91      		pop r29
 2697 0bf2 CF91      		pop r28
 2698               	.LVL195:
 2699 0bf4 1F91      		pop r17
 2700               	.LVL196:
 2701 0bf6 0F91      		pop r16
 2702               	.LVL197:
 2703 0bf8 FF90      		pop r15
 2704               	.LVL198:
 2705 0bfa 0895      		ret
 2706               	.LFE44:
 2708               	.global	send_udp_transmit
 2710               	send_udp_transmit:
 2711               	.LFB45:
 2712               	.LM484:
 2713               	.LVL199:
 2714 0bfc EF92      		push r14
 2715 0bfe FF92      		push r15
 2716 0c00 0F93      		push r16
 2717 0c02 1F93      		push r17
 2718               	/* prologue: function */
 2719               	/* frame size = 0 */
 2720 0c04 7C01      		movw r14,r24
 2721 0c06 062F      		mov r16,r22
 2722               	.LM485:
 2723 0c08 045E      		subi r16,lo8(-(28))
 2724               	.LVL200:
 2725 0c0a FC01      		movw r30,r24
 2726 0c0c 018B      		std Z+17,r16
 2727               	.LM486:
 2728 0c0e 0E94 0000 		call fill_ip_hdr_checksum
 2729               	.LVL201:
 2730               	.LM487:
 2731 0c12 0451      		subi r16,lo8(-(-20))
 2732 0c14 F701      		movw r30,r14
 2733 0c16 07A3      		std Z+39,r16
 2734 0c18 0850      		subi r16,lo8(-(-8))
 2735               	.LM488:
 2736 0c1a 10E0      		ldi r17,lo8(0)
 2737 0c1c 005F      		subi r16,lo8(-(16))
 2738 0c1e 1F4F      		sbci r17,hi8(-(16))
 2739               	.LVL202:
 2740 0c20 C701      		movw r24,r14
 2741 0c22 4A96      		adiw r24,26
 2742 0c24 B801      		movw r22,r16
 2743 0c26 41E0      		ldi r20,lo8(1)
 2744 0c28 0E94 0000 		call checksum
 2745               	.LM489:
 2746 0c2c F701      		movw r30,r14
 2747 0c2e 90A7      		std Z+40,r25
 2748               	.LM490:
 2749 0c30 81A7      		std Z+41,r24
 2750               	.LM491:
 2751 0c32 C801      		movw r24,r16
 2752 0c34 4A96      		adiw r24,26
 2753 0c36 B701      		movw r22,r14
 2754 0c38 0E94 0000 		call enc28j60PacketSend
 2755               	/* epilogue start */
 2756               	.LM492:
 2757 0c3c 1F91      		pop r17
 2758 0c3e 0F91      		pop r16
 2759 0c40 FF90      		pop r15
 2760 0c42 EF90      		pop r14
 2761               	.LVL203:
 2762 0c44 0895      		ret
 2763               	.LFE45:
 2765               	.global	send_udp
 2767               	send_udp:
 2768               	.LFB46:
 2769               	.LM493:
 2770               	.LVL204:
 2771 0c46 AF92      		push r10
 2772 0c48 BF92      		push r11
 2773 0c4a DF92      		push r13
 2774 0c4c EF92      		push r14
 2775               	.LVL205:
 2776 0c4e FF92      		push r15
 2777 0c50 0F93      		push r16
 2778               	.LVL206:
 2779 0c52 1F93      		push r17
 2780 0c54 CF93      		push r28
 2781 0c56 DF93      		push r29
 2782               	/* prologue: function */
 2783               	/* frame size = 0 */
 2784 0c58 EC01      		movw r28,r24
 2785 0c5a 5B01      		movw r10,r22
 2786 0c5c D42E      		mov r13,r20
 2787 0c5e A801      		movw r20,r16
 2788               	.LVL207:
 2789               	.LM494:
 2790 0c60 B901      		movw r22,r18
 2791               	.LVL208:
 2792 0c62 9701      		movw r18,r14
 2793               	.LVL209:
 2794 0c64 0E94 0000 		call send_udp_prepare
 2795               	.LVL210:
 2796 0c68 6D2D      		mov r22,r13
 2797 0c6a 6D3D      		cpi r22,lo8(-35)
 2798 0c6c 00F0      		brlo .L246
 2799               	.LVL211:
 2800 0c6e 6CED      		ldi r22,lo8(-36)
 2801               	.LVL212:
 2802               	.L246:
 2803 0c70 DE01      		movw r26,r28
 2804 0c72 9A96      		adiw r26,42
 2805 0c74 20E0      		ldi r18,lo8(0)
 2806 0c76 30E0      		ldi r19,hi8(0)
 2807 0c78 00C0      		rjmp .L247
 2808               	.L248:
 2809               	.LM495:
 2810 0c7a F501      		movw r30,r10
 2811 0c7c E20F      		add r30,r18
 2812 0c7e F31F      		adc r31,r19
 2813 0c80 8081      		ld r24,Z
 2814 0c82 8D93      		st X+,r24
 2815 0c84 2F5F      		subi r18,lo8(-(1))
 2816 0c86 3F4F      		sbci r19,hi8(-(1))
 2817               	.L247:
 2818               	.LM496:
 2819 0c88 2617      		cp r18,r22
 2820 0c8a 00F0      		brlo .L248
 2821               	.LM497:
 2822 0c8c CE01      		movw r24,r28
 2823 0c8e 0E94 0000 		call send_udp_transmit
 2824               	.LVL213:
 2825               	/* epilogue start */
 2826               	.LM498:
 2827 0c92 DF91      		pop r29
 2828 0c94 CF91      		pop r28
 2829               	.LVL214:
 2830 0c96 1F91      		pop r17
 2831 0c98 0F91      		pop r16
 2832               	.LVL215:
 2833 0c9a FF90      		pop r15
 2834 0c9c EF90      		pop r14
 2835               	.LVL216:
 2836 0c9e DF90      		pop r13
 2837               	.LVL217:
 2838 0ca0 BF90      		pop r11
 2839 0ca2 AF90      		pop r10
 2840               	.LVL218:
 2841 0ca4 0895      		ret
 2842               	.LFE46:
 2844               	.global	client_arp_whohas
 2846               	client_arp_whohas:
 2847               	.LFB47:
 2848               	.LM499:
 2849               	.LVL219:
 2850 0ca6 CF93      		push r28
 2851 0ca8 DF93      		push r29
 2852               	/* prologue: function */
 2853               	/* frame size = 0 */
 2854 0caa EC01      		movw r28,r24
 2855               	.LM500:
 2856 0cac AC01      		movw r20,r24
 2857 0cae 20E0      		ldi r18,lo8(macaddr)
 2858 0cb0 30E0      		ldi r19,hi8(macaddr)
 2859 0cb2 FC01      		movw r30,r24
 2860 0cb4 D901      		movw r26,r18
 2861               	.LM501:
 2862 0cb6 9FEF      		ldi r25,lo8(-1)
 2863               	.L251:
 2864 0cb8 9083      		st Z,r25
 2865               	.LM502:
 2866 0cba 8D91      		ld r24,X+
 2867               	.LVL220:
 2868 0cbc 8683      		std Z+6,r24
 2869 0cbe 3196      		adiw r30,1
 2870               	.LM503:
 2871 0cc0 80E0      		ldi r24,hi8(macaddr+6)
 2872 0cc2 A030      		cpi r26,lo8(macaddr+6)
 2873 0cc4 B807      		cpc r27,r24
 2874 0cc6 01F4      		brne .L251
 2875               	.LM504:
 2876 0cc8 88E0      		ldi r24,lo8(8)
 2877 0cca 8C87      		std Y+12,r24
 2878               	.LM505:
 2879 0ccc 86E0      		ldi r24,lo8(6)
 2880 0cce 8D87      		std Y+13,r24
 2881 0cd0 DE01      		movw r26,r28
 2882 0cd2 E0E0      		ldi r30,lo8(arpreqhdr)
 2883 0cd4 F0E0      		ldi r31,hi8(arpreqhdr)
 2884               	.LVL221:
 2885               	.L252:
 2886               	.LBB294:
 2887               	.LBB295:
 2888               	.LBB296:
 2889               	.LM506:
 2890               	/* #APP */
 2891               	 ;  579 "ip_arp_udp_tcp.c" 1
 2892 0cd6 8491      		lpm r24, Z
 2893               		
 2894               	 ;  0 "" 2
 2895               	.LVL222:
 2896               	/* #NOAPP */
 2897               	.LBE296:
 2898 0cd8 1E96      		adiw r26,14
 2899 0cda 8C93      		st X,r24
 2900 0cdc 1E97      		sbiw r26,14
 2901               	.LM507:
 2902 0cde 3196      		adiw r30,1
 2903 0ce0 1196      		adiw r26,1
 2904               	.LM508:
 2905 0ce2 80E0      		ldi r24,hi8(arpreqhdr+8)
 2906 0ce4 E030      		cpi r30,lo8(arpreqhdr+8)
 2907 0ce6 F807      		cpc r31,r24
 2908               	.LVL223:
 2909 0ce8 01F4      		brne .L252
 2910               	.L256:
 2911               	.LBE295:
 2912               	.LBE294:
 2913               	.LM509:
 2914 0cea F901      		movw r30,r18
 2915               	.LVL224:
 2916 0cec 8191      		ld r24,Z+
 2917 0cee 9F01      		movw r18,r30
 2918 0cf0 FA01      		movw r30,r20
 2919 0cf2 868B      		std Z+22,r24
 2920               	.LM510:
 2921 0cf4 10A2      		std Z+32,__zero_reg__
 2922 0cf6 4F5F      		subi r20,lo8(-(1))
 2923 0cf8 5F4F      		sbci r21,hi8(-(1))
 2924               	.LM511:
 2925 0cfa F0E0      		ldi r31,hi8(macaddr+6)
 2926 0cfc 2030      		cpi r18,lo8(macaddr+6)
 2927 0cfe 3F07      		cpc r19,r31
 2928 0d00 01F4      		brne .L256
 2929 0d02 DE01      		movw r26,r28
 2930 0d04 5C96      		adiw r26,28
 2931 0d06 20E0      		ldi r18,lo8(0)
 2932 0d08 30E0      		ldi r19,hi8(0)
 2933               	.L254:
 2934               	.LM512:
 2935 0d0a FB01      		movw r30,r22
 2936 0d0c E20F      		add r30,r18
 2937 0d0e F31F      		adc r31,r19
 2938 0d10 8081      		ld r24,Z
 2939 0d12 1A96      		adiw r26,10
 2940 0d14 8C93      		st X,r24
 2941 0d16 1A97      		sbiw r26,10
 2942               	.LM513:
 2943 0d18 F901      		movw r30,r18
 2944 0d1a E050      		subi r30,lo8(-(ipaddr))
 2945 0d1c F040      		sbci r31,hi8(-(ipaddr))
 2946 0d1e 8081      		ld r24,Z
 2947 0d20 8D93      		st X+,r24
 2948 0d22 2F5F      		subi r18,lo8(-(1))
 2949 0d24 3F4F      		sbci r19,hi8(-(1))
 2950               	.LM514:
 2951 0d26 2430      		cpi r18,4
 2952 0d28 3105      		cpc r19,__zero_reg__
 2953 0d2a 01F4      		brne .L254
 2954               	.LM515:
 2955 0d2c 8091 0000 		lds r24,waitgwmac
 2956 0d30 8860      		ori r24,lo8(8)
 2957 0d32 8093 0000 		sts waitgwmac,r24
 2958               	.LM516:
 2959 0d36 8AE2      		ldi r24,lo8(42)
 2960 0d38 90E0      		ldi r25,hi8(42)
 2961 0d3a BE01      		movw r22,r28
 2962               	.LVL225:
 2963 0d3c 0E94 0000 		call enc28j60PacketSend
 2964               	/* epilogue start */
 2965               	.LM517:
 2966 0d40 DF91      		pop r29
 2967 0d42 CF91      		pop r28
 2968               	.LVL226:
 2969 0d44 0895      		ret
 2970               	.LFE47:
 2972               	.global	client_waiting_gw
 2974               	client_waiting_gw:
 2975               	.LFB48:
 2976               	.LM518:
 2977               	/* prologue: function */
 2978               	/* frame size = 0 */
 2979               	.LM519:
 2980 0d46 8091 0000 		lds r24,waitgwmac
 2981 0d4a 8695      		lsr r24
 2982 0d4c 8095      		com r24
 2983               	.LM520:
 2984 0d4e 8170      		andi r24,lo8(1)
 2985               	/* epilogue start */
 2986 0d50 0895      		ret
 2987               	.LFE48:
 2989               	.global	client_store_gw_mac
 2991               	client_store_gw_mac:
 2992               	.LFB49:
 2993               	.LM521:
 2994               	.LVL227:
 2995 0d52 CF93      		push r28
 2996 0d54 DF93      		push r29
 2997               	/* prologue: function */
 2998               	/* frame size = 0 */
 2999               	.LM522:
 3000 0d56 EC01      		movw r28,r24
 3001               	.LVL228:
 3002 0d58 E0E0      		ldi r30,lo8(gwip)
 3003 0d5a F0E0      		ldi r31,hi8(gwip)
 3004 0d5c DC01      		movw r26,r24
 3005               	.L266:
 3006               	.LM523:
 3007 0d5e 5C96      		adiw r26,28
 3008 0d60 9C91      		ld r25,X
 3009 0d62 5C97      		sbiw r26,28
 3010 0d64 8081      		ld r24,Z
 3011 0d66 9817      		cp r25,r24
 3012 0d68 01F0      		breq .L264
 3013 0d6a 80E0      		ldi r24,lo8(0)
 3014 0d6c 00C0      		rjmp .L265
 3015               	.L264:
 3016 0d6e 1196      		adiw r26,1
 3017 0d70 3196      		adiw r30,1
 3018               	.LM524:
 3019 0d72 80E0      		ldi r24,hi8(gwip+4)
 3020 0d74 E030      		cpi r30,lo8(gwip+4)
 3021 0d76 F807      		cpc r31,r24
 3022 0d78 01F4      		brne .L266
 3023 0d7a E0E0      		ldi r30,lo8(gwmacaddr)
 3024 0d7c F0E0      		ldi r31,hi8(gwmacaddr)
 3025               	.L267:
 3026               	.LM525:
 3027 0d7e 8E89      		ldd r24,Y+22
 3028 0d80 8193      		st Z+,r24
 3029 0d82 2196      		adiw r28,1
 3030               	.LM526:
 3031 0d84 80E0      		ldi r24,hi8(gwmacaddr+6)
 3032 0d86 E030      		cpi r30,lo8(gwmacaddr+6)
 3033 0d88 F807      		cpc r31,r24
 3034 0d8a 01F4      		brne .L267
 3035 0d8c 81E0      		ldi r24,lo8(1)
 3036               	.L265:
 3037               	/* epilogue start */
 3038               	.LM527:
 3039 0d8e DF91      		pop r29
 3040 0d90 CF91      		pop r28
 3041 0d92 0895      		ret
 3042               	.LFE49:
 3044               	.global	client_gw_arp_refresh
 3046               	client_gw_arp_refresh:
 3047               	.LFB50:
 3048               	.LM528:
 3049               	/* prologue: function */
 3050               	/* frame size = 0 */
 3051               	.LM529:
 3052 0d94 8091 0000 		lds r24,waitgwmac
 3053 0d98 81FF      		sbrs r24,1
 3054 0d9a 00C0      		rjmp .L273
 3055               	.LM530:
 3056 0d9c 8460      		ori r24,lo8(4)
 3057 0d9e 8093 0000 		sts waitgwmac,r24
 3058               	.L273:
 3059 0da2 0895      		ret
 3060               	.LFE50:
 3062               	.global	client_set_gwip
 3064               	client_set_gwip:
 3065               	.LFB51:
 3066               	.LM531:
 3067               	.LVL229:
 3068               	/* prologue: function */
 3069               	/* frame size = 0 */
 3070 0da4 AC01      		movw r20,r24
 3071               	.LM532:
 3072 0da6 81E0      		ldi r24,lo8(1)
 3073               	.LVL230:
 3074 0da8 8093 0000 		sts waitgwmac,r24
 3075 0dac 20E0      		ldi r18,lo8(0)
 3076 0dae 30E0      		ldi r19,hi8(0)
 3077               	.L275:
 3078               	.LM533:
 3079 0db0 F901      		movw r30,r18
 3080 0db2 E050      		subi r30,lo8(-(gwip))
 3081 0db4 F040      		sbci r31,hi8(-(gwip))
 3082 0db6 DA01      		movw r26,r20
 3083 0db8 A20F      		add r26,r18
 3084 0dba B31F      		adc r27,r19
 3085 0dbc 8C91      		ld r24,X
 3086 0dbe 8083      		st Z,r24
 3087 0dc0 2F5F      		subi r18,lo8(-(1))
 3088 0dc2 3F4F      		sbci r19,hi8(-(1))
 3089               	.LM534:
 3090 0dc4 2430      		cpi r18,4
 3091 0dc6 3105      		cpc r19,__zero_reg__
 3092 0dc8 01F4      		brne .L275
 3093               	/* epilogue start */
 3094               	.LM535:
 3095 0dca 0895      		ret
 3096               	.LFE51:
 3098               	.global	client_tcp_set_serverip
 3100               	client_tcp_set_serverip:
 3101               	.LFB52:
 3102               	.LM536:
 3103               	.LVL231:
 3104               	/* prologue: function */
 3105               	/* frame size = 0 */
 3106 0dcc AC01      		movw r20,r24
 3107               	.LM537:
 3108 0dce 20E0      		ldi r18,lo8(0)
 3109 0dd0 30E0      		ldi r19,hi8(0)
 3110               	.LVL232:
 3111               	.L279:
 3112               	.LM538:
 3113 0dd2 F901      		movw r30,r18
 3114 0dd4 E050      		subi r30,lo8(-(tcpsrvip))
 3115 0dd6 F040      		sbci r31,hi8(-(tcpsrvip))
 3116 0dd8 DA01      		movw r26,r20
 3117 0dda A20F      		add r26,r18
 3118 0ddc B31F      		adc r27,r19
 3119 0dde 8C91      		ld r24,X
 3120 0de0 8083      		st Z,r24
 3121 0de2 2F5F      		subi r18,lo8(-(1))
 3122 0de4 3F4F      		sbci r19,hi8(-(1))
 3123               	.LM539:
 3124 0de6 2430      		cpi r18,4
 3125 0de8 3105      		cpc r19,__zero_reg__
 3126 0dea 01F4      		brne .L279
 3127               	/* epilogue start */
 3128               	.LM540:
 3129 0dec 0895      		ret
 3130               	.LFE52:
 3132               	.global	client_syn
 3134               	client_syn:
 3135               	.LFB53:
 3136               	.LM541:
 3137               	.LVL233:
 3138 0dee FF92      		push r15
 3139 0df0 0F93      		push r16
 3140 0df2 1F93      		push r17
 3141 0df4 CF93      		push r28
 3142 0df6 DF93      		push r29
 3143               	/* prologue: function */
 3144               	/* frame size = 0 */
 3145 0df8 EC01      		movw r28,r24
 3146 0dfa F62E      		mov r15,r22
 3147 0dfc 142F      		mov r17,r20
 3148 0dfe 022F      		mov r16,r18
 3149               	.LM542:
 3150 0e00 AC01      		movw r20,r24
 3151               	.LVL234:
 3152 0e02 DC01      		movw r26,r24
 3153 0e04 20E0      		ldi r18,lo8(0)
 3154 0e06 30E0      		ldi r19,hi8(0)
 3155               	.LVL235:
 3156               	.L283:
 3157               	.LM543:
 3158 0e08 F901      		movw r30,r18
 3159 0e0a E050      		subi r30,lo8(-(gwmacaddr))
 3160 0e0c F040      		sbci r31,hi8(-(gwmacaddr))
 3161 0e0e 8081      		ld r24,Z
 3162               	.LVL236:
 3163 0e10 8C93      		st X,r24
 3164               	.LM544:
 3165 0e12 F901      		movw r30,r18
 3166 0e14 E050      		subi r30,lo8(-(macaddr))
 3167 0e16 F040      		sbci r31,hi8(-(macaddr))
 3168 0e18 8081      		ld r24,Z
 3169 0e1a 1696      		adiw r26,6
 3170 0e1c 8C93      		st X,r24
 3171 0e1e 1697      		sbiw r26,6
 3172 0e20 2F5F      		subi r18,lo8(-(1))
 3173 0e22 3F4F      		sbci r19,hi8(-(1))
 3174 0e24 1196      		adiw r26,1
 3175               	.LM545:
 3176 0e26 2630      		cpi r18,6
 3177 0e28 3105      		cpc r19,__zero_reg__
 3178 0e2a 01F4      		brne .L283
 3179               	.LM546:
 3180 0e2c 88E0      		ldi r24,lo8(8)
 3181 0e2e 8C87      		std Y+12,r24
 3182               	.LM547:
 3183 0e30 1D86      		std Y+13,__zero_reg__
 3184 0e32 DE01      		movw r26,r28
 3185 0e34 E0E0      		ldi r30,lo8(iphdr)
 3186 0e36 F0E0      		ldi r31,hi8(iphdr)
 3187               	.LVL237:
 3188               	.L284:
 3189               	.LBB297:
 3190               	.LBB298:
 3191               	.LBB299:
 3192               	.LM548:
 3193               	/* #APP */
 3194               	 ;  579 "ip_arp_udp_tcp.c" 1
 3195 0e38 8491      		lpm r24, Z
 3196               		
 3197               	 ;  0 "" 2
 3198               	.LVL238:
 3199               	/* #NOAPP */
 3200               	.LBE299:
 3201 0e3a 1E96      		adiw r26,14
 3202 0e3c 8C93      		st X,r24
 3203 0e3e 1E97      		sbiw r26,14
 3204               	.LM549:
 3205 0e40 3196      		adiw r30,1
 3206 0e42 1196      		adiw r26,1
 3207               	.LM550:
 3208 0e44 80E0      		ldi r24,hi8(iphdr+9)
 3209 0e46 E030      		cpi r30,lo8(iphdr+9)
 3210 0e48 F807      		cpc r31,r24
 3211               	.LVL239:
 3212 0e4a 01F4      		brne .L284
 3213               	.LBE298:
 3214               	.LBE297:
 3215               	.LM551:
 3216 0e4c 8CE2      		ldi r24,lo8(44)
 3217 0e4e 898B      		std Y+17,r24
 3218               	.LM552:
 3219 0e50 86E0      		ldi r24,lo8(6)
 3220 0e52 8F8B      		std Y+23,r24
 3221 0e54 20E0      		ldi r18,lo8(0)
 3222 0e56 30E0      		ldi r19,hi8(0)
 3223               	.L285:
 3224               	.LM553:
 3225 0e58 F901      		movw r30,r18
 3226               	.LVL240:
 3227 0e5a E050      		subi r30,lo8(-(tcpsrvip))
 3228 0e5c F040      		sbci r31,hi8(-(tcpsrvip))
 3229 0e5e 8081      		ld r24,Z
 3230 0e60 FA01      		movw r30,r20
 3231 0e62 868F      		std Z+30,r24
 3232               	.LM554:
 3233 0e64 F901      		movw r30,r18
 3234 0e66 E050      		subi r30,lo8(-(ipaddr))
 3235 0e68 F040      		sbci r31,hi8(-(ipaddr))
 3236 0e6a 8081      		ld r24,Z
 3237 0e6c FA01      		movw r30,r20
 3238 0e6e 828F      		std Z+26,r24
 3239 0e70 2F5F      		subi r18,lo8(-(1))
 3240 0e72 3F4F      		sbci r19,hi8(-(1))
 3241 0e74 4F5F      		subi r20,lo8(-(1))
 3242 0e76 5F4F      		sbci r21,hi8(-(1))
 3243               	.LM555:
 3244 0e78 2430      		cpi r18,4
 3245 0e7a 3105      		cpc r19,__zero_reg__
 3246 0e7c 01F4      		brne .L285
 3247               	.LM556:
 3248 0e7e CE01      		movw r24,r28
 3249 0e80 0E94 0000 		call fill_ip_hdr_checksum
 3250               	.LM557:
 3251 0e84 1CA3      		std Y+36,r17
 3252               	.LM558:
 3253 0e86 0DA3      		std Y+37,r16
 3254               	.LM559:
 3255 0e88 8BE0      		ldi r24,lo8(11)
 3256 0e8a 8AA3      		std Y+34,r24
 3257               	.LM560:
 3258 0e8c FBA2      		std Y+35,r15
 3259 0e8e FE01      		movw r30,r28
 3260 0e90 B696      		adiw r30,38
 3261 0e92 80E0      		ldi r24,lo8(0)
 3262               	.LVL241:
 3263               	.L286:
 3264               	.LM561:
 3265 0e94 1192      		st Z+,__zero_reg__
 3266               	.LM562:
 3267 0e96 8F5F      		subi r24,lo8(-(1))
 3268               	.LM563:
 3269 0e98 8830      		cpi r24,lo8(8)
 3270 0e9a 01F4      		brne .L286
 3271               	.LM564:
 3272 0e9c 8091 0000 		lds r24,seqnum
 3273               	.LVL242:
 3274 0ea0 88A7      		std Y+40,r24
 3275               	.LM565:
 3276 0ea2 8D5F      		subi r24,lo8(-(3))
 3277 0ea4 8093 0000 		sts seqnum,r24
 3278               	.LM566:
 3279 0ea8 80E6      		ldi r24,lo8(96)
 3280 0eaa 8EA7      		std Y+46,r24
 3281               	.LM567:
 3282 0eac 92E0      		ldi r25,lo8(2)
 3283 0eae 9FA7      		std Y+47,r25
 3284               	.LM568:
 3285 0eb0 83E0      		ldi r24,lo8(3)
 3286 0eb2 88AB      		std Y+48,r24
 3287               	.LM569:
 3288 0eb4 19AA      		std Y+49,__zero_reg__
 3289               	.LM570:
 3290 0eb6 1AAA      		std Y+50,__zero_reg__
 3291               	.LM571:
 3292 0eb8 1BAA      		std Y+51,__zero_reg__
 3293               	.LM572:
 3294 0eba 1CAA      		std Y+52,__zero_reg__
 3295               	.LM573:
 3296 0ebc 1DAA      		std Y+53,__zero_reg__
 3297               	.LM574:
 3298 0ebe 9EAB      		std Y+54,r25
 3299               	.LM575:
 3300 0ec0 84E0      		ldi r24,lo8(4)
 3301 0ec2 8FAB      		std Y+55,r24
 3302               	.LM576:
 3303 0ec4 98AF      		std Y+56,r25
 3304               	.LM577:
 3305 0ec6 86E2      		ldi r24,lo8(38)
 3306 0ec8 89AF      		std Y+57,r24
 3307               	.LM578:
 3308 0eca CE01      		movw r24,r28
 3309 0ecc 4A96      		adiw r24,26
 3310 0ece 60E2      		ldi r22,lo8(32)
 3311 0ed0 70E0      		ldi r23,hi8(32)
 3312 0ed2 42E0      		ldi r20,lo8(2)
 3313 0ed4 0E94 0000 		call checksum
 3314               	.LM579:
 3315 0ed8 9AAB      		std Y+50,r25
 3316               	.LM580:
 3317 0eda 8BAB      		std Y+51,r24
 3318               	.LM581:
 3319 0edc 8AE3      		ldi r24,lo8(58)
 3320 0ede 90E0      		ldi r25,hi8(58)
 3321 0ee0 BE01      		movw r22,r28
 3322 0ee2 0E94 0000 		call enc28j60PacketSend
 3323               	/* epilogue start */
 3324               	.LM582:
 3325 0ee6 DF91      		pop r29
 3326 0ee8 CF91      		pop r28
 3327               	.LVL243:
 3328 0eea 1F91      		pop r17
 3329               	.LVL244:
 3330 0eec 0F91      		pop r16
 3331               	.LVL245:
 3332 0eee FF90      		pop r15
 3333               	.LVL246:
 3334 0ef0 0895      		ret
 3335               	.LFE53:
 3337               	.global	client_tcp_req
 3339               	client_tcp_req:
 3340               	.LFB54:
 3341               	.LM583:
 3342               	.LVL247:
 3343               	/* prologue: function */
 3344               	/* frame size = 0 */
 3345               	.LM584:
 3346 0ef2 9093 0000 		sts (client_tcp_result_callback)+1,r25
 3347 0ef6 8093 0000 		sts client_tcp_result_callback,r24
 3348               	.LM585:
 3349 0efa 7093 0000 		sts (client_tcp_datafill_callback)+1,r23
 3350 0efe 6093 0000 		sts client_tcp_datafill_callback,r22
 3351               	.LM586:
 3352 0f02 5093 0000 		sts tcp_client_port_h,r21
 3353               	.LVL248:
 3354               	.LM587:
 3355 0f06 4093 0000 		sts tcp_client_port_l,r20
 3356               	.LM588:
 3357 0f0a 81E0      		ldi r24,lo8(1)
 3358               	.LVL249:
 3359 0f0c 8093 0000 		sts tcp_client_state,r24
 3360               	.LM589:
 3361 0f10 8091 0000 		lds r24,tcp_fd
 3362 0f14 8F5F      		subi r24,lo8(-(1))
 3363 0f16 8093 0000 		sts tcp_fd,r24
 3364               	.LM590:
 3365 0f1a 8830      		cpi r24,lo8(8)
 3366 0f1c 00F0      		brlo .L293
 3367               	.LM591:
 3368 0f1e 1092 0000 		sts tcp_fd,__zero_reg__
 3369               	.L293:
 3370               	.LM592:
 3371 0f22 8091 0000 		lds r24,tcp_fd
 3372               	/* epilogue start */
 3373 0f26 0895      		ret
 3374               	.LFE54:
 3376               	.global	client_browse_url
 3378               	client_browse_url:
 3379               	.LFB57:
 3380               	.LM593:
 3381               	.LVL250:
 3382               	/* prologue: function */
 3383               	/* frame size = 0 */
 3384               	.LM594:
 3385 0f28 9093 0000 		sts (client_urlbuf)+1,r25
 3386 0f2c 8093 0000 		sts client_urlbuf,r24
 3387               	.LM595:
 3388 0f30 7093 0000 		sts (client_urlbuf_var)+1,r23
 3389 0f34 6093 0000 		sts client_urlbuf_var,r22
 3390               	.LM596:
 3391 0f38 5093 0000 		sts (client_hoststr)+1,r21
 3392 0f3c 4093 0000 		sts client_hoststr,r20
 3393               	.LM597:
 3394 0f40 1092 0000 		sts browsertype,__zero_reg__
 3395               	.LM598:
 3396 0f44 3093 0000 		sts (client_browser_callback)+1,r19
 3397 0f48 2093 0000 		sts client_browser_callback,r18
 3398               	.LBB300:
 3399               	.LBB301:
 3400               	.LM599:
 3401 0f4c 80E0      		ldi r24,lo8(gs(www_client_internal_result_callback))
 3402 0f4e 90E0      		ldi r25,hi8(gs(www_client_internal_result_callback))
 3403               	.LVL251:
 3404 0f50 9093 0000 		sts (client_tcp_result_callback)+1,r25
 3405 0f54 8093 0000 		sts client_tcp_result_callback,r24
 3406               	.LM600:
 3407 0f58 80E0      		ldi r24,lo8(gs(www_client_internal_datafill_callback))
 3408 0f5a 90E0      		ldi r25,hi8(gs(www_client_internal_datafill_callback))
 3409 0f5c 9093 0000 		sts (client_tcp_datafill_callback)+1,r25
 3410 0f60 8093 0000 		sts client_tcp_datafill_callback,r24
 3411               	.LM601:
 3412 0f64 1092 0000 		sts tcp_client_port_h,__zero_reg__
 3413               	.LM602:
 3414 0f68 80E5      		ldi r24,lo8(80)
 3415 0f6a 8093 0000 		sts tcp_client_port_l,r24
 3416               	.LM603:
 3417 0f6e 81E0      		ldi r24,lo8(1)
 3418 0f70 8093 0000 		sts tcp_client_state,r24
 3419               	.LM604:
 3420 0f74 8091 0000 		lds r24,tcp_fd
 3421 0f78 8F5F      		subi r24,lo8(-(1))
 3422 0f7a 8093 0000 		sts tcp_fd,r24
 3423               	.LM605:
 3424 0f7e 8830      		cpi r24,lo8(8)
 3425 0f80 00F0      		brlo .L296
 3426               	.LM606:
 3427 0f82 1092 0000 		sts tcp_fd,__zero_reg__
 3428               	.L296:
 3429               	.LBE301:
 3430               	.LBE300:
 3431               	.LM607:
 3432 0f86 8091 0000 		lds r24,tcp_fd
 3433 0f8a 8093 0000 		sts www_fd,r24
 3434               	/* epilogue start */
 3435               	.LM608:
 3436 0f8e 0895      		ret
 3437               	.LFE57:
 3439               	.global	client_http_post
 3441               	client_http_post:
 3442               	.LFB58:
 3443               	.LM609:
 3444               	.LVL252:
 3445 0f90 0F93      		push r16
 3446               	.LVL253:
 3447 0f92 1F93      		push r17
 3448               	/* prologue: function */
 3449               	/* frame size = 0 */
 3450               	.LM610:
 3451 0f94 9093 0000 		sts (client_urlbuf)+1,r25
 3452 0f98 8093 0000 		sts client_urlbuf,r24
 3453               	.LM611:
 3454 0f9c 7093 0000 		sts (client_hoststr)+1,r23
 3455 0fa0 6093 0000 		sts client_hoststr,r22
 3456               	.LM612:
 3457 0fa4 5093 0000 		sts (client_additionalheaderline)+1,r21
 3458 0fa8 4093 0000 		sts client_additionalheaderline,r20
 3459               	.LM613:
 3460 0fac 3093 0000 		sts (client_postval)+1,r19
 3461 0fb0 2093 0000 		sts client_postval,r18
 3462               	.LM614:
 3463 0fb4 21E0      		ldi r18,lo8(1)
 3464               	.LVL254:
 3465 0fb6 2093 0000 		sts browsertype,r18
 3466               	.LM615:
 3467 0fba 1093 0000 		sts (client_browser_callback)+1,r17
 3468 0fbe 0093 0000 		sts client_browser_callback,r16
 3469               	.LVL255:
 3470               	.LBB302:
 3471               	.LBB303:
 3472               	.LM616:
 3473 0fc2 80E0      		ldi r24,lo8(gs(www_client_internal_result_callback))
 3474 0fc4 90E0      		ldi r25,hi8(gs(www_client_internal_result_callback))
 3475               	.LVL256:
 3476 0fc6 9093 0000 		sts (client_tcp_result_callback)+1,r25
 3477 0fca 8093 0000 		sts client_tcp_result_callback,r24
 3478               	.LM617:
 3479 0fce 80E0      		ldi r24,lo8(gs(www_client_internal_datafill_callback))
 3480 0fd0 90E0      		ldi r25,hi8(gs(www_client_internal_datafill_callback))
 3481 0fd2 9093 0000 		sts (client_tcp_datafill_callback)+1,r25
 3482 0fd6 8093 0000 		sts client_tcp_datafill_callback,r24
 3483               	.LM618:
 3484 0fda 1092 0000 		sts tcp_client_port_h,__zero_reg__
 3485               	.LM619:
 3486 0fde 80E5      		ldi r24,lo8(80)
 3487 0fe0 8093 0000 		sts tcp_client_port_l,r24
 3488               	.LM620:
 3489 0fe4 2093 0000 		sts tcp_client_state,r18
 3490               	.LM621:
 3491 0fe8 8091 0000 		lds r24,tcp_fd
 3492 0fec 8F5F      		subi r24,lo8(-(1))
 3493 0fee 8093 0000 		sts tcp_fd,r24
 3494               	.LM622:
 3495 0ff2 8830      		cpi r24,lo8(8)
 3496 0ff4 00F0      		brlo .L299
 3497               	.LM623:
 3498 0ff6 1092 0000 		sts tcp_fd,__zero_reg__
 3499               	.L299:
 3500               	.LBE303:
 3501               	.LBE302:
 3502               	.LM624:
 3503 0ffa 8091 0000 		lds r24,tcp_fd
 3504 0ffe 8093 0000 		sts www_fd,r24
 3505               	/* epilogue start */
 3506               	.LM625:
 3507 1002 1F91      		pop r17
 3508 1004 0F91      		pop r16
 3509               	.LVL257:
 3510 1006 0895      		ret
 3511               	.LFE58:
 3513               	.global	register_ping_rec_callback
 3515               	register_ping_rec_callback:
 3516               	.LFB59:
 3517               	.LM626:
 3518               	.LVL258:
 3519               	/* prologue: function */
 3520               	/* frame size = 0 */
 3521               	.LM627:
 3522 1008 9093 0000 		sts (icmp_callback)+1,r25
 3523 100c 8093 0000 		sts icmp_callback,r24
 3524               	/* epilogue start */
 3525               	.LM628:
 3526 1010 0895      		ret
 3527               	.LFE59:
 3529               	.global	packetloop_icmp_tcp
 3531               	packetloop_icmp_tcp:
 3532               	.LFB60:
 3533               	.LM629:
 3534               	.LVL259:
 3535 1012 CF92      		push r12
 3536 1014 DF92      		push r13
 3537 1016 EF92      		push r14
 3538 1018 FF92      		push r15
 3539 101a 0F93      		push r16
 3540 101c 1F93      		push r17
 3541 101e CF93      		push r28
 3542 1020 DF93      		push r29
 3543               	/* prologue: function */
 3544               	/* frame size = 0 */
 3545 1022 7C01      		movw r14,r24
 3546 1024 6B01      		movw r12,r22
 3547               	.LM630:
 3548 1026 6115      		cp r22,__zero_reg__
 3549 1028 7105      		cpc r23,__zero_reg__
 3550 102a 01F4      		brne .L304
 3551               	.LVL260:
 3552               	.LM631:
 3553 102c 8091 0000 		lds r24,waitgwmac
 3554 1030 8570      		andi r24,lo8(5)
 3555 1032 01F0      		breq .L305
 3556 1034 8091 0000 		lds r24,delaycnt
 3557 1038 9091 0000 		lds r25,(delaycnt)+1
 3558 103c 892B      		or r24,r25
 3559 103e 01F4      		brne .L305
 3560 1040 0E94 0000 		call enc28j60linkup
 3561               	.LVL261:
 3562 1044 8823      		tst r24
 3563 1046 01F0      		breq .L305
 3564               	.LM632:
 3565 1048 C701      		movw r24,r14
 3566 104a 60E0      		ldi r22,lo8(gwip)
 3567 104c 70E0      		ldi r23,hi8(gwip)
 3568 104e 0E94 0000 		call client_arp_whohas
 3569               	.LVL262:
 3570               	.L305:
 3571               	.LM633:
 3572 1052 8091 0000 		lds r24,delaycnt
 3573 1056 9091 0000 		lds r25,(delaycnt)+1
 3574 105a 0196      		adiw r24,1
 3575 105c 9093 0000 		sts (delaycnt)+1,r25
 3576 1060 8093 0000 		sts delaycnt,r24
 3577               	.LM634:
 3578 1064 8091 0000 		lds r24,tcp_client_state
 3579 1068 8130      		cpi r24,lo8(1)
 3580 106a 01F0      		breq .+2
 3581 106c 00C0      		rjmp .L306
 3582 106e 8091 0000 		lds r24,waitgwmac
 3583 1072 81FF      		sbrs r24,1
 3584 1074 00C0      		rjmp .L306
 3585               	.LM635:
 3586 1076 82E0      		ldi r24,lo8(2)
 3587 1078 8093 0000 		sts tcp_client_state,r24
 3588               	.LM636:
 3589 107c 8091 0000 		lds r24,tcpclient_src_port_l
 3590 1080 8F5F      		subi r24,lo8(-(1))
 3591 1082 8093 0000 		sts tcpclient_src_port_l,r24
 3592               	.LM637:
 3593 1086 8F71      		andi r24,lo8(31)
 3594 1088 6091 0000 		lds r22,tcp_fd
 3595 108c 6295      		swap r22
 3596 108e 660F      		lsl r22
 3597 1090 607E      		andi r22,lo8(-32)
 3598 1092 682B      		or r22,r24
 3599 1094 C701      		movw r24,r14
 3600 1096 4091 0000 		lds r20,tcp_client_port_h
 3601 109a 2091 0000 		lds r18,tcp_client_port_l
 3602 109e 0E94 0000 		call client_syn
 3603 10a2 00C0      		rjmp .L306
 3604               	.LVL263:
 3605               	.L304:
 3606               	.LM638:
 3607 10a4 0E94 0000 		call eth_type_is_arp_and_my_ip
 3608               	.LVL264:
 3609 10a8 8823      		tst r24
 3610 10aa 01F0      		breq .L308
 3611               	.LM639:
 3612 10ac D701      		movw r26,r14
 3613 10ae 5596      		adiw r26,21
 3614 10b0 8C91      		ld r24,X
 3615 10b2 8130      		cpi r24,lo8(1)
 3616 10b4 01F4      		brne .L309
 3617               	.LM640:
 3618 10b6 C701      		movw r24,r14
 3619 10b8 0E94 0000 		call make_arp_answer_from_request
 3620               	.L309:
 3621               	.LM641:
 3622 10bc 8091 0000 		lds r24,waitgwmac
 3623 10c0 83FF      		sbrs r24,3
 3624 10c2 00C0      		rjmp .L306
 3625 10c4 F701      		movw r30,r14
 3626 10c6 8589      		ldd r24,Z+21
 3627 10c8 8230      		cpi r24,lo8(2)
 3628 10ca 01F0      		breq .+2
 3629 10cc 00C0      		rjmp .L306
 3630 10ce E701      		movw r28,r14
 3631 10d0 E0E0      		ldi r30,lo8(gwip)
 3632 10d2 F0E0      		ldi r31,hi8(gwip)
 3633 10d4 D701      		movw r26,r14
 3634               	.LVL265:
 3635               	.L310:
 3636               	.LBB304:
 3637               	.LBB305:
 3638               	.LM642:
 3639 10d6 5C96      		adiw r26,28
 3640 10d8 9C91      		ld r25,X
 3641 10da 5C97      		sbiw r26,28
 3642 10dc 8081      		ld r24,Z
 3643 10de 9817      		cp r25,r24
 3644 10e0 01F0      		breq .+2
 3645 10e2 00C0      		rjmp .L306
 3646 10e4 1196      		adiw r26,1
 3647 10e6 3196      		adiw r30,1
 3648               	.LM643:
 3649 10e8 80E0      		ldi r24,hi8(gwip+4)
 3650 10ea E030      		cpi r30,lo8(gwip+4)
 3651 10ec F807      		cpc r31,r24
 3652 10ee 01F4      		brne .L310
 3653 10f0 E0E0      		ldi r30,lo8(gwmacaddr)
 3654 10f2 F0E0      		ldi r31,hi8(gwmacaddr)
 3655               	.L311:
 3656               	.LM644:
 3657 10f4 8E89      		ldd r24,Y+22
 3658 10f6 8193      		st Z+,r24
 3659 10f8 2196      		adiw r28,1
 3660               	.LM645:
 3661 10fa 90E0      		ldi r25,hi8(gwmacaddr+6)
 3662 10fc E030      		cpi r30,lo8(gwmacaddr+6)
 3663 10fe F907      		cpc r31,r25
 3664 1100 01F4      		brne .L311
 3665 1102 00C0      		rjmp .L348
 3666               	.LVL266:
 3667               	.L308:
 3668               	.LBE305:
 3669               	.LBE304:
 3670               	.LM646:
 3671 1104 C701      		movw r24,r14
 3672 1106 B601      		movw r22,r12
 3673 1108 0E94 0000 		call eth_type_is_ip_and_my_ip
 3674 110c 8823      		tst r24
 3675 110e 01F4      		brne .+2
 3676 1110 00C0      		rjmp .L306
 3677               	.LM647:
 3678 1112 D701      		movw r26,r14
 3679 1114 5796      		adiw r26,23
 3680 1116 9C91      		ld r25,X
 3681 1118 5797      		sbiw r26,23
 3682 111a 9130      		cpi r25,lo8(1)
 3683 111c 01F4      		brne .L313
 3684 111e 9296      		adiw r26,34
 3685 1120 8C91      		ld r24,X
 3686 1122 8830      		cpi r24,lo8(8)
 3687 1124 01F4      		brne .L313
 3688               	.LM648:
 3689 1126 E091 0000 		lds r30,icmp_callback
 3690 112a F091 0000 		lds r31,(icmp_callback)+1
 3691 112e 3097      		sbiw r30,0
 3692 1130 01F0      		breq .L314
 3693               	.LM649:
 3694 1132 C701      		movw r24,r14
 3695 1134 4A96      		adiw r24,26
 3696 1136 0995      		icall
 3697               	.L314:
 3698               	.LM650:
 3699 1138 C701      		movw r24,r14
 3700 113a B601      		movw r22,r12
 3701 113c 0E94 0000 		call make_echo_reply_from_request
 3702 1140 00C0      		rjmp .L306
 3703               	.L313:
 3704               	.LM651:
 3705 1142 B6E3      		ldi r27,lo8(54)
 3706 1144 CB16      		cp r12,r27
 3707 1146 D104      		cpc r13,__zero_reg__
 3708 1148 00F4      		brsh .L315
 3709 114a 9630      		cpi r25,lo8(6)
 3710 114c 01F0      		breq .+2
 3711 114e 00C0      		rjmp .L306
 3712               	.L315:
 3713               	.LM652:
 3714 1150 F701      		movw r30,r14
 3715 1152 94A1      		ldd r25,Z+36
 3716 1154 9B30      		cpi r25,lo8(11)
 3717 1156 01F0      		breq .+2
 3718 1158 00C0      		rjmp .L316
 3719               	.LM653:
 3720 115a F092 0000 		sts (bufptr)+1,r15
 3721 115e E092 0000 		sts bufptr,r14
 3722 1162 D701      		movw r26,r14
 3723 1164 E0E0      		ldi r30,lo8(tcpsrvip)
 3724 1166 F0E0      		ldi r31,hi8(tcpsrvip)
 3725               	.L317:
 3726               	.LBB306:
 3727               	.LBB307:
 3728               	.LM654:
 3729 1168 5A96      		adiw r26,26
 3730 116a 9C91      		ld r25,X
 3731 116c 5A97      		sbiw r26,26
 3732 116e 8081      		ld r24,Z
 3733 1170 9817      		cp r25,r24
 3734 1172 01F0      		breq .+2
 3735 1174 00C0      		rjmp .L306
 3736 1176 1196      		adiw r26,1
 3737 1178 3196      		adiw r30,1
 3738               	.LM655:
 3739 117a 80E0      		ldi r24,hi8(tcpsrvip+4)
 3740 117c E030      		cpi r30,lo8(tcpsrvip+4)
 3741 117e F807      		cpc r31,r24
 3742 1180 01F4      		brne .L317
 3743 1182 00C0      		rjmp .L349
 3744               	.L335:
 3745               	.LBE307:
 3746               	.LBE306:
 3747               	.LM656:
 3748 1184 E091 0000 		lds r30,client_tcp_result_callback
 3749 1188 F091 0000 		lds r31,(client_tcp_result_callback)+1
 3750 118c 3097      		sbiw r30,0
 3751 118e 01F4      		brne .+2
 3752 1190 00C0      		rjmp .L346
 3753               	.LM657:
 3754 1192 D701      		movw r26,r14
 3755 1194 9596      		adiw r26,37
 3756 1196 8C91      		ld r24,X
 3757 1198 8295      		swap r24
 3758 119a 8695      		lsr r24
 3759 119c 8770      		andi r24,lo8(7)
 3760 119e 63E0      		ldi r22,lo8(3)
 3761 11a0 40E0      		ldi r20,lo8(0)
 3762 11a2 50E0      		ldi r21,hi8(0)
 3763 11a4 20E0      		ldi r18,lo8(0)
 3764 11a6 30E0      		ldi r19,hi8(0)
 3765 11a8 0995      		icall
 3766 11aa 00C0      		rjmp .L346
 3767               	.L350:
 3768               	.LBB308:
 3769               	.LBB309:
 3770               	.LM658:
 3771 11ac F701      		movw r30,r14
 3772 11ae 9089      		ldd r25,Z+16
 3773 11b0 80E0      		ldi r24,lo8(0)
 3774 11b2 2189      		ldd r18,Z+17
 3775 11b4 022F      		mov r16,r18
 3776               	.LVL267:
 3777 11b6 10E0      		ldi r17,lo8(0)
 3778               	.LVL268:
 3779 11b8 082B      		or r16,r24
 3780 11ba 192B      		or r17,r25
 3781               	.LVL269:
 3782               	.LM659:
 3783 11bc 26A5      		ldd r18,Z+46
 3784 11be 822F      		mov r24,r18
 3785 11c0 8295      		swap r24
 3786 11c2 8F70      		andi r24,lo8(15)
 3787 11c4 90E0      		ldi r25,lo8(0)
 3788 11c6 880F      		lsl r24
 3789 11c8 991F      		rol r25
 3790 11ca 880F      		lsl r24
 3791 11cc 991F      		rol r25
 3792 11ce 081B      		sub r16,r24
 3793 11d0 190B      		sbc r17,r25
 3794               	.LM660:
 3795 11d2 0451      		subi r16,lo8(-(-20))
 3796 11d4 1040      		sbci r17,hi8(-(-20))
 3797 11d6 17FF      		sbrs r17,7
 3798 11d8 00C0      		rjmp .L320
 3799 11da 00E0      		ldi r16,lo8(0)
 3800 11dc 10E0      		ldi r17,hi8(0)
 3801               	.L320:
 3802               	.LM661:
 3803 11de E801      		movw r28,r16
 3804               	.LVL270:
 3805               	.LBE309:
 3806               	.LBE308:
 3807               	.LM662:
 3808 11e0 8091 0000 		lds r24,tcp_client_state
 3809 11e4 8230      		cpi r24,lo8(2)
 3810 11e6 01F4      		brne .L321
 3811               	.LM663:
 3812 11e8 31FF      		sbrs r19,1
 3813 11ea 00C0      		rjmp .L322
 3814 11ec 34FF      		sbrs r19,4
 3815 11ee 00C0      		rjmp .L322
 3816               	.LM664:
 3817 11f0 C701      		movw r24,r14
 3818 11f2 60E0      		ldi r22,lo8(0)
 3819 11f4 70E0      		ldi r23,hi8(0)
 3820 11f6 40E0      		ldi r20,lo8(0)
 3821 11f8 0E94 0000 		call make_tcp_ack_from_any
 3822               	.LM665:
 3823 11fc 88E1      		ldi r24,lo8(24)
 3824 11fe D701      		movw r26,r14
 3825 1200 9F96      		adiw r26,47
 3826 1202 8C93      		st X,r24
 3827               	.LM666:
 3828 1204 E091 0000 		lds r30,client_tcp_datafill_callback
 3829 1208 F091 0000 		lds r31,(client_tcp_datafill_callback)+1
 3830 120c 3097      		sbiw r30,0
 3831 120e 01F4      		brne .L323
 3832 1210 60E0      		ldi r22,lo8(0)
 3833 1212 70E0      		ldi r23,hi8(0)
 3834               	.LVL271:
 3835 1214 00C0      		rjmp .L324
 3836               	.LVL272:
 3837               	.L323:
 3838               	.LM667:
 3839 1216 D701      		movw r26,r14
 3840 1218 9396      		adiw r26,35
 3841 121a 8C91      		ld r24,X
 3842 121c 8295      		swap r24
 3843 121e 8695      		lsr r24
 3844 1220 8770      		andi r24,lo8(7)
 3845 1222 0995      		icall
 3846 1224 BC01      		movw r22,r24
 3847               	.LVL273:
 3848               	.L324:
 3849               	.LM668:
 3850 1226 83E0      		ldi r24,lo8(3)
 3851 1228 8093 0000 		sts tcp_client_state,r24
 3852               	.LM669:
 3853 122c C701      		movw r24,r14
 3854 122e 0E94 0000 		call make_tcp_ack_with_data_noflags
 3855               	.LVL274:
 3856 1232 00C0      		rjmp .L306
 3857               	.LVL275:
 3858               	.L322:
 3859               	.LM670:
 3860 1234 81E0      		ldi r24,lo8(1)
 3861 1236 8093 0000 		sts tcp_client_state,r24
 3862               	.LM671:
 3863 123a F701      		movw r30,r14
 3864 123c 87A5      		ldd r24,Z+47
 3865 123e 84FF      		sbrs r24,4
 3866 1240 00C0      		rjmp .L325
 3867 1242 60E0      		ldi r22,lo8(0)
 3868 1244 70E0      		ldi r23,hi8(0)
 3869               	.LVL276:
 3870 1246 00C0      		rjmp .L326
 3871               	.LVL277:
 3872               	.L325:
 3873               	.LM672:
 3874 1248 B801      		movw r22,r16
 3875               	.LVL278:
 3876 124a 6F5F      		subi r22,lo8(-(1))
 3877 124c 7F4F      		sbci r23,hi8(-(1))
 3878               	.L326:
 3879               	.LM673:
 3880 124e C701      		movw r24,r14
 3881 1250 44E0      		ldi r20,lo8(4)
 3882 1252 00C0      		rjmp .L347
 3883               	.LVL279:
 3884               	.L321:
 3885               	.LM674:
 3886 1254 8330      		cpi r24,lo8(3)
 3887 1256 01F4      		brne .L327
 3888 1258 0115      		cp r16,__zero_reg__
 3889 125a 1105      		cpc r17,__zero_reg__
 3890 125c 01F0      		breq .L327
 3891               	.LM675:
 3892 125e 84E0      		ldi r24,lo8(4)
 3893 1260 8093 0000 		sts tcp_client_state,r24
 3894               	.LM676:
 3895 1264 E091 0000 		lds r30,client_tcp_result_callback
 3896 1268 F091 0000 		lds r31,(client_tcp_result_callback)+1
 3897 126c 3097      		sbiw r30,0
 3898 126e 01F0      		breq .L327
 3899               	.LM677:
 3900 1270 D701      		movw r26,r14
 3901 1272 9E96      		adiw r26,46
 3902 1274 8C91      		ld r24,X
 3903 1276 8295      		swap r24
 3904 1278 8F70      		andi r24,lo8(15)
 3905 127a 482F      		mov r20,r24
 3906               	.LVL280:
 3907 127c 50E0      		ldi r21,lo8(0)
 3908               	.LVL281:
 3909 127e 440F      		lsl r20
 3910 1280 551F      		rol r21
 3911 1282 440F      		lsl r20
 3912 1284 551F      		rol r21
 3913               	.LVL282:
 3914 1286 C601      		movw r24,r12
 3915 1288 0897      		sbiw r24,8
 3916 128a 4E5D      		subi r20,lo8(-(34))
 3917 128c 5F4F      		sbci r21,hi8(-(34))
 3918 128e 8417      		cp r24,r20
 3919 1290 9507      		cpc r25,r21
 3920 1292 00F4      		brsh .L328
 3921 1294 AC01      		movw r20,r24
 3922               	.L328:
 3923               	.LM678:
 3924 1296 C801      		movw r24,r16
 3925 1298 840F      		add r24,r20
 3926 129a 951F      		adc r25,r21
 3927 129c C816      		cp r12,r24
 3928 129e D906      		cpc r13,r25
 3929 12a0 00F0      		brlo .L329
 3930 12a2 9801      		movw r18,r16
 3931               	.LVL283:
 3932 12a4 00C0      		rjmp .L330
 3933               	.LVL284:
 3934               	.L329:
 3935               	.LM679:
 3936 12a6 9601      		movw r18,r12
 3937               	.LVL285:
 3938 12a8 241B      		sub r18,r20
 3939 12aa 350B      		sbc r19,r21
 3940               	.L330:
 3941               	.LM680:
 3942 12ac D701      		movw r26,r14
 3943 12ae 9596      		adiw r26,37
 3944 12b0 8C91      		ld r24,X
 3945 12b2 8295      		swap r24
 3946 12b4 8695      		lsr r24
 3947 12b6 8770      		andi r24,lo8(7)
 3948 12b8 60E0      		ldi r22,lo8(0)
 3949 12ba 0995      		icall
 3950               	.LVL286:
 3951               	.LM681:
 3952 12bc 8823      		tst r24
 3953 12be 01F4      		brne .L345
 3954               	.L327:
 3955               	.LM682:
 3956 12c0 8091 0000 		lds r24,tcp_client_state
 3957 12c4 8530      		cpi r24,lo8(5)
 3958 12c6 01F4      		brne .+2
 3959 12c8 00C0      		rjmp .L306
 3960               	.LM683:
 3961 12ca F701      		movw r30,r14
 3962 12cc 87A5      		ldd r24,Z+47
 3963 12ce 80FF      		sbrs r24,0
 3964 12d0 00C0      		rjmp .L331
 3965               	.LM684:
 3966 12d2 0F5F      		subi r16,lo8(-(1))
 3967 12d4 1F4F      		sbci r17,hi8(-(1))
 3968               	.L345:
 3969 12d6 C701      		movw r24,r14
 3970 12d8 B801      		movw r22,r16
 3971 12da 49E0      		ldi r20,lo8(9)
 3972 12dc 0E94 0000 		call make_tcp_ack_from_any
 3973               	.L346:
 3974               	.LM685:
 3975 12e0 85E0      		ldi r24,lo8(5)
 3976 12e2 8093 0000 		sts tcp_client_state,r24
 3977 12e6 00C0      		rjmp .L306
 3978               	.L331:
 3979               	.LM686:
 3980 12e8 0115      		cp r16,__zero_reg__
 3981 12ea 1105      		cpc r17,__zero_reg__
 3982 12ec 01F4      		brne .+2
 3983 12ee 00C0      		rjmp .L307
 3984               	.LM687:
 3985 12f0 C701      		movw r24,r14
 3986 12f2 B801      		movw r22,r16
 3987 12f4 00C0      		rjmp .L344
 3988               	.LVL287:
 3989               	.L316:
 3990               	.LM688:
 3991 12f6 8091 0000 		lds r24,wwwport_h
 3992 12fa 9817      		cp r25,r24
 3993 12fc 01F0      		breq .+2
 3994 12fe 00C0      		rjmp .L306
 3995 1300 D701      		movw r26,r14
 3996 1302 9596      		adiw r26,37
 3997 1304 9C91      		ld r25,X
 3998 1306 9597      		sbiw r26,37
 3999 1308 8091 0000 		lds r24,wwwport_l
 4000 130c 9817      		cp r25,r24
 4001 130e 01F0      		breq .+2
 4002 1310 00C0      		rjmp .L306
 4003               	.LM689:
 4004 1312 9F96      		adiw r26,47
 4005 1314 8C91      		ld r24,X
 4006 1316 81FF      		sbrs r24,1
 4007 1318 00C0      		rjmp .L332
 4008               	.LM690:
 4009 131a C701      		movw r24,r14
 4010 131c 0E94 0000 		call make_tcp_synack_from_syn
 4011 1320 00C0      		rjmp .L306
 4012               	.L332:
 4013               	.LM691:
 4014 1322 84FF      		sbrs r24,4
 4015 1324 00C0      		rjmp .L306
 4016               	.LBB310:
 4017               	.LBB311:
 4018               	.LM692:
 4019 1326 F701      		movw r30,r14
 4020 1328 9089      		ldd r25,Z+16
 4021 132a 80E0      		ldi r24,lo8(0)
 4022 132c 2189      		ldd r18,Z+17
 4023 132e 422F      		mov r20,r18
 4024 1330 50E0      		ldi r21,lo8(0)
 4025 1332 482B      		or r20,r24
 4026 1334 592B      		or r21,r25
 4027               	.LM693:
 4028 1336 26A5      		ldd r18,Z+46
 4029 1338 822F      		mov r24,r18
 4030 133a 8295      		swap r24
 4031 133c 8F70      		andi r24,lo8(15)
 4032 133e 90E0      		ldi r25,lo8(0)
 4033 1340 880F      		lsl r24
 4034 1342 991F      		rol r25
 4035 1344 880F      		lsl r24
 4036 1346 991F      		rol r25
 4037 1348 481B      		sub r20,r24
 4038 134a 590B      		sbc r21,r25
 4039               	.LM694:
 4040 134c 4451      		subi r20,lo8(-(-20))
 4041 134e 5040      		sbci r21,hi8(-(-20))
 4042               	.LM695:
 4043 1350 57FF      		sbrs r21,7
 4044 1352 00C0      		rjmp .L333
 4045 1354 40E0      		ldi r20,lo8(0)
 4046 1356 50E0      		ldi r21,hi8(0)
 4047               	.L333:
 4048               	.LBE311:
 4049               	.LBE310:
 4050               	.LM696:
 4051 1358 5093 0000 		sts (info_data_len)+1,r21
 4052 135c 4093 0000 		sts info_data_len,r20
 4053               	.LM697:
 4054 1360 452B      		or r20,r21
 4055 1362 01F4      		brne .L334
 4056               	.LM698:
 4057 1364 D701      		movw r26,r14
 4058 1366 9F96      		adiw r26,47
 4059 1368 8C91      		ld r24,X
 4060 136a 80FF      		sbrs r24,0
 4061 136c 00C0      		rjmp .L306
 4062               	.LM699:
 4063 136e C701      		movw r24,r14
 4064 1370 60E0      		ldi r22,lo8(0)
 4065 1372 70E0      		ldi r23,hi8(0)
 4066               	.LVL288:
 4067               	.L344:
 4068 1374 40E0      		ldi r20,lo8(0)
 4069               	.LVL289:
 4070               	.L347:
 4071 1376 0E94 0000 		call make_tcp_ack_from_any
 4072 137a 00C0      		rjmp .L306
 4073               	.LVL290:
 4074               	.L334:
 4075               	.LM700:
 4076 137c F701      		movw r30,r14
 4077 137e 86A5      		ldd r24,Z+46
 4078 1380 8295      		swap r24
 4079 1382 8F70      		andi r24,lo8(15)
 4080 1384 C82F      		mov r28,r24
 4081               	.LVL291:
 4082 1386 D0E0      		ldi r29,lo8(0)
 4083               	.LVL292:
 4084 1388 CC0F      		lsl r28
 4085 138a DD1F      		rol r29
 4086 138c CC0F      		lsl r28
 4087 138e DD1F      		rol r29
 4088               	.LVL293:
 4089 1390 A296      		adiw r28,34
 4090               	.LM701:
 4091 1392 88EF      		ldi r24,lo8(-8)
 4092 1394 9FEF      		ldi r25,hi8(-8)
 4093 1396 C80E      		add r12,r24
 4094 1398 D91E      		adc r13,r25
 4095 139a CC16      		cp r12,r28
 4096 139c DD06      		cpc r13,r29
 4097 139e 00F4      		brsh .L307
 4098               	.LVL294:
 4099               	.L306:
 4100 13a0 C0E0      		ldi r28,lo8(0)
 4101 13a2 D0E0      		ldi r29,hi8(0)
 4102               	.L307:
 4103               	.LM702:
 4104 13a4 CE01      		movw r24,r28
 4105               	.LVL295:
 4106               	/* epilogue start */
 4107 13a6 DF91      		pop r29
 4108               	.LVL296:
 4109 13a8 CF91      		pop r28
 4110 13aa 1F91      		pop r17
 4111               	.LVL297:
 4112 13ac 0F91      		pop r16
 4113               	.LVL298:
 4114 13ae FF90      		pop r15
 4115 13b0 EF90      		pop r14
 4116               	.LVL299:
 4117 13b2 DF90      		pop r13
 4118 13b4 CF90      		pop r12
 4119               	.LVL300:
 4120 13b6 0895      		ret
 4121               	.LVL301:
 4122               	.L348:
 4123               	.LM703:
 4124 13b8 82E0      		ldi r24,lo8(2)
 4125 13ba 8093 0000 		sts waitgwmac,r24
 4126 13be 00C0      		rjmp .L306
 4127               	.LVL302:
 4128               	.L349:
 4129               	.LM704:
 4130 13c0 D701      		movw r26,r14
 4131 13c2 9F96      		adiw r26,47
 4132 13c4 8C91      		ld r24,X
 4133 13c6 382F      		mov r19,r24
 4134 13c8 82FD      		sbrc r24,2
 4135 13ca 00C0      		rjmp .L335
 4136 13cc 00C0      		rjmp .L350
 4137               	.LFE60:
 4139               	.global	find_key_val
 4141               	find_key_val:
 4142               	.LFB61:
 4143               	.LM705:
 4144               	.LVL303:
 4145 13ce CF93      		push r28
 4146 13d0 DF93      		push r29
 4147               	/* prologue: function */
 4148               	/* frame size = 0 */
 4149 13d2 DC01      		movw r26,r24
 4150 13d4 EB01      		movw r28,r22
 4151 13d6 722F      		mov r23,r18
 4152 13d8 632F      		mov r22,r19
 4153               	.LVL304:
 4154               	.LM706:
 4155 13da 822F      		mov r24,r18
 4156               	.LVL305:
 4157 13dc 932F      		mov r25,r19
 4158               	.LVL306:
 4159 13de 9C01      		movw r18,r24
 4160               	.LVL307:
 4161 13e0 F901      		movw r30,r18
 4162               	.LVL308:
 4163 13e2 50E0      		ldi r21,lo8(0)
 4164               	.LVL309:
 4165 13e4 00C0      		rjmp .L352
 4166               	.LVL310:
 4167               	.L356:
 4168               	.LM707:
 4169 13e6 8081      		ld r24,Z
 4170 13e8 9817      		cp r25,r24
 4171 13ea 01F4      		brne .L353
 4172               	.LM708:
 4173 13ec 3196      		adiw r30,1
 4174               	.LM709:
 4175 13ee 8081      		ld r24,Z
 4176 13f0 8823      		tst r24
 4177 13f2 01F4      		brne .L354
 4178               	.LM710:
 4179 13f4 1196      		adiw r26,1
 4180               	.LM711:
 4181 13f6 8C91      		ld r24,X
 4182 13f8 8D33      		cpi r24,lo8(61)
 4183 13fa 01F4      		brne .L353
 4184 13fc 872F      		mov r24,r23
 4185               	.LVL311:
 4186 13fe 962F      		mov r25,r22
 4187               	.LVL312:
 4188 1400 9C01      		movw r18,r24
 4189               	.LVL313:
 4190 1402 F901      		movw r30,r18
 4191               	.LVL314:
 4192 1404 51E0      		ldi r21,lo8(1)
 4193 1406 00C0      		rjmp .L354
 4194               	.LVL315:
 4195               	.L353:
 4196 1408 872F      		mov r24,r23
 4197               	.LVL316:
 4198 140a 962F      		mov r25,r22
 4199               	.LVL317:
 4200 140c 9C01      		movw r18,r24
 4201               	.LVL318:
 4202 140e F901      		movw r30,r18
 4203               	.LVL319:
 4204               	.L354:
 4205               	.LM712:
 4206 1410 1196      		adiw r26,1
 4207               	.L352:
 4208               	.LM713:
 4209 1412 9C91      		ld r25,X
 4210               	.LVL320:
 4211 1414 9923      		tst r25
 4212 1416 01F0      		breq .L355
 4213               	.LVL321:
 4214 1418 9032      		cpi r25,lo8(32)
 4215 141a 01F0      		breq .L355
 4216 141c 9A30      		cpi r25,lo8(10)
 4217 141e 01F0      		breq .L355
 4218 1420 5523      		tst r21
 4219 1422 01F0      		breq .L356
 4220 1424 00C0      		rjmp .L357
 4221               	.L355:
 4222               	.LM714:
 4223 1426 5130      		cpi r21,lo8(1)
 4224 1428 01F0      		breq .L357
 4225 142a 30E0      		ldi r19,lo8(0)
 4226               	.LVL322:
 4227 142c 00C0      		rjmp .L358
 4228               	.LVL323:
 4229               	.L357:
 4230 142e 6A2F      		mov r22,r26
 4231               	.LM715:
 4232 1430 50E0      		ldi r21,lo8(0)
 4233               	.LVL324:
 4234 1432 4150      		subi r20,lo8(-(-1))
 4235 1434 5040      		sbci r21,hi8(-(-1))
 4236               	.LVL325:
 4237 1436 00C0      		rjmp .L359
 4238               	.LVL326:
 4239               	.L361:
 4240               	.LM716:
 4241 1438 2993      		st Y+,r18
 4242               	.LM717:
 4243 143a 1196      		adiw r26,1
 4244               	.LVL327:
 4245               	.L359:
 4246               	.LM718:
 4247 143c 3A2F      		mov r19,r26
 4248               	.LVL328:
 4249 143e 361B      		sub r19,r22
 4250               	.LM719:
 4251 1440 2C91      		ld r18,X
 4252 1442 2223      		tst r18
 4253 1444 01F0      		breq .L360
 4254               	.LVL329:
 4255 1446 2032      		cpi r18,lo8(32)
 4256 1448 01F0      		breq .L360
 4257 144a 2A30      		cpi r18,lo8(10)
 4258 144c 01F0      		breq .L360
 4259 144e 2632      		cpi r18,lo8(38)
 4260 1450 01F0      		breq .L360
 4261 1452 832F      		mov r24,r19
 4262 1454 90E0      		ldi r25,lo8(0)
 4263 1456 8417      		cp r24,r20
 4264 1458 9507      		cpc r25,r21
 4265 145a 04F0      		brlt .L361
 4266               	.L360:
 4267               	.LM720:
 4268 145c 1882      		st Y,__zero_reg__
 4269               	.LVL330:
 4270               	.L358:
 4271               	.LM721:
 4272 145e 832F      		mov r24,r19
 4273               	/* epilogue start */
 4274 1460 DF91      		pop r29
 4275 1462 CF91      		pop r28
 4276               	.LVL331:
 4277 1464 0895      		ret
 4278               	.LFE61:
 4280               	.global	h2int
 4282               	h2int:
 4283               	.LFB62:
 4284               	.LM722:
 4285               	.LVL332:
 4286               	/* prologue: function */
 4287               	/* frame size = 0 */
 4288 1466 982F      		mov r25,r24
 4289               	.LM723:
 4290 1468 8053      		subi r24,lo8(-(-48))
 4291               	.LVL333:
 4292 146a 8A30      		cpi r24,lo8(10)
 4293 146c 00F0      		brlo .L364
 4294               	.LM724:
 4295 146e 8153      		subi r24,lo8(-(-49))
 4296 1470 8630      		cpi r24,lo8(6)
 4297 1472 00F4      		brsh .L365
 4298               	.LM725:
 4299 1474 865F      		subi r24,lo8(-(10))
 4300 1476 0895      		ret
 4301               	.L365:
 4302               	.LM726:
 4303 1478 892F      		mov r24,r25
 4304 147a 8154      		subi r24,lo8(-(-65))
 4305 147c 8630      		cpi r24,lo8(6)
 4306 147e 00F0      		brlo .L366
 4307 1480 80E0      		ldi r24,lo8(0)
 4308 1482 0895      		ret
 4309               	.L366:
 4310               	.LM727:
 4311 1484 892F      		mov r24,r25
 4312 1486 8753      		subi r24,lo8(-(-55))
 4313               	.L364:
 4314               	.LM728:
 4315 1488 0895      		ret
 4316               	.LFE62:
 4318               	.global	urldecode
 4320               	urldecode:
 4321               	.LFB63:
 4322               	.LM729:
 4323               	.LVL334:
 4324 148a CF93      		push r28
 4325 148c DF93      		push r29
 4326               	/* prologue: function */
 4327               	/* frame size = 0 */
 4328 148e FC01      		movw r30,r24
 4329               	.LM730:
 4330 1490 EC01      		movw r28,r24
 4331               	.LVL335:
 4332 1492 00C0      		rjmp .L369
 4333               	.LVL336:
 4334               	.L378:
 4335               	.LM731:
 4336 1494 8B32      		cpi r24,lo8(43)
 4337 1496 01F4      		brne .L370
 4338 1498 80E2      		ldi r24,lo8(32)
 4339 149a 00C0      		rjmp .L371
 4340               	.L370:
 4341               	.LM732:
 4342 149c 8532      		cpi r24,lo8(37)
 4343 149e 01F4      		brne .L371
 4344               	.LM733:
 4345 14a0 DF01      		movw r26,r30
 4346 14a2 1196      		adiw r26,1
 4347               	.LVL337:
 4348               	.LM734:
 4349 14a4 9181      		ldd r25,Z+1
 4350               	.LVL338:
 4351               	.LM735:
 4352 14a6 FD01      		movw r30,r26
 4353 14a8 3196      		adiw r30,1
 4354               	.LVL339:
 4355               	.LBB312:
 4356               	.LBB313:
 4357               	.LM736:
 4358 14aa 392F      		mov r19,r25
 4359 14ac 3053      		subi r19,lo8(-(-48))
 4360 14ae 3A30      		cpi r19,lo8(10)
 4361 14b0 00F0      		brlo .L372
 4362               	.LM737:
 4363 14b2 892F      		mov r24,r25
 4364 14b4 8156      		subi r24,lo8(-(-97))
 4365 14b6 8630      		cpi r24,lo8(6)
 4366 14b8 00F4      		brsh .L373
 4367               	.LM738:
 4368 14ba 3752      		subi r19,lo8(-(-39))
 4369 14bc 00C0      		rjmp .L372
 4370               	.L373:
 4371               	.LM739:
 4372 14be 892F      		mov r24,r25
 4373 14c0 8154      		subi r24,lo8(-(-65))
 4374 14c2 8630      		cpi r24,lo8(6)
 4375 14c4 00F0      		brlo .L374
 4376 14c6 30E0      		ldi r19,lo8(0)
 4377 14c8 00C0      		rjmp .L372
 4378               	.L374:
 4379               	.LM740:
 4380 14ca 392F      		mov r19,r25
 4381 14cc 3753      		subi r19,lo8(-(-55))
 4382               	.L372:
 4383               	.LBE313:
 4384               	.LBE312:
 4385               	.LM741:
 4386 14ce 1196      		adiw r26,1
 4387 14d0 2C91      		ld r18,X
 4388               	.LBB314:
 4389               	.LBB315:
 4390               	.LM742:
 4391 14d2 922F      		mov r25,r18
 4392               	.LVL340:
 4393 14d4 9053      		subi r25,lo8(-(-48))
 4394 14d6 9A30      		cpi r25,lo8(10)
 4395 14d8 00F0      		brlo .L375
 4396               	.LVL341:
 4397               	.LM743:
 4398 14da 822F      		mov r24,r18
 4399 14dc 8156      		subi r24,lo8(-(-97))
 4400 14de 8630      		cpi r24,lo8(6)
 4401 14e0 00F4      		brsh .L376
 4402               	.LM744:
 4403 14e2 9752      		subi r25,lo8(-(-39))
 4404 14e4 00C0      		rjmp .L375
 4405               	.L376:
 4406               	.LM745:
 4407 14e6 822F      		mov r24,r18
 4408 14e8 8154      		subi r24,lo8(-(-65))
 4409 14ea 8630      		cpi r24,lo8(6)
 4410 14ec 00F0      		brlo .L377
 4411 14ee 90E0      		ldi r25,lo8(0)
 4412 14f0 00C0      		rjmp .L375
 4413               	.L377:
 4414               	.LM746:
 4415 14f2 922F      		mov r25,r18
 4416 14f4 9753      		subi r25,lo8(-(-55))
 4417               	.L375:
 4418               	.LBE315:
 4419               	.LBE314:
 4420               	.LM747:
 4421 14f6 832F      		mov r24,r19
 4422               	.LVL342:
 4423 14f8 8295      		swap r24
 4424 14fa 807F      		andi r24,lo8(-16)
 4425 14fc 892B      		or r24,r25
 4426               	.LVL343:
 4427               	.L371:
 4428               	.LM748:
 4429 14fe 8993      		st Y+,r24
 4430               	.LM749:
 4431 1500 3196      		adiw r30,1
 4432               	.LVL344:
 4433               	.L369:
 4434               	.LM750:
 4435 1502 8081      		ld r24,Z
 4436 1504 8823      		tst r24
 4437 1506 01F4      		brne .L378
 4438               	.LM751:
 4439 1508 1882      		st Y,__zero_reg__
 4440               	/* epilogue start */
 4441               	.LM752:
 4442 150a DF91      		pop r29
 4443 150c CF91      		pop r28
 4444               	.LVL345:
 4445 150e 0895      		ret
 4446               	.LFE63:
 4448               	.global	int2h
 4450               	int2h:
 4451               	.LFB64:
 4452               	.LM753:
 4453               	.LVL346:
 4454               	/* prologue: function */
 4455               	/* frame size = 0 */
 4456 1510 382F      		mov r19,r24
 4457 1512 FB01      		movw r30,r22
 4458               	.LM754:
 4459 1514 282F      		mov r18,r24
 4460 1516 2F70      		andi r18,lo8(15)
 4461 1518 205D      		subi r18,lo8(-(48))
 4462 151a 2183      		std Z+1,r18
 4463 151c 2053      		subi r18,lo8(-(-48))
 4464               	.LM755:
 4465 151e 90E0      		ldi r25,lo8(0)
 4466               	.LVL347:
 4467 1520 8F70      		andi r24,lo8(15)
 4468 1522 9070      		andi r25,hi8(15)
 4469               	.LVL348:
 4470 1524 0A97      		sbiw r24,10
 4471 1526 04F0      		brlt .L381
 4472               	.LVL349:
 4473               	.LM756:
 4474 1528 295A      		subi r18,lo8(-(87))
 4475 152a 2183      		std Z+1,r18
 4476               	.L381:
 4477               	.LM757:
 4478 152c 832F      		mov r24,r19
 4479 152e 8295      		swap r24
 4480 1530 8F70      		andi r24,lo8(15)
 4481               	.LM758:
 4482 1532 805D      		subi r24,lo8(-(48))
 4483 1534 8083      		st Z,r24
 4484 1536 8053      		subi r24,lo8(-(-48))
 4485               	.LM759:
 4486 1538 8A30      		cpi r24,lo8(10)
 4487 153a 00F0      		brlo .L382
 4488               	.LM760:
 4489 153c 895A      		subi r24,lo8(-(87))
 4490 153e 8083      		st Z,r24
 4491               	.L382:
 4492               	.LM761:
 4493 1540 1282      		std Z+2,__zero_reg__
 4494               	/* epilogue start */
 4495               	.LM762:
 4496 1542 0895      		ret
 4497               	.LFE64:
 4499               	.global	dnslkup_haveanswer
 4501               	dnslkup_haveanswer:
 4502               	.LFB68:
 4503               	.LM763:
 4504               	/* prologue: function */
 4505               	/* frame size = 0 */
 4506               	.LM764:
 4507 1544 8091 0000 		lds r24,haveDNSanswer
 4508               	/* epilogue start */
 4509 1548 0895      		ret
 4510               	.LFE68:
 4512               	.global	dnslkup_get_error_info
 4514               	dnslkup_get_error_info:
 4515               	.LFB69:
 4516               	.LM765:
 4517               	/* prologue: function */
 4518               	/* frame size = 0 */
 4519               	.LM766:
 4520 154a 8091 0000 		lds r24,dns_ansError
 4521               	/* epilogue start */
 4522 154e 0895      		ret
 4523               	.LFE69:
 4525               	.global	dnslkup_getip
 4527               	dnslkup_getip:
 4528               	.LFB70:
 4529               	.LM767:
 4530               	/* prologue: function */
 4531               	/* frame size = 0 */
 4532               	.LM768:
 4533 1550 80E0      		ldi r24,lo8(dns_answerip)
 4534 1552 90E0      		ldi r25,hi8(dns_answerip)
 4535               	/* epilogue start */
 4536 1554 0895      		ret
 4537               	.LFE70:
 4539               	.global	dnslkup_request
 4541               	dnslkup_request:
 4542               	.LFB71:
 4543               	.LM769:
 4544               	.LVL350:
 4545 1556 EF92      		push r14
 4546 1558 FF92      		push r15
 4547 155a 1F93      		push r17
 4548 155c CF93      		push r28
 4549 155e DF93      		push r29
 4550               	/* prologue: function */
 4551               	/* frame size = 0 */
 4552 1560 EC01      		movw r28,r24
 4553 1562 7B01      		movw r14,r22
 4554               	.LM770:
 4555 1564 1092 0000 		sts haveDNSanswer,__zero_reg__
 4556               	.LM771:
 4557 1568 1092 0000 		sts dns_ansError,__zero_reg__
 4558               	.LM772:
 4559 156c 1091 0000 		lds r17,dnstid_l
 4560 1570 1F5F      		subi r17,lo8(-(1))
 4561 1572 1093 0000 		sts dnstid_l,r17
 4562               	.LM773:
 4563 1576 612F      		mov r22,r17
 4564               	.LVL351:
 4565 1578 70E0      		ldi r23,lo8(0)
 4566 157a 706E      		ori r23,hi8(-8192)
 4567 157c 40E0      		ldi r20,lo8(dnsip)
 4568 157e 50E0      		ldi r21,hi8(dnsip)
 4569 1580 25E3      		ldi r18,lo8(53)
 4570 1582 30E0      		ldi r19,hi8(53)
 4571 1584 0E94 0000 		call send_udp_prepare
 4572               	.LVL352:
 4573               	.LM774:
 4574 1588 1BA7      		std Y+43,r17
 4575               	.LM775:
 4576 158a 81E0      		ldi r24,lo8(1)
 4577 158c 8CA7      		std Y+44,r24
 4578 158e FE01      		movw r30,r28
 4579 1590 BD96      		adiw r30,45
 4580 1592 83E0      		ldi r24,lo8(3)
 4581               	.LVL353:
 4582               	.L391:
 4583               	.LM776:
 4584 1594 1192      		st Z+,__zero_reg__
 4585               	.LM777:
 4586 1596 8F5F      		subi r24,lo8(-(1))
 4587               	.LM778:
 4588 1598 8A30      		cpi r24,lo8(10)
 4589 159a 01F4      		brne .L391
 4590               	.LM779:
 4591 159c 81E0      		ldi r24,lo8(1)
 4592               	.LVL354:
 4593 159e 8FA7      		std Y+47,r24
 4594 15a0 8DE0      		ldi r24,lo8(13)
 4595               	.LVL355:
 4596 15a2 3CE0      		ldi r19,lo8(12)
 4597               	.LVL356:
 4598 15a4 90E0      		ldi r25,lo8(0)
 4599               	.LVL357:
 4600 15a6 00C0      		rjmp .L392
 4601               	.LVL358:
 4602               	.L394:
 4603               	.LM780:
 4604 15a8 2E32      		cpi r18,lo8(46)
 4605 15aa 01F4      		brne .L393
 4606               	.LM781:
 4607 15ac FE01      		movw r30,r28
 4608               	.LVL359:
 4609 15ae E30F      		add r30,r19
 4610 15b0 F11D      		adc r31,__zero_reg__
 4611 15b2 92A7      		std Z+42,r25
 4612 15b4 382F      		mov r19,r24
 4613 15b6 90E0      		ldi r25,lo8(0)
 4614               	.LVL360:
 4615               	.L393:
 4616               	.LM782:
 4617 15b8 FE01      		movw r30,r28
 4618               	.LVL361:
 4619 15ba E80F      		add r30,r24
 4620 15bc F11D      		adc r31,__zero_reg__
 4621 15be 22A7      		std Z+42,r18
 4622               	.LM783:
 4623 15c0 9F5F      		subi r25,lo8(-(1))
 4624               	.LM784:
 4625 15c2 8F5F      		subi r24,lo8(-(1))
 4626               	.L392:
 4627 15c4 F701      		movw r30,r14
 4628               	.LVL362:
 4629               	.LBB316:
 4630               	.LM785:
 4631 15c6 0894      		sec
 4632 15c8 E11C      		adc r14,__zero_reg__
 4633 15ca F11C      		adc r15,__zero_reg__
 4634               	/* #APP */
 4635               	 ;  78 "dnslkup.c" 1
 4636 15cc 2491      		lpm r18, Z
 4637               		
 4638               	 ;  0 "" 2
 4639               	/* #NOAPP */
 4640               	.LBE316:
 4641 15ce 2223      		tst r18
 4642 15d0 01F4      		brne .L394
 4643               	.LM786:
 4644 15d2 FE01      		movw r30,r28
 4645               	.LVL363:
 4646 15d4 E30F      		add r30,r19
 4647 15d6 F11D      		adc r31,__zero_reg__
 4648 15d8 9150      		subi r25,lo8(-(-1))
 4649 15da 92A7      		std Z+42,r25
 4650               	.LM787:
 4651 15dc FE01      		movw r30,r28
 4652 15de E80F      		add r30,r24
 4653 15e0 F11D      		adc r31,__zero_reg__
 4654 15e2 12A6      		std Z+42,__zero_reg__
 4655               	.LM788:
 4656 15e4 8F5F      		subi r24,lo8(-(1))
 4657               	.LVL364:
 4658               	.LM789:
 4659 15e6 FE01      		movw r30,r28
 4660 15e8 E80F      		add r30,r24
 4661 15ea F11D      		adc r31,__zero_reg__
 4662 15ec 12A6      		std Z+42,__zero_reg__
 4663               	.LM790:
 4664 15ee 8F5F      		subi r24,lo8(-(1))
 4665               	.LVL365:
 4666               	.LM791:
 4667 15f0 FE01      		movw r30,r28
 4668 15f2 E80F      		add r30,r24
 4669 15f4 F11D      		adc r31,__zero_reg__
 4670 15f6 91E0      		ldi r25,lo8(1)
 4671               	.LVL366:
 4672 15f8 92A7      		std Z+42,r25
 4673               	.LM792:
 4674 15fa 682F      		mov r22,r24
 4675 15fc 6F5F      		subi r22,lo8(-(1))
 4676               	.LVL367:
 4677               	.LM793:
 4678 15fe FE01      		movw r30,r28
 4679 1600 E60F      		add r30,r22
 4680 1602 F11D      		adc r31,__zero_reg__
 4681 1604 12A6      		std Z+42,__zero_reg__
 4682               	.LM794:
 4683 1606 6F5F      		subi r22,lo8(-(1))
 4684               	.LVL368:
 4685               	.LM795:
 4686 1608 FE01      		movw r30,r28
 4687 160a E60F      		add r30,r22
 4688 160c F11D      		adc r31,__zero_reg__
 4689 160e 92A7      		std Z+42,r25
 4690               	.LM796:
 4691 1610 6F5F      		subi r22,lo8(-(1))
 4692               	.LM797:
 4693 1612 8950      		subi r24,lo8(-(-9))
 4694               	.LVL369:
 4695 1614 8AA7      		std Y+42,r24
 4696               	.LM798:
 4697 1616 CE01      		movw r24,r28
 4698               	.LVL370:
 4699 1618 0E94 0000 		call send_udp_transmit
 4700               	.LVL371:
 4701               	/* epilogue start */
 4702               	.LM799:
 4703 161c DF91      		pop r29
 4704 161e CF91      		pop r28
 4705               	.LVL372:
 4706 1620 1F91      		pop r17
 4707 1622 FF90      		pop r15
 4708 1624 EF90      		pop r14
 4709               	.LVL373:
 4710 1626 0895      		ret
 4711               	.LFE71:
 4713               	.global	udp_client_check_for_dns_answer
 4715               	udp_client_check_for_dns_answer:
 4716               	.LFB72:
 4717               	.LM800:
 4718               	.LVL374:
 4719 1628 CF93      		push r28
 4720 162a DF93      		push r29
 4721               	/* prologue: function */
 4722               	/* frame size = 0 */
 4723 162c EC01      		movw r28,r24
 4724               	.LM801:
 4725 162e 6634      		cpi r22,70
 4726 1630 7105      		cpc r23,__zero_reg__
 4727 1632 00F4      		brsh .+2
 4728 1634 00C0      		rjmp .L398
 4729               	.LVL375:
 4730               	.LM802:
 4731 1636 8BA1      		ldd r24,Y+35
 4732 1638 8533      		cpi r24,lo8(53)
 4733 163a 01F0      		breq .+2
 4734 163c 00C0      		rjmp .L398
 4735               	.LM803:
 4736 163e 8CA1      		ldd r24,Y+36
 4737 1640 803E      		cpi r24,lo8(-32)
 4738 1642 01F0      		breq .+2
 4739 1644 00C0      		rjmp .L398
 4740               	.LM804:
 4741 1646 9DA1      		ldd r25,Y+37
 4742 1648 8091 0000 		lds r24,dnstid_l
 4743 164c 9817      		cp r25,r24
 4744 164e 01F0      		breq .+2
 4745 1650 00C0      		rjmp .L398
 4746               	.LM805:
 4747 1652 8BA5      		ldd r24,Y+43
 4748 1654 8917      		cp r24,r25
 4749 1656 01F4      		brne .L398
 4750               	.LM806:
 4751 1658 8DA5      		ldd r24,Y+45
 4752 165a 8F78      		andi r24,lo8(-113)
 4753 165c 8038      		cpi r24,lo8(-128)
 4754 165e 01F0      		breq .L399
 4755               	.LM807:
 4756 1660 81E0      		ldi r24,lo8(1)
 4757 1662 00C0      		rjmp .L410
 4758               	.L399:
 4759               	.LM808:
 4760 1664 9AA5      		ldd r25,Y+42
 4761 1666 292F      		mov r18,r25
 4762               	.LVL376:
 4763 1668 245F      		subi r18,lo8(-(12))
 4764               	.LM809:
 4765 166a FE01      		movw r30,r28
 4766 166c E20F      		add r30,r18
 4767 166e F11D      		adc r31,__zero_reg__
 4768 1670 82A5      		ldd r24,Z+42
 4769 1672 807C      		andi r24,lo8(-64)
 4770 1674 01F0      		breq .L401
 4771               	.LM810:
 4772 1676 2E5F      		subi r18,lo8(-(2))
 4773 1678 00C0      		rjmp .L402
 4774               	.LVL377:
 4775               	.L403:
 4776               	.LM811:
 4777 167a 2F5F      		subi r18,lo8(-(1))
 4778               	.LVL378:
 4779               	.LM812:
 4780 167c FE01      		movw r30,r28
 4781 167e E20F      		add r30,r18
 4782 1680 F11D      		adc r31,__zero_reg__
 4783 1682 82A5      		ldd r24,Z+42
 4784 1684 8823      		tst r24
 4785 1686 01F4      		brne .L407
 4786               	.LM813:
 4787 1688 2F5F      		subi r18,lo8(-(1))
 4788 168a 00C0      		rjmp .L402
 4789               	.LVL379:
 4790               	.L401:
 4791               	.LM814:
 4792 168c 6153      		subi r22,lo8(-(-49))
 4793 168e 7040      		sbci r23,hi8(-(-49))
 4794               	.LVL380:
 4795               	.L407:
 4796 1690 822F      		mov r24,r18
 4797 1692 90E0      		ldi r25,lo8(0)
 4798 1694 8617      		cp r24,r22
 4799 1696 9707      		cpc r25,r23
 4800 1698 00F0      		brlo .L403
 4801               	.LVL381:
 4802               	.L402:
 4803               	.LM815:
 4804 169a FE01      		movw r30,r28
 4805 169c E20F      		add r30,r18
 4806 169e F11D      		adc r31,__zero_reg__
 4807 16a0 83A9      		ldd r24,Z+51
 4808 16a2 8430      		cpi r24,lo8(4)
 4809 16a4 01F0      		breq .L404
 4810               	.LM816:
 4811 16a6 82E0      		ldi r24,lo8(2)
 4812               	.L410:
 4813 16a8 8093 0000 		sts dns_ansError,r24
 4814 16ac 00C0      		rjmp .L398
 4815               	.L404:
 4816               	.LM817:
 4817 16ae 265F      		subi r18,lo8(-(10))
 4818 16b0 A22F      		mov r26,r18
 4819 16b2 B0E0      		ldi r27,lo8(0)
 4820 16b4 9A96      		adiw r26,42
 4821 16b6 AC0F      		add r26,r28
 4822 16b8 BD1F      		adc r27,r29
 4823 16ba E0E0      		ldi r30,lo8(dns_answerip)
 4824 16bc F0E0      		ldi r31,hi8(dns_answerip)
 4825               	.L405:
 4826               	.LM818:
 4827 16be 8D91      		ld r24,X+
 4828 16c0 8193      		st Z+,r24
 4829               	.LM819:
 4830 16c2 80E0      		ldi r24,hi8(dns_answerip+4)
 4831 16c4 E030      		cpi r30,lo8(dns_answerip+4)
 4832 16c6 F807      		cpc r31,r24
 4833 16c8 01F4      		brne .L405
 4834               	.LM820:
 4835 16ca 81E0      		ldi r24,lo8(1)
 4836 16cc 8093 0000 		sts haveDNSanswer,r24
 4837 16d0 00C0      		rjmp .L400
 4838               	.LVL382:
 4839               	.L398:
 4840               	.LM821:
 4841 16d2 80E0      		ldi r24,lo8(0)
 4842               	.L400:
 4843               	/* epilogue start */
 4844               	.LM822:
 4845 16d4 DF91      		pop r29
 4846 16d6 CF91      		pop r28
 4847               	.LVL383:
 4848 16d8 0895      		ret
 4849               	.LFE72:
 4851               	.global	http200ok
 4853               	http200ok:
 4854               	.LFB73:
 4855               	.LM823:
 4856               	/* prologue: function */
 4857               	/* frame size = 0 */
 4858               	.LM824:
 4859 16da 20E0      		ldi r18,lo8(0)
 4860 16dc 30E0      		ldi r19,hi8(0)
 4861               	.LVL384:
 4862 16de 00C0      		rjmp .L412
 4863               	.LVL385:
 4864               	.L413:
 4865               	.LBB317:
 4866               	.LBB318:
 4867               	.LM825:
 4868 16e0 F901      		movw r30,r18
 4869 16e2 E050      		subi r30,lo8(-(buf))
 4870 16e4 F040      		sbci r31,hi8(-(buf))
 4871 16e6 86AB      		std Z+54,r24
 4872               	.LM826:
 4873 16e8 2F5F      		subi r18,lo8(-(1))
 4874 16ea 3F4F      		sbci r19,hi8(-(1))
 4875               	.L412:
 4876               	.LBB319:
 4877               	.LM827:
 4878 16ec F901      		movw r30,r18
 4879 16ee E050      		subi r30,lo8(-(__c.3106))
 4880 16f0 F040      		sbci r31,hi8(-(__c.3106))
 4881               	/* #APP */
 4882               	 ;  463 "ip_arp_udp_tcp.c" 1
 4883 16f2 8491      		lpm r24, Z
 4884               		
 4885               	 ;  0 "" 2
 4886               	/* #NOAPP */
 4887               	.LBE319:
 4888 16f4 8823      		tst r24
 4889 16f6 01F4      		brne .L413
 4890               	.LBE318:
 4891               	.LBE317:
 4892               	.LM828:
 4893 16f8 C901      		movw r24,r18
 4894               	.LVL386:
 4895               	/* epilogue start */
 4896 16fa 0895      		ret
 4897               	.LFE73:
 4899               	.global	init_cnt2
 4901               	init_cnt2:
 4902               	.LFB75:
 4903               	.LM829:
 4904               	/* prologue: function */
 4905               	/* frame size = 0 */
 4906               	.LM830:
 4907 16fc 1092 0000 		sts cnt2step,__zero_reg__
 4908               	.LM831:
 4909 1700 85E0      		ldi r24,lo8(5)
 4910 1702 83BF      		out 83-32,r24
 4911               	.LM832:
 4912 1704 12BE      		out 82-32,__zero_reg__
 4913               	.LM833:
 4914 1706 81E0      		ldi r24,lo8(1)
 4915 1708 89BF      		out 89-32,r24
 4916               	/* epilogue start */
 4917               	.LM834:
 4918 170a 0895      		ret
 4919               	.LFE75:
 4921               	.global	__vector_9
 4923               	__vector_9:
 4924               	.LFB76:
 4925               	.LM835:
 4926 170c 1F92      		push __zero_reg__
 4927 170e 0F92      		push r0
 4928 1710 0FB6      		in r0,__SREG__
 4929 1712 0F92      		push r0
 4930 1714 1124      		clr __zero_reg__
 4931 1716 8F93      		push r24
 4932               	/* prologue: Signal */
 4933               	/* frame size = 0 */
 4934               	.LM836:
 4935 1718 8091 0000 		lds r24,cnt2step
 4936 171c 8F5F      		subi r24,lo8(-(1))
 4937 171e 8093 0000 		sts cnt2step,r24
 4938               	.LM837:
 4939 1722 8091 0000 		lds r24,cnt2step
 4940 1726 8D33      		cpi r24,lo8(61)
 4941 1728 00F0      		brlo .L419
 4942               	.LM838:
 4943 172a 1092 0000 		sts cnt2step,__zero_reg__
 4944               	.LM839:
 4945 172e 8091 0000 		lds r24,sec
 4946 1732 8F5F      		subi r24,lo8(-(1))
 4947 1734 8093 0000 		sts sec,r24
 4948               	.L419:
 4949               	/* epilogue start */
 4950               	.LM840:
 4951 1738 8F91      		pop r24
 4952 173a 0F90      		pop r0
 4953 173c 0FBE      		out __SREG__,r0
 4954 173e 0F90      		pop r0
 4955 1740 1F90      		pop __zero_reg__
 4956 1742 1895      		reti
 4957               	.LFE76:
 4959               	.global	ping_callback
 4961               	ping_callback:
 4962               	.LFB77:
 4963               	.LM841:
 4964               	.LVL387:
 4965               	/* prologue: function */
 4966               	/* frame size = 0 */
 4967 1744 AC01      		movw r20,r24
 4968               	.LM842:
 4969 1746 8091 0000 		lds r24,start_web_client
 4970               	.LVL388:
 4971 174a 8823      		tst r24
 4972 174c 01F4      		brne .L423
 4973               	.LM843:
 4974 174e 81E0      		ldi r24,lo8(1)
 4975 1750 8093 0000 		sts start_web_client,r24
 4976 1754 20E0      		ldi r18,lo8(0)
 4977 1756 30E0      		ldi r19,hi8(0)
 4978               	.L422:
 4979               	.LM844:
 4980 1758 F901      		movw r30,r18
 4981 175a E050      		subi r30,lo8(-(pingsrcip))
 4982 175c F040      		sbci r31,hi8(-(pingsrcip))
 4983 175e DA01      		movw r26,r20
 4984 1760 A20F      		add r26,r18
 4985 1762 B31F      		adc r27,r19
 4986 1764 8C91      		ld r24,X
 4987 1766 8083      		st Z,r24
 4988 1768 2F5F      		subi r18,lo8(-(1))
 4989 176a 3F4F      		sbci r19,hi8(-(1))
 4990               	.LM845:
 4991 176c 2430      		cpi r18,4
 4992 176e 3105      		cpc r19,__zero_reg__
 4993 1770 01F4      		brne .L422
 4994               	.L423:
 4995 1772 0895      		ret
 4996               	.LFE77:
 4998               	.global	browserresult_callback
 5000               	browserresult_callback:
 5001               	.LFB78:
 5002               	.LM846:
 5003               	.LVL389:
 5004               	/* prologue: function */
 5005               	/* frame size = 0 */
 5006               	.LM847:
 5007 1774 8823      		tst r24
 5008 1776 01F4      		brne .L427
 5009               	.LM848:
 5010 1778 8091 0000 		lds r24,web_client_sendok
 5011               	.LVL390:
 5012 177c 8F5F      		subi r24,lo8(-(1))
 5013 177e 8093 0000 		sts web_client_sendok,r24
 5014               	.LM849:
 5015 1782 DE9A      		sbi 59-32,6
 5016               	.LVL391:
 5017               	.L427:
 5018 1784 0895      		ret
 5019               	.LFE78:
 5021               		.data
 5022               	.LC0:
 5023 0000 3230 3000 		.string	"200"
 5024               		.text
 5025               	.global	www_client_internal_result_callback
 5027               	www_client_internal_result_callback:
 5028               	.LFB56:
 5029               	.LM850:
 5030               	.LVL392:
 5031 1786 EF92      		push r14
 5032 1788 FF92      		push r15
 5033 178a 0F93      		push r16
 5034 178c 1F93      		push r17
 5035 178e CF93      		push r28
 5036 1790 DF93      		push r29
 5037               	/* prologue: function */
 5038               	/* frame size = 0 */
 5039 1792 7901      		movw r14,r18
 5040               	.LM851:
 5041 1794 9091 0000 		lds r25,www_fd
 5042 1798 8917      		cp r24,r25
 5043 179a 01F0      		breq .L429
 5044               	.LVL393:
 5045               	.LM852:
 5046 179c E091 0000 		lds r30,client_browser_callback
 5047 17a0 F091 0000 		lds r31,(client_browser_callback)+1
 5048 17a4 84E0      		ldi r24,lo8(4)
 5049               	.LVL394:
 5050 17a6 60E0      		ldi r22,lo8(0)
 5051 17a8 70E0      		ldi r23,hi8(0)
 5052               	.LVL395:
 5053 17aa 40E0      		ldi r20,lo8(0)
 5054 17ac 50E0      		ldi r21,hi8(0)
 5055               	.LVL396:
 5056 17ae 0995      		icall
 5057 17b0 00C0      		rjmp .L430
 5058               	.LVL397:
 5059               	.L429:
 5060               	.LM853:
 5061 17b2 6623      		tst r22
 5062 17b4 01F4      		brne .L430
 5063 17b6 2D30      		cpi r18,13
 5064 17b8 3105      		cpc r19,__zero_reg__
 5065               	.LVL398:
 5066 17ba 00F0      		brlo .L430
 5067               	.LVL399:
 5068               	.LM854:
 5069 17bc C091 0000 		lds r28,client_browser_callback
 5070 17c0 D091 0000 		lds r29,(client_browser_callback)+1
 5071 17c4 2097      		sbiw r28,0
 5072 17c6 01F0      		breq .L430
 5073               	.LM855:
 5074 17c8 0091 0000 		lds r16,bufptr
 5075 17cc 1091 0000 		lds r17,(bufptr)+1
 5076 17d0 475F      		subi r20,lo8(-(9))
 5077 17d2 5F4F      		sbci r21,hi8(-(9))
 5078               	.LVL400:
 5079 17d4 400F      		add r20,r16
 5080 17d6 511F      		adc r21,r17
 5081 17d8 80E0      		ldi r24,lo8(.LC0)
 5082 17da 90E0      		ldi r25,hi8(.LC0)
 5083 17dc BA01      		movw r22,r20
 5084               	.LVL401:
 5085 17de 43E0      		ldi r20,lo8(3)
 5086 17e0 50E0      		ldi r21,hi8(3)
 5087               	.LVL402:
 5088 17e2 0E94 0000 		call strncmp
 5089               	.LVL403:
 5090 17e6 F801      		movw r30,r16
 5091 17e8 66A5      		ldd r22,Z+46
 5092 17ea 0097      		sbiw r24,0
 5093 17ec 01F4      		brne .L431
 5094               	.LM856:
 5095 17ee 6295      		swap r22
 5096 17f0 6F70      		andi r22,lo8(15)
 5097 17f2 70E0      		ldi r23,lo8(0)
 5098 17f4 660F      		lsl r22
 5099 17f6 771F      		rol r23
 5100 17f8 660F      		lsl r22
 5101 17fa 771F      		rol r23
 5102 17fc 6E5D      		subi r22,lo8(-(34))
 5103 17fe 7F4F      		sbci r23,hi8(-(34))
 5104 1800 80E0      		ldi r24,lo8(0)
 5105 1802 00C0      		rjmp .L433
 5106               	.L431:
 5107               	.LM857:
 5108 1804 6295      		swap r22
 5109 1806 6F70      		andi r22,lo8(15)
 5110 1808 70E0      		ldi r23,lo8(0)
 5111 180a 660F      		lsl r22
 5112 180c 771F      		rol r23
 5113 180e 660F      		lsl r22
 5114 1810 771F      		rol r23
 5115 1812 6E5D      		subi r22,lo8(-(34))
 5116 1814 7F4F      		sbci r23,hi8(-(34))
 5117 1816 81E0      		ldi r24,lo8(1)
 5118               	.L433:
 5119 1818 A701      		movw r20,r14
 5120 181a FE01      		movw r30,r28
 5121 181c 0995      		icall
 5122               	.LVL404:
 5123               	.L430:
 5124               	.LM858:
 5125 181e 80E0      		ldi r24,lo8(0)
 5126               	.LVL405:
 5127               	/* epilogue start */
 5128 1820 DF91      		pop r29
 5129 1822 CF91      		pop r28
 5130 1824 1F91      		pop r17
 5131 1826 0F91      		pop r16
 5132 1828 FF90      		pop r15
 5133 182a EF90      		pop r14
 5134               	.LVL406:
 5135 182c 0895      		ret
 5136               	.LFE56:
 5138               	.global	mk_net_str
 5140               	mk_net_str:
 5141               	.LFB67:
 5142               	.LM859:
 5143               	.LVL407:
 5144 182e BF92      		push r11
 5145 1830 CF92      		push r12
 5146 1832 DF92      		push r13
 5147 1834 EF92      		push r14
 5148 1836 FF92      		push r15
 5149 1838 0F93      		push r16
 5150               	.LVL408:
 5151 183a 1F93      		push r17
 5152 183c CF93      		push r28
 5153 183e DF93      		push r29
 5154               	/* prologue: function */
 5155               	/* frame size = 0 */
 5156 1840 7C01      		movw r14,r24
 5157 1842 B42E      		mov r11,r20
 5158 1844 C22E      		mov r12,r18
 5159 1846 D02E      		mov r13,r16
 5160               	.LVL409:
 5161               	.LM860:
 5162 1848 EB01      		movw r28,r22
 5163               	.LVL410:
 5164 184a 00E0      		ldi r16,lo8(0)
 5165               	.LVL411:
 5166 184c 10E0      		ldi r17,lo8(0)
 5167               	.LVL412:
 5168 184e 00C0      		rjmp .L435
 5169               	.LVL413:
 5170               	.L438:
 5171               	.LM861:
 5172 1850 B701      		movw r22,r14
 5173 1852 610F      		add r22,r17
 5174 1854 711D      		adc r23,__zero_reg__
 5175 1856 8881      		ld r24,Y
 5176 1858 90E0      		ldi r25,lo8(0)
 5177 185a 4D2D      		mov r20,r13
 5178 185c 50E0      		ldi r21,lo8(0)
 5179 185e 0E94 0000 		call itoa
 5180 1862 00C0      		rjmp .L436
 5181               	.LVL414:
 5182               	.L437:
 5183               	.LM862:
 5184 1864 192F      		mov r17,r25
 5185               	.LVL415:
 5186               	.L436:
 5187 1866 F701      		movw r30,r14
 5188 1868 E10F      		add r30,r17
 5189 186a F11D      		adc r31,__zero_reg__
 5190 186c 8081      		ld r24,Z
 5191 186e 912F      		mov r25,r17
 5192 1870 9F5F      		subi r25,lo8(-(1))
 5193               	.LVL416:
 5194 1872 8823      		tst r24
 5195 1874 01F4      		brne .L437
 5196               	.LM863:
 5197 1876 C082      		st Z,r12
 5198               	.LM864:
 5199 1878 192F      		mov r17,r25
 5200               	.LM865:
 5201 187a 0F5F      		subi r16,lo8(-(1))
 5202 187c 2196      		adiw r28,1
 5203               	.LVL417:
 5204               	.L435:
 5205               	.LM866:
 5206 187e 0B15      		cp r16,r11
 5207 1880 00F0      		brlo .L438
 5208               	.LM867:
 5209 1882 1150      		subi r17,lo8(-(-1))
 5210 1884 E10E      		add r14,r17
 5211 1886 F11C      		adc r15,__zero_reg__
 5212 1888 F701      		movw r30,r14
 5213 188a 1082      		st Z,__zero_reg__
 5214               	/* epilogue start */
 5215               	.LM868:
 5216 188c DF91      		pop r29
 5217 188e CF91      		pop r28
 5218 1890 1F91      		pop r17
 5219               	.LVL418:
 5220 1892 0F91      		pop r16
 5221               	.LVL419:
 5222 1894 FF90      		pop r15
 5223 1896 EF90      		pop r14
 5224               	.LVL420:
 5225 1898 DF90      		pop r13
 5226               	.LVL421:
 5227 189a CF90      		pop r12
 5228               	.LVL422:
 5229 189c BF90      		pop r11
 5230               	.LVL423:
 5231 189e 0895      		ret
 5232               	.LFE67:
 5234               	.global	parse_ip
 5236               	parse_ip:
 5237               	.LFB66:
 5238               	.LM869:
 5239               	.LVL424:
 5240 18a0 EF92      		push r14
 5241 18a2 FF92      		push r15
 5242 18a4 1F93      		push r17
 5243 18a6 CF93      		push r28
 5244 18a8 DF93      		push r29
 5245               	/* prologue: function */
 5246               	/* frame size = 0 */
 5247 18aa 7C01      		movw r14,r24
 5248 18ac EB01      		movw r28,r22
 5249               	.LM870:
 5250 18ae 80E0      		ldi r24,lo8(0)
 5251 18b0 90E0      		ldi r25,hi8(0)
 5252               	.LVL425:
 5253               	.L441:
 5254               	.LM871:
 5255 18b2 F701      		movw r30,r14
 5256 18b4 E80F      		add r30,r24
 5257 18b6 F91F      		adc r31,r25
 5258 18b8 1082      		st Z,__zero_reg__
 5259 18ba 0196      		adiw r24,1
 5260               	.LM872:
 5261 18bc 8430      		cpi r24,4
 5262 18be 9105      		cpc r25,__zero_reg__
 5263 18c0 01F4      		brne .L441
 5264 18c2 20E0      		ldi r18,lo8(0)
 5265 18c4 30E0      		ldi r19,hi8(0)
 5266               	.LVL426:
 5267 18c6 10E0      		ldi r17,lo8(0)
 5268               	.LVL427:
 5269 18c8 00C0      		rjmp .L442
 5270               	.L446:
 5271               	.LM873:
 5272 18ca 2115      		cp r18,__zero_reg__
 5273 18cc 3105      		cpc r19,__zero_reg__
 5274 18ce 01F4      		brne .L443
 5275 18d0 842F      		mov r24,r20
 5276 18d2 90E0      		ldi r25,lo8(0)
 5277 18d4 C097      		sbiw r24,48
 5278 18d6 0A97      		sbiw r24,10
 5279 18d8 00F4      		brsh .L443
 5280 18da 9E01      		movw r18,r28
 5281               	.L443:
 5282               	.LM874:
 5283 18dc 4E32      		cpi r20,lo8(46)
 5284 18de 01F4      		brne .L444
 5285               	.LM875:
 5286 18e0 1882      		st Y,__zero_reg__
 5287               	.LM876:
 5288 18e2 C901      		movw r24,r18
 5289 18e4 0E94 0000 		call atoi
 5290               	.LVL428:
 5291 18e8 F701      		movw r30,r14
 5292 18ea E10F      		add r30,r17
 5293 18ec F11D      		adc r31,__zero_reg__
 5294 18ee 8083      		st Z,r24
 5295               	.LM877:
 5296 18f0 1F5F      		subi r17,lo8(-(1))
 5297 18f2 20E0      		ldi r18,lo8(0)
 5298 18f4 30E0      		ldi r19,hi8(0)
 5299               	.LVL429:
 5300               	.L444:
 5301               	.LM878:
 5302 18f6 2196      		adiw r28,1
 5303               	.LVL430:
 5304               	.L442:
 5305               	.LM879:
 5306 18f8 4881      		ld r20,Y
 5307 18fa 4423      		tst r20
 5308 18fc 01F0      		breq .L445
 5309 18fe 1430      		cpi r17,lo8(4)
 5310 1900 00F0      		brlo .L446
 5311               	.L445:
 5312               	.LM880:
 5313 1902 1882      		st Y,__zero_reg__
 5314               	.LM881:
 5315 1904 1330      		cpi r17,lo8(3)
 5316 1906 01F0      		breq .L447
 5317 1908 81E0      		ldi r24,lo8(1)
 5318 190a 00C0      		rjmp .L448
 5319               	.L447:
 5320               	.LM882:
 5321 190c C901      		movw r24,r18
 5322 190e 0E94 0000 		call atoi
 5323               	.LVL431:
 5324 1912 F701      		movw r30,r14
 5325 1914 8383      		std Z+3,r24
 5326 1916 80E0      		ldi r24,lo8(0)
 5327               	.LVL432:
 5328               	.L448:
 5329               	/* epilogue start */
 5330               	.LM883:
 5331 1918 DF91      		pop r29
 5332 191a CF91      		pop r28
 5333               	.LVL433:
 5334 191c 1F91      		pop r17
 5335               	.LVL434:
 5336 191e FF90      		pop r15
 5337 1920 EF90      		pop r14
 5338               	.LVL435:
 5339 1922 0895      		ret
 5340               	.LFE66:
 5342               	.global	urlencode
 5344               	urlencode:
 5345               	.LFB65:
 5346               	.LM884:
 5347               	.LVL436:
 5348 1924 EF92      		push r14
 5349 1926 FF92      		push r15
 5350 1928 0F93      		push r16
 5351 192a 1F93      		push r17
 5352 192c CF93      		push r28
 5353 192e DF93      		push r29
 5354               	/* prologue: function */
 5355               	/* frame size = 0 */
 5356 1930 8B01      		movw r16,r22
 5357               	.LM885:
 5358 1932 EC01      		movw r28,r24
 5359 1934 2196      		adiw r28,1
 5360               	.LM886:
 5361 1936 95E2      		ldi r25,lo8(37)
 5362 1938 E92E      		mov r14,r25
 5363 193a 00C0      		rjmp .L452
 5364               	.LVL437:
 5365               	.L457:
 5366               	.LM887:
 5367 193c 80E2      		ldi r24,lo8(32)
 5368               	.LVL438:
 5369 193e F816      		cp r15,r24
 5370 1940 01F4      		brne .L453
 5371 1942 8BE2      		ldi r24,lo8(43)
 5372 1944 F82E      		mov r15,r24
 5373 1946 00C0      		rjmp .L454
 5374               	.L453:
 5375 1948 8F2D      		mov r24,r15
 5376 194a 90E0      		ldi r25,lo8(0)
 5377 194c 0E94 0000 		call isalnum
 5378 1950 892B      		or r24,r25
 5379 1952 01F0      		breq .L455
 5380               	.LVL439:
 5381               	.L454:
 5382               	.LM888:
 5383 1954 F801      		movw r30,r16
 5384 1956 F192      		st Z+,r15
 5385 1958 8F01      		movw r16,r30
 5386 195a 00C0      		rjmp .L456
 5387               	.L455:
 5388               	.LM889:
 5389 195c F801      		movw r30,r16
 5390 195e E192      		st Z+,r14
 5391 1960 8F01      		movw r16,r30
 5392               	.LVL440:
 5393               	.LM890:
 5394 1962 8F2D      		mov r24,r15
 5395 1964 BF01      		movw r22,r30
 5396 1966 0E94 0000 		call int2h
 5397               	.LM891:
 5398 196a 0E5F      		subi r16,lo8(-(2))
 5399 196c 1F4F      		sbci r17,hi8(-(2))
 5400               	.LVL441:
 5401               	.L456:
 5402 196e 2196      		adiw r28,1
 5403               	.LVL442:
 5404               	.L452:
 5405               	.LM892:
 5406 1970 FA90      		ld r15,-Y
 5407 1972 2196      		adiw r28,1
 5408 1974 FF20      		tst r15
 5409 1976 01F4      		brne .L457
 5410               	.LM893:
 5411 1978 F801      		movw r30,r16
 5412 197a 1082      		st Z,__zero_reg__
 5413               	/* epilogue start */
 5414               	.LM894:
 5415 197c DF91      		pop r29
 5416 197e CF91      		pop r28
 5417 1980 1F91      		pop r17
 5418 1982 0F91      		pop r16
 5419               	.LVL443:
 5420 1984 FF90      		pop r15
 5421               	.LVL444:
 5422 1986 EF90      		pop r14
 5423 1988 0895      		ret
 5424               	.LFE65:
 5426               	.global	fill_tcp_data
 5428               	fill_tcp_data:
 5429               	.LFB39:
 5430               	.LM895:
 5431               	.LVL445:
 5432 198a CF93      		push r28
 5433 198c DF93      		push r29
 5434               	/* prologue: function */
 5435               	/* frame size = 0 */
 5436               	.LM896:
 5437 198e DA01      		movw r26,r20
 5438 1990 0D90      		ld __tmp_reg__,X+
 5439 1992 0020      		tst __tmp_reg__
 5440 1994 01F4      		brne .-6
 5441 1996 1197      		sbiw r26,1
 5442 1998 A41B      		sub r26,r20
 5443               	.LVL446:
 5444 199a 6A5C      		subi r22,lo8(-(54))
 5445 199c 7F4F      		sbci r23,hi8(-(54))
 5446               	.LVL447:
 5447 199e EC01      		movw r28,r24
 5448 19a0 C60F      		add r28,r22
 5449 19a2 D71F      		adc r29,r23
 5450 19a4 6653      		subi r22,lo8(-(-54))
 5451 19a6 7040      		sbci r23,hi8(-(-54))
 5452 19a8 FA01      		movw r30,r20
 5453               	.LBB320:
 5454               	.LBB321:
 5455               	.LM897:
 5456 19aa B0E0      		ldi r27,lo8(0)
 5457               	.LM898:
 5458 19ac 9A01      		movw r18,r20
 5459 19ae 2A0F      		add r18,r26
 5460 19b0 3B1F      		adc r19,r27
 5461               	.LVL448:
 5462 19b2 00C0      		rjmp .L460
 5463               	.LVL449:
 5464               	.L461:
 5465               	.LM899:
 5466 19b4 8191      		ld r24,Z+
 5467               	.LVL450:
 5468 19b6 8993      		st Y+,r24
 5469               	.LVL451:
 5470               	.L460:
 5471               	.LM900:
 5472 19b8 E217      		cp r30,r18
 5473 19ba F307      		cpc r31,r19
 5474 19bc 01F4      		brne .L461
 5475 19be 9B01      		movw r18,r22
 5476 19c0 2A0F      		add r18,r26
 5477 19c2 3B1F      		adc r19,r27
 5478               	.LBE321:
 5479               	.LBE320:
 5480               	.LM901:
 5481 19c4 C901      		movw r24,r18
 5482               	.LVL452:
 5483               	/* epilogue start */
 5484 19c6 DF91      		pop r29
 5485 19c8 CF91      		pop r28
 5486 19ca 0895      		ret
 5487               	.LFE39:
 5489               	.global	print_webpage
 5491               	print_webpage:
 5492               	.LFB74:
 5493               	.LM902:
 5494               	.LVL453:
 5495 19cc CF92      		push r12
 5496 19ce DF92      		push r13
 5497 19d0 EF92      		push r14
 5498 19d2 FF92      		push r15
 5499 19d4 0F93      		push r16
 5500 19d6 1F93      		push r17
 5501 19d8 DF93      		push r29
 5502 19da CF93      		push r28
 5503 19dc 00D0      		rcall .
 5504 19de 00D0      		rcall .
 5505 19e0 0F92      		push __tmp_reg__
 5506 19e2 CDB7      		in r28,__SP_L__
 5507 19e4 DEB7      		in r29,__SP_H__
 5508               	/* prologue: function */
 5509               	/* frame size = 5 */
 5510 19e6 6C01      		movw r12,r24
 5511               	.LM903:
 5512 19e8 EE24      		clr r14
 5513 19ea FF24      		clr r15
 5514               	.LVL454:
 5515 19ec 00C0      		rjmp .L464
 5516               	.LVL455:
 5517               	.L465:
 5518               	.LBB322:
 5519               	.LBB323:
 5520               	.LBB324:
 5521               	.LBB325:
 5522               	.LM904:
 5523 19ee F701      		movw r30,r14
 5524 19f0 E050      		subi r30,lo8(-(buf))
 5525 19f2 F040      		sbci r31,hi8(-(buf))
 5526 19f4 86AB      		std Z+54,r24
 5527               	.LM905:
 5528 19f6 0894      		sec
 5529 19f8 E11C      		adc r14,__zero_reg__
 5530 19fa F11C      		adc r15,__zero_reg__
 5531               	.LVL456:
 5532               	.L464:
 5533               	.LBB326:
 5534               	.LM906:
 5535 19fc F701      		movw r30,r14
 5536 19fe E050      		subi r30,lo8(-(__c.3106))
 5537 1a00 F040      		sbci r31,hi8(-(__c.3106))
 5538               	/* #APP */
 5539               	 ;  463 "ip_arp_udp_tcp.c" 1
 5540 1a02 8491      		lpm r24, Z
 5541               		
 5542               	 ;  0 "" 2
 5543               	/* #NOAPP */
 5544               	.LBE326:
 5545 1a04 8823      		tst r24
 5546 1a06 01F4      		brne .L465
 5547 1a08 86E3      		ldi r24,lo8(54)
 5548 1a0a 90E0      		ldi r25,hi8(54)
 5549               	.LVL457:
 5550 1a0c E80E      		add r14,r24
 5551 1a0e F91E      		adc r15,r25
 5552 1a10 D601      		movw r26,r12
 5553 1a12 AE0D      		add r26,r14
 5554 1a14 BF1D      		adc r27,r15
 5555 1a16 8AEC      		ldi r24,lo8(-54)
 5556 1a18 9FEF      		ldi r25,hi8(-54)
 5557 1a1a E80E      		add r14,r24
 5558 1a1c F91E      		adc r15,r25
 5559               	.LM907:
 5560 1a1e 80E0      		ldi r24,lo8(__c.3115)
 5561 1a20 90E0      		ldi r25,hi8(__c.3115)
 5562               	.LVL458:
 5563 1a22 00C0      		rjmp .L466
 5564               	.LVL459:
 5565               	.L467:
 5566               	.LBE325:
 5567               	.LBE324:
 5568               	.LBE323:
 5569               	.LBE322:
 5570               	.LBB327:
 5571               	.LBB328:
 5572               	.LM908:
 5573 1a24 2D93      		st X+,r18
 5574               	.LM909:
 5575 1a26 0894      		sec
 5576 1a28 E11C      		adc r14,__zero_reg__
 5577 1a2a F11C      		adc r15,__zero_reg__
 5578               	.L466:
 5579 1a2c FC01      		movw r30,r24
 5580               	.LBB329:
 5581               	.LM910:
 5582 1a2e 0196      		adiw r24,1
 5583               	/* #APP */
 5584               	 ;  463 "ip_arp_udp_tcp.c" 1
 5585 1a30 2491      		lpm r18, Z
 5586               		
 5587               	 ;  0 "" 2
 5588               	/* #NOAPP */
 5589               	.LBE329:
 5590 1a32 2223      		tst r18
 5591 1a34 01F4      		brne .L467
 5592               	.LBE328:
 5593               	.LBE327:
 5594               	.LBB330:
 5595               	.LBB331:
 5596               	.LM911:
 5597 1a36 8091 0000 		lds r24,waitgwmac
 5598               	.LVL460:
 5599 1a3a 81FD      		sbrc r24,1
 5600 1a3c 00C0      		rjmp .L468
 5601 1a3e 86E3      		ldi r24,lo8(54)
 5602 1a40 90E0      		ldi r25,hi8(54)
 5603 1a42 E80E      		add r14,r24
 5604 1a44 F91E      		adc r15,r25
 5605 1a46 D601      		movw r26,r12
 5606 1a48 AE0D      		add r26,r14
 5607 1a4a BF1D      		adc r27,r15
 5608 1a4c 8AEC      		ldi r24,lo8(-54)
 5609 1a4e 9FEF      		ldi r25,hi8(-54)
 5610 1a50 E80E      		add r14,r24
 5611 1a52 F91E      		adc r15,r25
 5612               	.LM912:
 5613 1a54 80E0      		ldi r24,lo8(__c.3117)
 5614 1a56 90E0      		ldi r25,hi8(__c.3117)
 5615               	.LVL461:
 5616 1a58 00C0      		rjmp .L469
 5617               	.LVL462:
 5618               	.L468:
 5619               	.LBE331:
 5620               	.LBE330:
 5621               	.LM913:
 5622 1a5a 8091 0000 		lds r24,dns_state
 5623 1a5e 9701      		movw r18,r14
 5624               	.LVL463:
 5625 1a60 2A5C      		subi r18,lo8(-(54))
 5626 1a62 3F4F      		sbci r19,hi8(-(54))
 5627 1a64 8130      		cpi r24,lo8(1)
 5628 1a66 01F0      		breq .L470
 5629 1a68 D601      		movw r26,r12
 5630 1a6a A20F      		add r26,r18
 5631 1a6c B31F      		adc r27,r19
 5632               	.LM914:
 5633 1a6e 80E0      		ldi r24,lo8(__c.3121)
 5634 1a70 90E0      		ldi r25,hi8(__c.3121)
 5635               	.LVL464:
 5636 1a72 00C0      		rjmp .L471
 5637               	.LVL465:
 5638               	.L470:
 5639 1a74 D601      		movw r26,r12
 5640 1a76 A20F      		add r26,r18
 5641 1a78 B31F      		adc r27,r19
 5642               	.LM915:
 5643 1a7a 80E0      		ldi r24,lo8(__c.3119)
 5644 1a7c 90E0      		ldi r25,hi8(__c.3119)
 5645               	.LVL466:
 5646 1a7e 00C0      		rjmp .L472
 5647               	.LVL467:
 5648               	.L473:
 5649               	.LBB332:
 5650               	.LBB333:
 5651               	.LM916:
 5652 1a80 2D93      		st X+,r18
 5653               	.LM917:
 5654 1a82 0894      		sec
 5655 1a84 E11C      		adc r14,__zero_reg__
 5656 1a86 F11C      		adc r15,__zero_reg__
 5657               	.LVL468:
 5658               	.L469:
 5659 1a88 FC01      		movw r30,r24
 5660               	.LVL469:
 5661               	.LBB334:
 5662               	.LM918:
 5663 1a8a 0196      		adiw r24,1
 5664               	/* #APP */
 5665               	 ;  463 "ip_arp_udp_tcp.c" 1
 5666 1a8c 2491      		lpm r18, Z
 5667               		
 5668               	 ;  0 "" 2
 5669               	.LVL470:
 5670               	/* #NOAPP */
 5671               	.LBE334:
 5672 1a8e 2223      		tst r18
 5673 1a90 01F4      		brne .L473
 5674 1a92 00C0      		rjmp .L474
 5675               	.LVL471:
 5676               	.L475:
 5677               	.LBE333:
 5678               	.LBE332:
 5679               	.LBB335:
 5680               	.LBB336:
 5681               	.LM919:
 5682 1a94 2D93      		st X+,r18
 5683               	.LM920:
 5684 1a96 0894      		sec
 5685 1a98 E11C      		adc r14,__zero_reg__
 5686 1a9a F11C      		adc r15,__zero_reg__
 5687               	.LVL472:
 5688               	.L472:
 5689 1a9c FC01      		movw r30,r24
 5690               	.LVL473:
 5691               	.LBB337:
 5692               	.LM921:
 5693 1a9e 0196      		adiw r24,1
 5694               	/* #APP */
 5695               	 ;  463 "ip_arp_udp_tcp.c" 1
 5696 1aa0 2491      		lpm r18, Z
 5697               		
 5698               	 ;  0 "" 2
 5699               	/* #NOAPP */
 5700               	.LBE337:
 5701 1aa2 2223      		tst r18
 5702 1aa4 01F4      		brne .L475
 5703 1aa6 00C0      		rjmp .L474
 5704               	.LVL474:
 5705               	.L476:
 5706               	.LBE336:
 5707               	.LBE335:
 5708               	.LBB338:
 5709               	.LBB339:
 5710               	.LM922:
 5711 1aa8 2D93      		st X+,r18
 5712               	.LM923:
 5713 1aaa 0894      		sec
 5714 1aac E11C      		adc r14,__zero_reg__
 5715 1aae F11C      		adc r15,__zero_reg__
 5716               	.LVL475:
 5717               	.L471:
 5718 1ab0 FC01      		movw r30,r24
 5719               	.LVL476:
 5720               	.LBB340:
 5721               	.LM924:
 5722 1ab2 0196      		adiw r24,1
 5723               	/* #APP */
 5724               	 ;  463 "ip_arp_udp_tcp.c" 1
 5725 1ab4 2491      		lpm r18, Z
 5726               		
 5727               	 ;  0 "" 2
 5728               	/* #NOAPP */
 5729               	.LBE340:
 5730 1ab6 2223      		tst r18
 5731 1ab8 01F4      		brne .L476
 5732               	.LBE339:
 5733               	.LBE338:
 5734               	.LM925:
 5735 1aba 8091 0000 		lds r24,web_client_attempts
 5736               	.LVL477:
 5737 1abe 90E0      		ldi r25,lo8(0)
 5738 1ac0 8E01      		movw r16,r28
 5739 1ac2 0F5F      		subi r16,lo8(-(1))
 5740 1ac4 1F4F      		sbci r17,hi8(-(1))
 5741 1ac6 B801      		movw r22,r16
 5742 1ac8 4AE0      		ldi r20,lo8(10)
 5743 1aca 50E0      		ldi r21,hi8(10)
 5744 1acc 0E94 0000 		call itoa
 5745               	.LVL478:
 5746               	.LM926:
 5747 1ad0 C601      		movw r24,r12
 5748 1ad2 B701      		movw r22,r14
 5749 1ad4 A801      		movw r20,r16
 5750 1ad6 0E94 0000 		call fill_tcp_data
 5751 1ada 7C01      		movw r14,r24
 5752               	.LVL479:
 5753 1adc 86E3      		ldi r24,lo8(54)
 5754 1ade 90E0      		ldi r25,hi8(54)
 5755 1ae0 E80E      		add r14,r24
 5756 1ae2 F91E      		adc r15,r25
 5757 1ae4 D601      		movw r26,r12
 5758 1ae6 AE0D      		add r26,r14
 5759 1ae8 BF1D      		adc r27,r15
 5760 1aea 8AEC      		ldi r24,lo8(-54)
 5761 1aec 9FEF      		ldi r25,hi8(-54)
 5762 1aee E80E      		add r14,r24
 5763 1af0 F91E      		adc r15,r25
 5764               	.LM927:
 5765 1af2 80E0      		ldi r24,lo8(__c.3123)
 5766 1af4 90E0      		ldi r25,hi8(__c.3123)
 5767               	.LVL480:
 5768 1af6 00C0      		rjmp .L477
 5769               	.LVL481:
 5770               	.L478:
 5771               	.LBB341:
 5772               	.LBB342:
 5773               	.LM928:
 5774 1af8 2D93      		st X+,r18
 5775               	.LM929:
 5776 1afa 0894      		sec
 5777 1afc E11C      		adc r14,__zero_reg__
 5778 1afe F11C      		adc r15,__zero_reg__
 5779               	.L477:
 5780 1b00 FC01      		movw r30,r24
 5781               	.LBB343:
 5782               	.LM930:
 5783 1b02 0196      		adiw r24,1
 5784               	/* #APP */
 5785               	 ;  463 "ip_arp_udp_tcp.c" 1
 5786 1b04 2491      		lpm r18, Z
 5787               		
 5788               	 ;  0 "" 2
 5789               	/* #NOAPP */
 5790               	.LBE343:
 5791 1b06 2223      		tst r18
 5792 1b08 01F4      		brne .L478
 5793               	.LBE342:
 5794               	.LBE341:
 5795               	.LM931:
 5796 1b0a 8091 0000 		lds r24,web_client_sendok
 5797               	.LVL482:
 5798 1b0e 90E0      		ldi r25,lo8(0)
 5799 1b10 8E01      		movw r16,r28
 5800 1b12 0F5F      		subi r16,lo8(-(1))
 5801 1b14 1F4F      		sbci r17,hi8(-(1))
 5802 1b16 B801      		movw r22,r16
 5803 1b18 4AE0      		ldi r20,lo8(10)
 5804 1b1a 50E0      		ldi r21,hi8(10)
 5805 1b1c 0E94 0000 		call itoa
 5806               	.LVL483:
 5807               	.LM932:
 5808 1b20 C601      		movw r24,r12
 5809 1b22 B701      		movw r22,r14
 5810 1b24 A801      		movw r20,r16
 5811 1b26 0E94 0000 		call fill_tcp_data
 5812 1b2a 7C01      		movw r14,r24
 5813               	.LVL484:
 5814 1b2c 86E3      		ldi r24,lo8(54)
 5815 1b2e 90E0      		ldi r25,hi8(54)
 5816 1b30 E80E      		add r14,r24
 5817 1b32 F91E      		adc r15,r25
 5818 1b34 D601      		movw r26,r12
 5819 1b36 AE0D      		add r26,r14
 5820 1b38 BF1D      		adc r27,r15
 5821 1b3a 8AEC      		ldi r24,lo8(-54)
 5822 1b3c 9FEF      		ldi r25,hi8(-54)
 5823 1b3e E80E      		add r14,r24
 5824 1b40 F91E      		adc r15,r25
 5825               	.LM933:
 5826 1b42 80E0      		ldi r24,lo8(__c.3125)
 5827 1b44 90E0      		ldi r25,hi8(__c.3125)
 5828               	.LVL485:
 5829 1b46 00C0      		rjmp .L479
 5830               	.LVL486:
 5831               	.L480:
 5832               	.LBB344:
 5833               	.LBB345:
 5834               	.LM934:
 5835 1b48 2D93      		st X+,r18
 5836               	.LM935:
 5837 1b4a 0894      		sec
 5838 1b4c E11C      		adc r14,__zero_reg__
 5839 1b4e F11C      		adc r15,__zero_reg__
 5840               	.L479:
 5841 1b50 FC01      		movw r30,r24
 5842               	.LBB346:
 5843               	.LM936:
 5844 1b52 0196      		adiw r24,1
 5845               	/* #APP */
 5846               	 ;  463 "ip_arp_udp_tcp.c" 1
 5847 1b54 2491      		lpm r18, Z
 5848               		
 5849               	 ;  0 "" 2
 5850               	/* #NOAPP */
 5851               	.LBE346:
 5852 1b56 2223      		tst r18
 5853 1b58 01F4      		brne .L480
 5854 1b5a 86E3      		ldi r24,lo8(54)
 5855 1b5c 90E0      		ldi r25,hi8(54)
 5856               	.LVL487:
 5857 1b5e E80E      		add r14,r24
 5858 1b60 F91E      		adc r15,r25
 5859 1b62 D601      		movw r26,r12
 5860 1b64 AE0D      		add r26,r14
 5861 1b66 BF1D      		adc r27,r15
 5862 1b68 8AEC      		ldi r24,lo8(-54)
 5863 1b6a 9FEF      		ldi r25,hi8(-54)
 5864 1b6c E80E      		add r14,r24
 5865 1b6e F91E      		adc r15,r25
 5866               	.LM937:
 5867 1b70 80E0      		ldi r24,lo8(__c.3127)
 5868 1b72 90E0      		ldi r25,hi8(__c.3127)
 5869               	.LVL488:
 5870 1b74 00C0      		rjmp .L481
 5871               	.LVL489:
 5872               	.L482:
 5873               	.LBE345:
 5874               	.LBE344:
 5875               	.LBB347:
 5876               	.LBB348:
 5877               	.LM938:
 5878 1b76 2D93      		st X+,r18
 5879               	.LM939:
 5880 1b78 0894      		sec
 5881 1b7a E11C      		adc r14,__zero_reg__
 5882 1b7c F11C      		adc r15,__zero_reg__
 5883               	.LVL490:
 5884               	.L481:
 5885 1b7e FC01      		movw r30,r24
 5886               	.LVL491:
 5887               	.LBB349:
 5888               	.LM940:
 5889 1b80 0196      		adiw r24,1
 5890               	/* #APP */
 5891               	 ;  463 "ip_arp_udp_tcp.c" 1
 5892 1b82 2491      		lpm r18, Z
 5893               		
 5894               	 ;  0 "" 2
 5895               	.LVL492:
 5896               	/* #NOAPP */
 5897               	.LBE349:
 5898 1b84 2223      		tst r18
 5899 1b86 01F4      		brne .L482
 5900               	.LVL493:
 5901               	.L474:
 5902               	.LBE348:
 5903               	.LBE347:
 5904               	.LM941:
 5905 1b88 C701      		movw r24,r14
 5906               	.LVL494:
 5907               	/* epilogue start */
 5908 1b8a 0F90      		pop __tmp_reg__
 5909 1b8c 0F90      		pop __tmp_reg__
 5910 1b8e 0F90      		pop __tmp_reg__
 5911 1b90 0F90      		pop __tmp_reg__
 5912 1b92 0F90      		pop __tmp_reg__
 5913 1b94 CF91      		pop r28
 5914 1b96 DF91      		pop r29
 5915 1b98 1F91      		pop r17
 5916 1b9a 0F91      		pop r16
 5917 1b9c FF90      		pop r15
 5918 1b9e EF90      		pop r14
 5919 1ba0 DF90      		pop r13
 5920 1ba2 CF90      		pop r12
 5921               	.LVL495:
 5922 1ba4 0895      		ret
 5923               	.LFE74:
 5925               		.data
 5926               	.LC1:
 5927 0004 4745 5420 		.string	"GET "
 5927      00
 5928               	.LC2:
 5929 0009 2F20 00   		.string	"/ "
 5930               		.text
 5931               	.global	main
 5933               	main:
 5934               	.LFB79:
 5935               	.LM942:
 5936 1ba6 2F92      		push r2
 5937 1ba8 3F92      		push r3
 5938 1baa 4F92      		push r4
 5939 1bac 5F92      		push r5
 5940 1bae 6F92      		push r6
 5941 1bb0 7F92      		push r7
 5942 1bb2 8F92      		push r8
 5943 1bb4 9F92      		push r9
 5944 1bb6 AF92      		push r10
 5945 1bb8 BF92      		push r11
 5946 1bba CF92      		push r12
 5947 1bbc DF92      		push r13
 5948 1bbe EF92      		push r14
 5949 1bc0 FF92      		push r15
 5950 1bc2 0F93      		push r16
 5951 1bc4 1F93      		push r17
 5952 1bc6 DF93      		push r29
 5953 1bc8 CF93      		push r28
 5954 1bca CDB7      		in r28,__SP_L__
 5955 1bcc DEB7      		in r29,__SP_H__
 5956 1bce 6497      		sbiw r28,20
 5957 1bd0 0FB6      		in __tmp_reg__,__SREG__
 5958 1bd2 F894      		cli
 5959 1bd4 DEBF      		out __SP_H__,r29
 5960 1bd6 0FBE      		out __SREG__,__tmp_reg__
 5961 1bd8 CDBF      		out __SP_L__,r28
 5962               	/* prologue: function */
 5963               	/* frame size = 20 */
 5964               	.LBB350:
 5965               	.LBB351:
 5966               	.LM943:
 5967 1bda 10E0      		ldi r17,lo8(0)
 5968 1bdc 812F      		mov r24,r17
 5969               	.LVL496:
 5970               	/* #APP */
 5971               	 ;  83 "c:/winavr/lib/gcc/../../avr/include/util/delay_basic.h" 1
 5972 1bde 8A95      		1: dec r24
 5973 1be0 01F4      		brne 1b
 5974               	 ;  0 "" 2
 5975               	/* #NOAPP */
 5976               	.LBE351:
 5977               	.LBE350:
 5978               	.LM944:
 5979 1be2 80E0      		ldi r24,lo8(mymac)
 5980 1be4 90E0      		ldi r25,hi8(mymac)
 5981               	.LVL497:
 5982 1be6 0E94 0000 		call enc28j60Init
 5983               	.LM945:
 5984 1bea 82E0      		ldi r24,lo8(2)
 5985 1bec 0E94 0000 		call enc28j60clkout
 5986               	.LBB352:
 5987               	.LBB353:
 5988               	.LM946:
 5989               	/* #APP */
 5990               	 ;  83 "c:/winavr/lib/gcc/../../avr/include/util/delay_basic.h" 1
 5991 1bf0 1A95      		1: dec r17
 5992 1bf2 01F4      		brne 1b
 5993               	 ;  0 "" 2
 5994               	.LVL498:
 5995               	/* #NOAPP */
 5996               	.LBE353:
 5997               	.LBE352:
 5998               	.LBB354:
 5999               	.LBB355:
 6000               	.LM947:
 6001 1bf4 1092 0000 		sts cnt2step,__zero_reg__
 6002               	.LM948:
 6003 1bf8 85E0      		ldi r24,lo8(5)
 6004 1bfa 83BF      		out 83-32,r24
 6005               	.LM949:
 6006 1bfc 12BE      		out 82-32,__zero_reg__
 6007               	.LM950:
 6008 1bfe 81E0      		ldi r24,lo8(1)
 6009 1c00 89BF      		out 89-32,r24
 6010               	.LBE355:
 6011               	.LBE354:
 6012               	.LM951:
 6013               	/* #APP */
 6014               	 ;  174 "main.c" 1
 6015 1c02 7894      		sei
 6016               	 ;  0 "" 2
 6017               	.LM952:
 6018               	/* #NOAPP */
 6019 1c04 84E1      		ldi r24,lo8(20)
 6020 1c06 66E7      		ldi r22,lo8(1142)
 6021 1c08 74E0      		ldi r23,hi8(1142)
 6022 1c0a 0E94 0000 		call enc28j60PhyWrite
 6023               	.LM953:
 6024 1c0e D69A      		sbi 58-32,6
 6025               	.LM954:
 6026 1c10 DE9A      		sbi 59-32,6
 6027               	.LBB356:
 6028               	.LBB357:
 6029               	.LM955:
 6030 1c12 1092 0000 		sts wwwport_h,__zero_reg__
 6031               	.LM956:
 6032 1c16 80E5      		ldi r24,lo8(80)
 6033 1c18 8093 0000 		sts wwwport_l,r24
 6034 1c1c 20E0      		ldi r18,lo8(0)
 6035 1c1e 30E0      		ldi r19,hi8(0)
 6036               	.L485:
 6037               	.LM957:
 6038 1c20 F901      		movw r30,r18
 6039 1c22 E050      		subi r30,lo8(-(ipaddr))
 6040 1c24 F040      		sbci r31,hi8(-(ipaddr))
 6041 1c26 D901      		movw r26,r18
 6042 1c28 A050      		subi r26,lo8(-(myip))
 6043 1c2a B040      		sbci r27,hi8(-(myip))
 6044 1c2c 8C91      		ld r24,X
 6045 1c2e 8083      		st Z,r24
 6046 1c30 2F5F      		subi r18,lo8(-(1))
 6047 1c32 3F4F      		sbci r19,hi8(-(1))
 6048               	.LM958:
 6049 1c34 2430      		cpi r18,4
 6050 1c36 3105      		cpc r19,__zero_reg__
 6051 1c38 01F4      		brne .L485
 6052 1c3a 20E0      		ldi r18,lo8(0)
 6053 1c3c 30E0      		ldi r19,hi8(0)
 6054               	.L486:
 6055               	.LM959:
 6056 1c3e F901      		movw r30,r18
 6057 1c40 E050      		subi r30,lo8(-(macaddr))
 6058 1c42 F040      		sbci r31,hi8(-(macaddr))
 6059 1c44 D901      		movw r26,r18
 6060 1c46 A050      		subi r26,lo8(-(mymac))
 6061 1c48 B040      		sbci r27,hi8(-(mymac))
 6062 1c4a 8C91      		ld r24,X
 6063 1c4c 8083      		st Z,r24
 6064 1c4e 2F5F      		subi r18,lo8(-(1))
 6065 1c50 3F4F      		sbci r19,hi8(-(1))
 6066               	.LM960:
 6067 1c52 2630      		cpi r18,6
 6068 1c54 3105      		cpc r19,__zero_reg__
 6069 1c56 01F4      		brne .L486
 6070               	.LBE357:
 6071               	.LBE356:
 6072               	.LBB358:
 6073               	.LBB359:
 6074               	.LM961:
 6075 1c58 81E0      		ldi r24,lo8(1)
 6076 1c5a 8093 0000 		sts waitgwmac,r24
 6077 1c5e 80E0      		ldi r24,lo8(gwip)
 6078 1c60 90E0      		ldi r25,hi8(gwip)
 6079               	.L487:
 6080               	.LM962:
 6081 1c62 0196      		adiw r24,1
 6082               	.LM963:
 6083 1c64 20E0      		ldi r18,hi8(gwip+4)
 6084 1c66 8030      		cpi r24,lo8(gwip+4)
 6085 1c68 9207      		cpc r25,r18
 6086 1c6a 01F4      		brne .L487
 6087               	.LBE359:
 6088               	.LBE358:
 6089               	.LBB360:
 6090               	.LBB361:
 6091               	.LM964:
 6092 1c6c 80E0      		ldi r24,lo8(gs(ping_callback))
 6093 1c6e 90E0      		ldi r25,hi8(gs(ping_callback))
 6094 1c70 9093 0000 		sts (icmp_callback)+1,r25
 6095 1c74 8093 0000 		sts icmp_callback,r24
 6096               	.LBE361:
 6097               	.LBE360:
 6098               	.LM965:
 6099 1c78 6E01      		movw r12,r28
 6100 1c7a 0894      		sec
 6101 1c7c C11C      		adc r12,__zero_reg__
 6102 1c7e D11C      		adc r13,__zero_reg__
 6103               	.LM966:
 6104 1c80 60E0      		ldi r22,lo8(urlvarstr)
 6105 1c82 262E      		mov r2,r22
 6106 1c84 60E0      		ldi r22,hi8(urlvarstr)
 6107 1c86 362E      		mov r3,r22
 6108               	.LBB362:
 6109               	.LBB363:
 6110               	.LM967:
 6111 1c88 50E0      		ldi r21,lo8(__c.3195)
 6112 1c8a 452E      		mov r4,r21
 6113 1c8c 50E0      		ldi r21,hi8(__c.3195)
 6114 1c8e 552E      		mov r5,r21
 6115               	.LM968:
 6116 1c90 40E0      		ldi r20,lo8(gs(browserresult_callback))
 6117 1c92 842E      		mov r8,r20
 6118 1c94 40E0      		ldi r20,hi8(gs(browserresult_callback))
 6119 1c96 942E      		mov r9,r20
 6120               	.LBB364:
 6121               	.LBB365:
 6122               	.LM969:
 6123 1c98 30E0      		ldi r19,lo8(gs(www_client_internal_result_callback))
 6124 1c9a 632E      		mov r6,r19
 6125 1c9c 30E0      		ldi r19,hi8(gs(www_client_internal_result_callback))
 6126 1c9e 732E      		mov r7,r19
 6127               	.LM970:
 6128 1ca0 20E0      		ldi r18,lo8(gs(www_client_internal_datafill_callback))
 6129 1ca2 A22E      		mov r10,r18
 6130 1ca4 20E0      		ldi r18,hi8(gs(www_client_internal_datafill_callback))
 6131 1ca6 B22E      		mov r11,r18
 6132               	.LVL499:
 6133               	.L515:
 6134               	.LBE365:
 6135               	.LBE364:
 6136               	.LBE363:
 6137               	.LBE362:
 6138               	.LM971:
 6139 1ca8 8AE8      		ldi r24,lo8(650)
 6140 1caa 92E0      		ldi r25,hi8(650)
 6141 1cac 60E0      		ldi r22,lo8(buf)
 6142 1cae 70E0      		ldi r23,hi8(buf)
 6143 1cb0 0E94 0000 		call enc28j60PacketReceive
 6144 1cb4 8C01      		movw r16,r24
 6145               	.LM972:
 6146 1cb6 80E0      		ldi r24,lo8(buf)
 6147 1cb8 90E0      		ldi r25,hi8(buf)
 6148 1cba B801      		movw r22,r16
 6149 1cbc 0E94 0000 		call packetloop_icmp_tcp
 6150 1cc0 7C01      		movw r14,r24
 6151               	.LM973:
 6152 1cc2 0115      		cp r16,__zero_reg__
 6153 1cc4 1105      		cpc r17,__zero_reg__
 6154 1cc6 01F0      		breq .+2
 6155 1cc8 00C0      		rjmp .L488
 6156               	.LBB369:
 6157               	.LBB370:
 6158               	.LM974:
 6159 1cca 8091 0000 		lds r24,waitgwmac
 6160 1cce 81FF      		sbrs r24,1
 6161 1cd0 00C0      		rjmp .L515
 6162               	.LBE370:
 6163               	.LBE369:
 6164               	.LM975:
 6165 1cd2 8091 0000 		lds r24,dns_state
 6166 1cd6 8823      		tst r24
 6167 1cd8 01F4      		brne .L490
 6168               	.LM976:
 6169 1cda 1092 0000 		sts sec,__zero_reg__
 6170               	.LM977:
 6171 1cde 81E0      		ldi r24,lo8(1)
 6172 1ce0 8093 0000 		sts dns_state,r24
 6173               	.LM978:
 6174 1ce4 80E0      		ldi r24,lo8(buf)
 6175 1ce6 90E0      		ldi r25,hi8(buf)
 6176 1ce8 60E0      		ldi r22,lo8(__c.3191)
 6177 1cea 70E0      		ldi r23,hi8(__c.3191)
 6178 1cec 0E94 0000 		call dnslkup_request
 6179 1cf0 00C0      		rjmp .L515
 6180               	.L490:
 6181               	.LM979:
 6182 1cf2 8130      		cpi r24,lo8(1)
 6183 1cf4 01F4      		brne .L491
 6184 1cf6 8091 0000 		lds r24,haveDNSanswer
 6185 1cfa 8823      		tst r24
 6186 1cfc 01F0      		breq .L491
 6187               	.LM980:
 6188 1cfe 92E0      		ldi r25,lo8(2)
 6189 1d00 9093 0000 		sts dns_state,r25
 6190 1d04 20E0      		ldi r18,lo8(0)
 6191 1d06 30E0      		ldi r19,hi8(0)
 6192               	.L492:
 6193               	.LBB371:
 6194               	.LBB372:
 6195               	.LM981:
 6196 1d08 F901      		movw r30,r18
 6197 1d0a E050      		subi r30,lo8(-(tcpsrvip))
 6198 1d0c F040      		sbci r31,hi8(-(tcpsrvip))
 6199 1d0e D901      		movw r26,r18
 6200 1d10 A050      		subi r26,lo8(-(dns_answerip))
 6201 1d12 B040      		sbci r27,hi8(-(dns_answerip))
 6202 1d14 8C91      		ld r24,X
 6203 1d16 8083      		st Z,r24
 6204 1d18 2F5F      		subi r18,lo8(-(1))
 6205 1d1a 3F4F      		sbci r19,hi8(-(1))
 6206               	.LM982:
 6207 1d1c 2430      		cpi r18,4
 6208 1d1e 3105      		cpc r19,__zero_reg__
 6209 1d20 01F4      		brne .L492
 6210               	.L491:
 6211               	.LBE372:
 6212               	.LBE371:
 6213               	.LM983:
 6214 1d22 8091 0000 		lds r24,dns_state
 6215 1d26 8230      		cpi r24,lo8(2)
 6216 1d28 01F0      		breq .L493
 6217               	.LM984:
 6218 1d2a 8091 0000 		lds r24,sec
 6219 1d2e 8D33      		cpi r24,lo8(61)
 6220 1d30 00F4      		brsh .+2
 6221 1d32 00C0      		rjmp .L515
 6222               	.LM985:
 6223 1d34 1092 0000 		sts dns_state,__zero_reg__
 6224 1d38 00C0      		rjmp .L515
 6225               	.L493:
 6226               	.LM986:
 6227 1d3a 1091 0000 		lds r17,start_web_client
 6228               	.LVL500:
 6229 1d3e 1130      		cpi r17,lo8(1)
 6230 1d40 01F0      		breq .+2
 6231 1d42 00C0      		rjmp .L494
 6232               	.LM987:
 6233 1d44 DE98      		cbi 59-32,6
 6234               	.LM988:
 6235 1d46 1092 0000 		sts sec,__zero_reg__
 6236               	.LM989:
 6237 1d4a 8093 0000 		sts start_web_client,r24
 6238               	.LM990:
 6239 1d4e 8091 0000 		lds r24,web_client_attempts
 6240 1d52 8F5F      		subi r24,lo8(-(1))
 6241 1d54 8093 0000 		sts web_client_attempts,r24
 6242               	.LM991:
 6243 1d58 C601      		movw r24,r12
 6244 1d5a 60E0      		ldi r22,lo8(pingsrcip)
 6245 1d5c 70E0      		ldi r23,hi8(pingsrcip)
 6246 1d5e 44E0      		ldi r20,lo8(4)
 6247 1d60 2EE2      		ldi r18,lo8(46)
 6248 1d62 0AE0      		ldi r16,lo8(10)
 6249               	.LVL501:
 6250 1d64 0E94 0000 		call mk_net_str
 6251               	.LM992:
 6252 1d68 C601      		movw r24,r12
 6253 1d6a 60E0      		ldi r22,lo8(urlvarstr)
 6254 1d6c 70E0      		ldi r23,hi8(urlvarstr)
 6255 1d6e 0E94 0000 		call urlencode
 6256               	.LBB373:
 6257               	.LBB368:
 6258               	.LM993:
 6259 1d72 80E0      		ldi r24,lo8(__c.3193)
 6260 1d74 90E0      		ldi r25,hi8(__c.3193)
 6261 1d76 9093 0000 		sts (client_urlbuf)+1,r25
 6262 1d7a 8093 0000 		sts client_urlbuf,r24
 6263               	.LM994:
 6264 1d7e 3092 0000 		sts (client_urlbuf_var)+1,r3
 6265 1d82 2092 0000 		sts client_urlbuf_var,r2
 6266               	.LM995:
 6267 1d86 5092 0000 		sts (client_hoststr)+1,r5
 6268 1d8a 4092 0000 		sts client_hoststr,r4
 6269               	.LM996:
 6270 1d8e 1092 0000 		sts browsertype,__zero_reg__
 6271               	.LM997:
 6272 1d92 9092 0000 		sts (client_browser_callback)+1,r9
 6273 1d96 8092 0000 		sts client_browser_callback,r8
 6274               	.LBB367:
 6275               	.LBB366:
 6276               	.LM998:
 6277 1d9a 7092 0000 		sts (client_tcp_result_callback)+1,r7
 6278 1d9e 6092 0000 		sts client_tcp_result_callback,r6
 6279               	.LM999:
 6280 1da2 B092 0000 		sts (client_tcp_datafill_callback)+1,r11
 6281 1da6 A092 0000 		sts client_tcp_datafill_callback,r10
 6282               	.LM1000:
 6283 1daa 1092 0000 		sts tcp_client_port_h,__zero_reg__
 6284               	.LM1001:
 6285 1dae 90E5      		ldi r25,lo8(80)
 6286 1db0 9093 0000 		sts tcp_client_port_l,r25
 6287               	.LM1002:
 6288 1db4 1093 0000 		sts tcp_client_state,r17
 6289               	.LM1003:
 6290 1db8 8091 0000 		lds r24,tcp_fd
 6291 1dbc 8F5F      		subi r24,lo8(-(1))
 6292 1dbe 8093 0000 		sts tcp_fd,r24
 6293               	.LM1004:
 6294 1dc2 8830      		cpi r24,lo8(8)
 6295 1dc4 00F0      		brlo .L495
 6296               	.LM1005:
 6297 1dc6 1092 0000 		sts tcp_fd,__zero_reg__
 6298               	.L495:
 6299               	.LBE366:
 6300               	.LBE367:
 6301               	.LM1006:
 6302 1dca 8091 0000 		lds r24,tcp_fd
 6303 1dce 8093 0000 		sts www_fd,r24
 6304               	.LVL502:
 6305               	.L494:
 6306               	.LBE368:
 6307               	.LBE373:
 6308               	.LM1007:
 6309 1dd2 8091 0000 		lds r24,sec
 6310 1dd6 8D33      		cpi r24,lo8(61)
 6311 1dd8 00F4      		brsh .+2
 6312 1dda 00C0      		rjmp .L515
 6313 1ddc 8091 0000 		lds r24,start_web_client
 6314 1de0 8230      		cpi r24,lo8(2)
 6315 1de2 01F0      		breq .+2
 6316 1de4 00C0      		rjmp .L515
 6317               	.LM1008:
 6318 1de6 1092 0000 		sts start_web_client,__zero_reg__
 6319 1dea 00C0      		rjmp .L515
 6320               	.LVL503:
 6321               	.L488:
 6322               	.LM1009:
 6323 1dec 0097      		sbiw r24,0
 6324 1dee 01F4      		brne .L496
 6325               	.LVL504:
 6326               	.LM1010:
 6327 1df0 80E0      		ldi r24,lo8(buf)
 6328 1df2 90E0      		ldi r25,hi8(buf)
 6329               	.LVL505:
 6330 1df4 B801      		movw r22,r16
 6331 1df6 0E94 0000 		call udp_client_check_for_dns_answer
 6332 1dfa 00C0      		rjmp .L515
 6333               	.LVL506:
 6334               	.L496:
 6335               	.LM1011:
 6336 1dfc BC01      		movw r22,r24
 6337 1dfe 6050      		subi r22,lo8(-(buf))
 6338 1e00 7040      		sbci r23,hi8(-(buf))
 6339 1e02 80E0      		ldi r24,lo8(.LC1)
 6340 1e04 90E0      		ldi r25,hi8(.LC1)
 6341               	.LVL507:
 6342 1e06 44E0      		ldi r20,lo8(4)
 6343 1e08 50E0      		ldi r21,hi8(4)
 6344 1e0a 0E94 0000 		call strncmp
 6345 1e0e 0097      		sbiw r24,0
 6346 1e10 01F0      		breq .L497
 6347 1e12 60E0      		ldi r22,lo8(0)
 6348 1e14 70E0      		ldi r23,hi8(0)
 6349               	.LVL508:
 6350 1e16 00C0      		rjmp .L498
 6351               	.LVL509:
 6352               	.L499:
 6353               	.LBB374:
 6354               	.LBB375:
 6355               	.LBB376:
 6356               	.LBB377:
 6357               	.LM1012:
 6358 1e18 FB01      		movw r30,r22
 6359 1e1a E050      		subi r30,lo8(-(buf))
 6360 1e1c F040      		sbci r31,hi8(-(buf))
 6361 1e1e 86AB      		std Z+54,r24
 6362               	.LM1013:
 6363 1e20 6F5F      		subi r22,lo8(-(1))
 6364 1e22 7F4F      		sbci r23,hi8(-(1))
 6365               	.L498:
 6366               	.LBB378:
 6367               	.LM1014:
 6368 1e24 FB01      		movw r30,r22
 6369 1e26 E050      		subi r30,lo8(-(__c.3106))
 6370 1e28 F040      		sbci r31,hi8(-(__c.3106))
 6371               	/* #APP */
 6372               	 ;  463 "ip_arp_udp_tcp.c" 1
 6373 1e2a 8491      		lpm r24, Z
 6374               		
 6375               	 ;  0 "" 2
 6376               	/* #NOAPP */
 6377               	.LBE378:
 6378 1e2c 8823      		tst r24
 6379 1e2e 01F4      		brne .L499
 6380 1e30 DB01      		movw r26,r22
 6381 1e32 A050      		subi r26,lo8(-(buf+54))
 6382 1e34 B040      		sbci r27,hi8(-(buf+54))
 6383               	.LM1015:
 6384 1e36 80E0      		ldi r24,lo8(__c.3197)
 6385 1e38 90E0      		ldi r25,hi8(__c.3197)
 6386               	.LVL510:
 6387 1e3a 00C0      		rjmp .L500
 6388               	.LVL511:
 6389               	.L501:
 6390               	.LBE377:
 6391               	.LBE376:
 6392               	.LBE375:
 6393               	.LBE374:
 6394               	.LBB379:
 6395               	.LBB380:
 6396               	.LM1016:
 6397 1e3c 2D93      		st X+,r18
 6398               	.LM1017:
 6399 1e3e 6F5F      		subi r22,lo8(-(1))
 6400 1e40 7F4F      		sbci r23,hi8(-(1))
 6401               	.L500:
 6402 1e42 FC01      		movw r30,r24
 6403               	.LBB381:
 6404               	.LM1018:
 6405 1e44 0196      		adiw r24,1
 6406               	/* #APP */
 6407               	 ;  463 "ip_arp_udp_tcp.c" 1
 6408 1e46 2491      		lpm r18, Z
 6409               		
 6410               	 ;  0 "" 2
 6411               	/* #NOAPP */
 6412               	.LBE381:
 6413 1e48 2223      		tst r18
 6414 1e4a 01F4      		brne .L501
 6415 1e4c 00C0      		rjmp .L502
 6416               	.LVL512:
 6417               	.L497:
 6418               	.LBE380:
 6419               	.LBE379:
 6420               	.LM1019:
 6421 1e4e 80E0      		ldi r24,lo8(buf+4)
 6422 1e50 90E0      		ldi r25,hi8(buf+4)
 6423 1e52 E80E      		add r14,r24
 6424 1e54 F91E      		adc r15,r25
 6425 1e56 80E0      		ldi r24,lo8(.LC2)
 6426 1e58 90E0      		ldi r25,hi8(.LC2)
 6427 1e5a B701      		movw r22,r14
 6428 1e5c 42E0      		ldi r20,lo8(2)
 6429 1e5e 50E0      		ldi r21,hi8(2)
 6430 1e60 0E94 0000 		call strncmp
 6431 1e64 0097      		sbiw r24,0
 6432 1e66 01F0      		breq .L503
 6433 1e68 60E0      		ldi r22,lo8(0)
 6434 1e6a 70E0      		ldi r23,hi8(0)
 6435               	.LVL513:
 6436 1e6c 00C0      		rjmp .L504
 6437               	.LVL514:
 6438               	.L503:
 6439 1e6e 80E0      		ldi r24,lo8(0)
 6440 1e70 90E0      		ldi r25,hi8(0)
 6441               	.LVL515:
 6442 1e72 00C0      		rjmp .L505
 6443               	.LVL516:
 6444               	.L506:
 6445               	.LBB382:
 6446               	.LBB383:
 6447               	.LBB384:
 6448               	.LBB385:
 6449               	.LM1020:
 6450 1e74 FC01      		movw r30,r24
 6451 1e76 E050      		subi r30,lo8(-(buf))
 6452 1e78 F040      		sbci r31,hi8(-(buf))
 6453 1e7a 26AB      		std Z+54,r18
 6454               	.LM1021:
 6455 1e7c 0196      		adiw r24,1
 6456               	.L505:
 6457               	.LBB386:
 6458               	.LM1022:
 6459 1e7e FC01      		movw r30,r24
 6460 1e80 E050      		subi r30,lo8(-(__c.3106))
 6461 1e82 F040      		sbci r31,hi8(-(__c.3106))
 6462               	/* #APP */
 6463               	 ;  463 "ip_arp_udp_tcp.c" 1
 6464 1e84 2491      		lpm r18, Z
 6465               		
 6466               	 ;  0 "" 2
 6467               	/* #NOAPP */
 6468               	.LBE386:
 6469 1e86 2223      		tst r18
 6470 1e88 01F4      		brne .L506
 6471               	.LBE385:
 6472               	.LBE384:
 6473               	.LBE383:
 6474               	.LBE382:
 6475               	.LM1023:
 6476 1e8a 80E0      		ldi r24,lo8(buf)
 6477 1e8c 90E0      		ldi r25,hi8(buf)
 6478               	.LVL517:
 6479 1e8e 0E94 0000 		call print_webpage
 6480               	.LVL518:
 6481 1e92 BC01      		movw r22,r24
 6482               	.LVL519:
 6483 1e94 00C0      		rjmp .L502
 6484               	.LVL520:
 6485               	.L507:
 6486               	.LBB387:
 6487               	.LBB388:
 6488               	.LM1024:
 6489 1e96 FB01      		movw r30,r22
 6490 1e98 E050      		subi r30,lo8(-(buf))
 6491 1e9a F040      		sbci r31,hi8(-(buf))
 6492 1e9c 86AB      		std Z+54,r24
 6493               	.LM1025:
 6494 1e9e 6F5F      		subi r22,lo8(-(1))
 6495 1ea0 7F4F      		sbci r23,hi8(-(1))
 6496               	.L504:
 6497               	.LBB389:
 6498               	.LM1026:
 6499 1ea2 FB01      		movw r30,r22
 6500 1ea4 E050      		subi r30,lo8(-(__c.3200))
 6501 1ea6 F040      		sbci r31,hi8(-(__c.3200))
 6502               	/* #APP */
 6503               	 ;  463 "ip_arp_udp_tcp.c" 1
 6504 1ea8 8491      		lpm r24, Z
 6505               		
 6506               	 ;  0 "" 2
 6507               	/* #NOAPP */
 6508               	.LBE389:
 6509 1eaa 8823      		tst r24
 6510 1eac 01F4      		brne .L507
 6511               	.LVL521:
 6512               	.L502:
 6513               	.LBE388:
 6514               	.LBE387:
 6515               	.LM1027:
 6516 1eae 80E0      		ldi r24,lo8(buf)
 6517 1eb0 90E0      		ldi r25,hi8(buf)
 6518               	.LVL522:
 6519 1eb2 0E94 0000 		call www_server_reply
 6520               	.LVL523:
 6521 1eb6 00C0      		rjmp .L515
 6522               	.LFE79:
 6524               	.global	www_client_internal_datafill_callback
 6526               	www_client_internal_datafill_callback:
 6527               	.LFB55:
 6528               	.LM1028:
 6529               	.LVL524:
 6530 1eb8 CF92      		push r12
 6531 1eba DF92      		push r13
 6532 1ebc EF92      		push r14
 6533 1ebe FF92      		push r15
 6534 1ec0 0F93      		push r16
 6535 1ec2 1F93      		push r17
 6536 1ec4 DF93      		push r29
 6537 1ec6 CF93      		push r28
 6538 1ec8 00D0      		rcall .
 6539 1eca 00D0      		rcall .
 6540 1ecc 0F92      		push __tmp_reg__
 6541 1ece CDB7      		in r28,__SP_L__
 6542 1ed0 DEB7      		in r29,__SP_H__
 6543               	/* prologue: function */
 6544               	/* frame size = 5 */
 6545               	.LM1029:
 6546 1ed2 9091 0000 		lds r25,www_fd
 6547 1ed6 8917      		cp r24,r25
 6548 1ed8 01F0      		breq .L517
 6549 1eda 40E0      		ldi r20,lo8(0)
 6550 1edc 50E0      		ldi r21,hi8(0)
 6551               	.LVL525:
 6552 1ede 00C0      		rjmp .L518
 6553               	.LVL526:
 6554               	.L517:
 6555               	.LM1030:
 6556 1ee0 8091 0000 		lds r24,browsertype
 6557               	.LVL527:
 6558 1ee4 0091 0000 		lds r16,bufptr
 6559 1ee8 1091 0000 		lds r17,(bufptr)+1
 6560 1eec 8823      		tst r24
 6561 1eee 01F0      		breq .+2
 6562 1ef0 00C0      		rjmp .L519
 6563               	.LM1031:
 6564 1ef2 D801      		movw r26,r16
 6565 1ef4 D696      		adiw r26,54
 6566 1ef6 60E0      		ldi r22,lo8(0)
 6567 1ef8 70E0      		ldi r23,hi8(0)
 6568               	.LVL528:
 6569 1efa 00C0      		rjmp .L520
 6570               	.LVL529:
 6571               	.L521:
 6572               	.LBB390:
 6573               	.LBB391:
 6574               	.LM1032:
 6575 1efc 8D93      		st X+,r24
 6576               	.LM1033:
 6577 1efe 6F5F      		subi r22,lo8(-(1))
 6578 1f00 7F4F      		sbci r23,hi8(-(1))
 6579               	.L520:
 6580               	.LBB392:
 6581               	.LM1034:
 6582 1f02 FB01      		movw r30,r22
 6583 1f04 E050      		subi r30,lo8(-(__c.2643))
 6584 1f06 F040      		sbci r31,hi8(-(__c.2643))
 6585               	/* #APP */
 6586               	 ;  463 "ip_arp_udp_tcp.c" 1
 6587 1f08 8491      		lpm r24, Z
 6588               		
 6589               	 ;  0 "" 2
 6590               	/* #NOAPP */
 6591               	.LBE392:
 6592 1f0a 8823      		tst r24
 6593 1f0c 01F4      		brne .L521
 6594               	.LBE391:
 6595               	.LBE390:
 6596               	.LM1035:
 6597 1f0e 6A5C      		subi r22,lo8(-(54))
 6598 1f10 7F4F      		sbci r23,hi8(-(54))
 6599 1f12 D801      		movw r26,r16
 6600 1f14 A60F      		add r26,r22
 6601 1f16 B71F      		adc r27,r23
 6602 1f18 6653      		subi r22,lo8(-(-54))
 6603 1f1a 7040      		sbci r23,hi8(-(-54))
 6604 1f1c 8091 0000 		lds r24,client_urlbuf
 6605               	.LVL530:
 6606 1f20 9091 0000 		lds r25,client_urlbuf+1
 6607               	.LVL531:
 6608 1f24 9C01      		movw r18,r24
 6609               	.LVL532:
 6610 1f26 00C0      		rjmp .L522
 6611               	.LVL533:
 6612               	.L523:
 6613               	.LBB393:
 6614               	.LBB394:
 6615               	.LM1036:
 6616 1f28 8D93      		st X+,r24
 6617               	.LM1037:
 6618 1f2a 6F5F      		subi r22,lo8(-(1))
 6619 1f2c 7F4F      		sbci r23,hi8(-(1))
 6620               	.L522:
 6621 1f2e F901      		movw r30,r18
 6622               	.LBB395:
 6623               	.LM1038:
 6624 1f30 2F5F      		subi r18,lo8(-(1))
 6625 1f32 3F4F      		sbci r19,hi8(-(1))
 6626               	/* #APP */
 6627               	 ;  463 "ip_arp_udp_tcp.c" 1
 6628 1f34 8491      		lpm r24, Z
 6629               		
 6630               	 ;  0 "" 2
 6631               	/* #NOAPP */
 6632               	.LBE395:
 6633 1f36 8823      		tst r24
 6634 1f38 01F4      		brne .L523
 6635               	.LBE394:
 6636               	.LBE393:
 6637               	.LM1039:
 6638 1f3a 4091 0000 		lds r20,client_urlbuf_var
 6639 1f3e 5091 0000 		lds r21,(client_urlbuf_var)+1
 6640 1f42 C801      		movw r24,r16
 6641               	.LVL534:
 6642 1f44 0E94 0000 		call fill_tcp_data
 6643               	.LVL535:
 6644 1f48 AC01      		movw r20,r24
 6645               	.LVL536:
 6646 1f4a 4A5C      		subi r20,lo8(-(54))
 6647 1f4c 5F4F      		sbci r21,hi8(-(54))
 6648 1f4e D801      		movw r26,r16
 6649 1f50 A40F      		add r26,r20
 6650 1f52 B51F      		adc r27,r21
 6651 1f54 4653      		subi r20,lo8(-(-54))
 6652 1f56 5040      		sbci r21,hi8(-(-54))
 6653               	.LM1040:
 6654 1f58 80E0      		ldi r24,lo8(__c.2645)
 6655 1f5a 90E0      		ldi r25,hi8(__c.2645)
 6656               	.LVL537:
 6657 1f5c 00C0      		rjmp .L524
 6658               	.LVL538:
 6659               	.L525:
 6660               	.LBB396:
 6661               	.LBB397:
 6662               	.LM1041:
 6663 1f5e 2D93      		st X+,r18
 6664               	.LM1042:
 6665 1f60 4F5F      		subi r20,lo8(-(1))
 6666 1f62 5F4F      		sbci r21,hi8(-(1))
 6667               	.L524:
 6668 1f64 FC01      		movw r30,r24
 6669               	.LBB398:
 6670               	.LM1043:
 6671 1f66 0196      		adiw r24,1
 6672               	/* #APP */
 6673               	 ;  463 "ip_arp_udp_tcp.c" 1
 6674 1f68 2491      		lpm r18, Z
 6675               		
 6676               	 ;  0 "" 2
 6677               	/* #NOAPP */
 6678               	.LBE398:
 6679 1f6a 2223      		tst r18
 6680 1f6c 01F4      		brne .L525
 6681               	.LBE397:
 6682               	.LBE396:
 6683               	.LM1044:
 6684 1f6e 4A5C      		subi r20,lo8(-(54))
 6685 1f70 5F4F      		sbci r21,hi8(-(54))
 6686 1f72 D801      		movw r26,r16
 6687 1f74 A40F      		add r26,r20
 6688 1f76 B51F      		adc r27,r21
 6689 1f78 4653      		subi r20,lo8(-(-54))
 6690 1f7a 5040      		sbci r21,hi8(-(-54))
 6691 1f7c 8091 0000 		lds r24,client_hoststr
 6692               	.LVL539:
 6693 1f80 9091 0000 		lds r25,client_hoststr+1
 6694               	.LVL540:
 6695 1f84 9C01      		movw r18,r24
 6696               	.LVL541:
 6697 1f86 00C0      		rjmp .L526
 6698               	.LVL542:
 6699               	.L527:
 6700               	.LBB399:
 6701               	.LBB400:
 6702               	.LM1045:
 6703 1f88 8D93      		st X+,r24
 6704               	.LM1046:
 6705 1f8a 4F5F      		subi r20,lo8(-(1))
 6706 1f8c 5F4F      		sbci r21,hi8(-(1))
 6707               	.LVL543:
 6708               	.L526:
 6709 1f8e F901      		movw r30,r18
 6710               	.LVL544:
 6711               	.LBB401:
 6712               	.LM1047:
 6713 1f90 2F5F      		subi r18,lo8(-(1))
 6714 1f92 3F4F      		sbci r19,hi8(-(1))
 6715               	/* #APP */
 6716               	 ;  463 "ip_arp_udp_tcp.c" 1
 6717 1f94 8491      		lpm r24, Z
 6718               		
 6719               	 ;  0 "" 2
 6720               	/* #NOAPP */
 6721               	.LBE401:
 6722 1f96 8823      		tst r24
 6723 1f98 01F4      		brne .L527
 6724 1f9a 4A5C      		subi r20,lo8(-(54))
 6725 1f9c 5F4F      		sbci r21,hi8(-(54))
 6726 1f9e D801      		movw r26,r16
 6727 1fa0 A40F      		add r26,r20
 6728 1fa2 B51F      		adc r27,r21
 6729 1fa4 4653      		subi r20,lo8(-(-54))
 6730 1fa6 5040      		sbci r21,hi8(-(-54))
 6731               	.LM1048:
 6732 1fa8 80E0      		ldi r24,lo8(__c.2647)
 6733 1faa 90E0      		ldi r25,hi8(__c.2647)
 6734               	.LVL545:
 6735 1fac 00C0      		rjmp .L528
 6736               	.LVL546:
 6737               	.L529:
 6738               	.LBE400:
 6739               	.LBE399:
 6740               	.LBB402:
 6741               	.LBB403:
 6742               	.LM1049:
 6743 1fae 2D93      		st X+,r18
 6744               	.LM1050:
 6745 1fb0 4F5F      		subi r20,lo8(-(1))
 6746 1fb2 5F4F      		sbci r21,hi8(-(1))
 6747               	.LVL547:
 6748               	.L528:
 6749 1fb4 FC01      		movw r30,r24
 6750               	.LVL548:
 6751               	.LBB404:
 6752               	.LM1051:
 6753 1fb6 0196      		adiw r24,1
 6754               	/* #APP */
 6755               	 ;  463 "ip_arp_udp_tcp.c" 1
 6756 1fb8 2491      		lpm r18, Z
 6757               		
 6758               	 ;  0 "" 2
 6759               	.LVL549:
 6760               	/* #NOAPP */
 6761               	.LBE404:
 6762 1fba 2223      		tst r18
 6763 1fbc 01F4      		brne .L529
 6764 1fbe 00C0      		rjmp .L518
 6765               	.LVL550:
 6766               	.L519:
 6767               	.LBE403:
 6768               	.LBE402:
 6769               	.LM1052:
 6770 1fc0 D801      		movw r26,r16
 6771 1fc2 D696      		adiw r26,54
 6772 1fc4 EE24      		clr r14
 6773 1fc6 FF24      		clr r15
 6774               	.LVL551:
 6775 1fc8 00C0      		rjmp .L530
 6776               	.LVL552:
 6777               	.L531:
 6778               	.LBB405:
 6779               	.LBB406:
 6780               	.LM1053:
 6781 1fca 8D93      		st X+,r24
 6782               	.LM1054:
 6783 1fcc 0894      		sec
 6784 1fce E11C      		adc r14,__zero_reg__
 6785 1fd0 F11C      		adc r15,__zero_reg__
 6786               	.L530:
 6787               	.LBB407:
 6788               	.LM1055:
 6789 1fd2 F701      		movw r30,r14
 6790 1fd4 E050      		subi r30,lo8(-(__c.2649))
 6791 1fd6 F040      		sbci r31,hi8(-(__c.2649))
 6792               	/* #APP */
 6793               	 ;  463 "ip_arp_udp_tcp.c" 1
 6794 1fd8 8491      		lpm r24, Z
 6795               		
 6796               	 ;  0 "" 2
 6797               	/* #NOAPP */
 6798               	.LBE407:
 6799 1fda 8823      		tst r24
 6800 1fdc 01F4      		brne .L531
 6801               	.LBE406:
 6802               	.LBE405:
 6803               	.LM1056:
 6804 1fde 86E3      		ldi r24,lo8(54)
 6805 1fe0 90E0      		ldi r25,hi8(54)
 6806               	.LVL553:
 6807 1fe2 E80E      		add r14,r24
 6808 1fe4 F91E      		adc r15,r25
 6809 1fe6 D801      		movw r26,r16
 6810 1fe8 AE0D      		add r26,r14
 6811 1fea BF1D      		adc r27,r15
 6812 1fec 8AEC      		ldi r24,lo8(-54)
 6813 1fee 9FEF      		ldi r25,hi8(-54)
 6814 1ff0 E80E      		add r14,r24
 6815 1ff2 F91E      		adc r15,r25
 6816 1ff4 8091 0000 		lds r24,client_urlbuf
 6817               	.LVL554:
 6818 1ff8 9091 0000 		lds r25,client_urlbuf+1
 6819               	.LVL555:
 6820 1ffc 9C01      		movw r18,r24
 6821               	.LVL556:
 6822 1ffe 00C0      		rjmp .L532
 6823               	.LVL557:
 6824               	.L533:
 6825               	.LBB408:
 6826               	.LBB409:
 6827               	.LM1057:
 6828 2000 8D93      		st X+,r24
 6829               	.LM1058:
 6830 2002 0894      		sec
 6831 2004 E11C      		adc r14,__zero_reg__
 6832 2006 F11C      		adc r15,__zero_reg__
 6833               	.L532:
 6834 2008 F901      		movw r30,r18
 6835               	.LBB410:
 6836               	.LM1059:
 6837 200a 2F5F      		subi r18,lo8(-(1))
 6838 200c 3F4F      		sbci r19,hi8(-(1))
 6839               	/* #APP */
 6840               	 ;  463 "ip_arp_udp_tcp.c" 1
 6841 200e 8491      		lpm r24, Z
 6842               		
 6843               	 ;  0 "" 2
 6844               	/* #NOAPP */
 6845               	.LBE410:
 6846 2010 8823      		tst r24
 6847 2012 01F4      		brne .L533
 6848 2014 86E3      		ldi r24,lo8(54)
 6849 2016 90E0      		ldi r25,hi8(54)
 6850               	.LVL558:
 6851 2018 E80E      		add r14,r24
 6852 201a F91E      		adc r15,r25
 6853 201c D801      		movw r26,r16
 6854 201e AE0D      		add r26,r14
 6855 2020 BF1D      		adc r27,r15
 6856 2022 8AEC      		ldi r24,lo8(-54)
 6857 2024 9FEF      		ldi r25,hi8(-54)
 6858 2026 E80E      		add r14,r24
 6859 2028 F91E      		adc r15,r25
 6860               	.LM1060:
 6861 202a 80E0      		ldi r24,lo8(__c.2651)
 6862 202c 90E0      		ldi r25,hi8(__c.2651)
 6863               	.LVL559:
 6864 202e 00C0      		rjmp .L534
 6865               	.LVL560:
 6866               	.L535:
 6867               	.LBE409:
 6868               	.LBE408:
 6869               	.LBB411:
 6870               	.LBB412:
 6871               	.LM1061:
 6872 2030 2D93      		st X+,r18
 6873               	.LM1062:
 6874 2032 0894      		sec
 6875 2034 E11C      		adc r14,__zero_reg__
 6876 2036 F11C      		adc r15,__zero_reg__
 6877               	.LVL561:
 6878               	.L534:
 6879 2038 FC01      		movw r30,r24
 6880               	.LVL562:
 6881               	.LBB413:
 6882               	.LM1063:
 6883 203a 0196      		adiw r24,1
 6884               	/* #APP */
 6885               	 ;  463 "ip_arp_udp_tcp.c" 1
 6886 203c 2491      		lpm r18, Z
 6887               		
 6888               	 ;  0 "" 2
 6889               	.LVL563:
 6890               	/* #NOAPP */
 6891               	.LBE413:
 6892 203e 2223      		tst r18
 6893 2040 01F4      		brne .L535
 6894               	.LBE412:
 6895               	.LBE411:
 6896               	.LM1064:
 6897 2042 86E3      		ldi r24,lo8(54)
 6898 2044 90E0      		ldi r25,hi8(54)
 6899               	.LVL564:
 6900 2046 E80E      		add r14,r24
 6901 2048 F91E      		adc r15,r25
 6902 204a D801      		movw r26,r16
 6903 204c AE0D      		add r26,r14
 6904 204e BF1D      		adc r27,r15
 6905 2050 8AEC      		ldi r24,lo8(-54)
 6906 2052 9FEF      		ldi r25,hi8(-54)
 6907 2054 E80E      		add r14,r24
 6908 2056 F91E      		adc r15,r25
 6909 2058 8091 0000 		lds r24,client_hoststr
 6910               	.LVL565:
 6911 205c 9091 0000 		lds r25,client_hoststr+1
 6912               	.LVL566:
 6913 2060 9C01      		movw r18,r24
 6914               	.LVL567:
 6915 2062 00C0      		rjmp .L536
 6916               	.LVL568:
 6917               	.L537:
 6918               	.LBB414:
 6919               	.LBB415:
 6920               	.LM1065:
 6921 2064 8D93      		st X+,r24
 6922               	.LM1066:
 6923 2066 0894      		sec
 6924 2068 E11C      		adc r14,__zero_reg__
 6925 206a F11C      		adc r15,__zero_reg__
 6926               	.LVL569:
 6927               	.L536:
 6928 206c F901      		movw r30,r18
 6929               	.LVL570:
 6930               	.LBB416:
 6931               	.LM1067:
 6932 206e 2F5F      		subi r18,lo8(-(1))
 6933 2070 3F4F      		sbci r19,hi8(-(1))
 6934               	/* #APP */
 6935               	 ;  463 "ip_arp_udp_tcp.c" 1
 6936 2072 8491      		lpm r24, Z
 6937               		
 6938               	 ;  0 "" 2
 6939               	/* #NOAPP */
 6940               	.LBE416:
 6941 2074 8823      		tst r24
 6942 2076 01F4      		brne .L537
 6943               	.LBE415:
 6944               	.LBE414:
 6945               	.LM1068:
 6946 2078 4091 0000 		lds r20,client_additionalheaderline
 6947 207c 5091 0000 		lds r21,(client_additionalheaderline)+1
 6948 2080 4115      		cp r20,__zero_reg__
 6949 2082 5105      		cpc r21,__zero_reg__
 6950 2084 01F0      		breq .L538
 6951 2086 86E3      		ldi r24,lo8(54)
 6952 2088 90E0      		ldi r25,hi8(54)
 6953               	.LVL571:
 6954 208a E80E      		add r14,r24
 6955 208c F91E      		adc r15,r25
 6956 208e D801      		movw r26,r16
 6957 2090 AE0D      		add r26,r14
 6958 2092 BF1D      		adc r27,r15
 6959 2094 8AEC      		ldi r24,lo8(-54)
 6960 2096 9FEF      		ldi r25,hi8(-54)
 6961 2098 E80E      		add r14,r24
 6962 209a F91E      		adc r15,r25
 6963               	.LM1069:
 6964 209c 80E0      		ldi r24,lo8(__c.2653)
 6965 209e 90E0      		ldi r25,hi8(__c.2653)
 6966               	.LVL572:
 6967 20a0 00C0      		rjmp .L539
 6968               	.LVL573:
 6969               	.L540:
 6970               	.LBB417:
 6971               	.LBB418:
 6972               	.LM1070:
 6973 20a2 2D93      		st X+,r18
 6974               	.LM1071:
 6975 20a4 0894      		sec
 6976 20a6 E11C      		adc r14,__zero_reg__
 6977 20a8 F11C      		adc r15,__zero_reg__
 6978               	.LVL574:
 6979               	.L539:
 6980 20aa FC01      		movw r30,r24
 6981               	.LVL575:
 6982               	.LBB419:
 6983               	.LM1072:
 6984 20ac 0196      		adiw r24,1
 6985               	/* #APP */
 6986               	 ;  463 "ip_arp_udp_tcp.c" 1
 6987 20ae 2491      		lpm r18, Z
 6988               		
 6989               	 ;  0 "" 2
 6990               	.LVL576:
 6991               	/* #NOAPP */
 6992               	.LBE419:
 6993 20b0 2223      		tst r18
 6994 20b2 01F4      		brne .L540
 6995 20b4 86E3      		ldi r24,lo8(54)
 6996 20b6 90E0      		ldi r25,hi8(54)
 6997               	.LVL577:
 6998 20b8 E80E      		add r14,r24
 6999 20ba F91E      		adc r15,r25
 7000 20bc D801      		movw r26,r16
 7001 20be AE0D      		add r26,r14
 7002 20c0 BF1D      		adc r27,r15
 7003 20c2 8AEC      		ldi r24,lo8(-54)
 7004 20c4 9FEF      		ldi r25,hi8(-54)
 7005 20c6 E80E      		add r14,r24
 7006 20c8 F91E      		adc r15,r25
 7007 20ca CA01      		movw r24,r20
 7008               	.LVL578:
 7009 20cc 00C0      		rjmp .L541
 7010               	.LVL579:
 7011               	.L542:
 7012               	.LBE418:
 7013               	.LBE417:
 7014               	.LBB420:
 7015               	.LBB421:
 7016               	.LM1073:
 7017 20ce 2D93      		st X+,r18
 7018               	.LM1074:
 7019 20d0 0894      		sec
 7020 20d2 E11C      		adc r14,__zero_reg__
 7021 20d4 F11C      		adc r15,__zero_reg__
 7022               	.LVL580:
 7023               	.L541:
 7024 20d6 FC01      		movw r30,r24
 7025               	.LVL581:
 7026               	.LBB422:
 7027               	.LM1075:
 7028 20d8 0196      		adiw r24,1
 7029               	/* #APP */
 7030               	 ;  463 "ip_arp_udp_tcp.c" 1
 7031 20da 2491      		lpm r18, Z
 7032               		
 7033               	 ;  0 "" 2
 7034               	.LVL582:
 7035               	/* #NOAPP */
 7036               	.LBE422:
 7037 20dc 2223      		tst r18
 7038 20de 01F4      		brne .L542
 7039               	.LVL583:
 7040               	.L538:
 7041 20e0 86E3      		ldi r24,lo8(54)
 7042 20e2 90E0      		ldi r25,hi8(54)
 7043               	.LVL584:
 7044 20e4 E80E      		add r14,r24
 7045 20e6 F91E      		adc r15,r25
 7046 20e8 D801      		movw r26,r16
 7047 20ea AE0D      		add r26,r14
 7048 20ec BF1D      		adc r27,r15
 7049 20ee 8AEC      		ldi r24,lo8(-54)
 7050 20f0 9FEF      		ldi r25,hi8(-54)
 7051 20f2 E80E      		add r14,r24
 7052 20f4 F91E      		adc r15,r25
 7053               	.LM1076:
 7054 20f6 80E0      		ldi r24,lo8(__c.2655)
 7055 20f8 90E0      		ldi r25,hi8(__c.2655)
 7056               	.LVL585:
 7057 20fa 00C0      		rjmp .L543
 7058               	.LVL586:
 7059               	.L544:
 7060               	.LBE421:
 7061               	.LBE420:
 7062               	.LBB423:
 7063               	.LBB424:
 7064               	.LM1077:
 7065 20fc 2D93      		st X+,r18
 7066               	.LM1078:
 7067 20fe 0894      		sec
 7068 2100 E11C      		adc r14,__zero_reg__
 7069 2102 F11C      		adc r15,__zero_reg__
 7070               	.LVL587:
 7071               	.L543:
 7072 2104 FC01      		movw r30,r24
 7073               	.LVL588:
 7074               	.LBB425:
 7075               	.LM1079:
 7076 2106 0196      		adiw r24,1
 7077               	/* #APP */
 7078               	 ;  463 "ip_arp_udp_tcp.c" 1
 7079 2108 2491      		lpm r18, Z
 7080               		
 7081               	 ;  0 "" 2
 7082               	.LVL589:
 7083               	/* #NOAPP */
 7084               	.LBE425:
 7085 210a 2223      		tst r18
 7086 210c 01F4      		brne .L544
 7087 210e 86E3      		ldi r24,lo8(54)
 7088 2110 90E0      		ldi r25,hi8(54)
 7089               	.LVL590:
 7090 2112 E80E      		add r14,r24
 7091 2114 F91E      		adc r15,r25
 7092 2116 D801      		movw r26,r16
 7093 2118 AE0D      		add r26,r14
 7094 211a BF1D      		adc r27,r15
 7095 211c 8AEC      		ldi r24,lo8(-54)
 7096 211e 9FEF      		ldi r25,hi8(-54)
 7097 2120 E80E      		add r14,r24
 7098 2122 F91E      		adc r15,r25
 7099               	.LM1080:
 7100 2124 80E0      		ldi r24,lo8(__c.2657)
 7101 2126 90E0      		ldi r25,hi8(__c.2657)
 7102               	.LVL591:
 7103 2128 00C0      		rjmp .L545
 7104               	.LVL592:
 7105               	.L546:
 7106               	.LBE424:
 7107               	.LBE423:
 7108               	.LBB426:
 7109               	.LBB427:
 7110               	.LM1081:
 7111 212a 2D93      		st X+,r18
 7112               	.LM1082:
 7113 212c 0894      		sec
 7114 212e E11C      		adc r14,__zero_reg__
 7115 2130 F11C      		adc r15,__zero_reg__
 7116               	.LVL593:
 7117               	.L545:
 7118 2132 FC01      		movw r30,r24
 7119               	.LVL594:
 7120               	.LBB428:
 7121               	.LM1083:
 7122 2134 0196      		adiw r24,1
 7123               	/* #APP */
 7124               	 ;  463 "ip_arp_udp_tcp.c" 1
 7125 2136 2491      		lpm r18, Z
 7126               		
 7127               	 ;  0 "" 2
 7128               	.LVL595:
 7129               	/* #NOAPP */
 7130               	.LBE428:
 7131 2138 2223      		tst r18
 7132 213a 01F4      		brne .L546
 7133               	.LBE427:
 7134               	.LBE426:
 7135               	.LM1084:
 7136 213c E091 0000 		lds r30,client_postval
 7137               	.LVL596:
 7138 2140 F091 0000 		lds r31,client_postval+1
 7139 2144 DF01      		movw r26,r30
 7140 2146 0D90      		ld __tmp_reg__,X+
 7141 2148 0020      		tst __tmp_reg__
 7142 214a 01F4      		brne .-6
 7143 214c 1197      		sbiw r26,1
 7144 214e CD01      		movw r24,r26
 7145               	.LVL597:
 7146 2150 8E1B      		sub r24,r30
 7147 2152 9F0B      		sbc r25,r31
 7148 2154 8E01      		movw r16,r28
 7149 2156 0F5F      		subi r16,lo8(-(1))
 7150 2158 1F4F      		sbci r17,hi8(-(1))
 7151 215a B801      		movw r22,r16
 7152 215c 4AE0      		ldi r20,lo8(10)
 7153 215e 50E0      		ldi r21,hi8(10)
 7154 2160 0E94 0000 		call itoa
 7155               	.LVL598:
 7156               	.LM1085:
 7157 2164 C090 0000 		lds r12,bufptr
 7158 2168 D090 0000 		lds r13,(bufptr)+1
 7159 216c C601      		movw r24,r12
 7160 216e B701      		movw r22,r14
 7161 2170 A801      		movw r20,r16
 7162 2172 0E94 0000 		call fill_tcp_data
 7163 2176 BC01      		movw r22,r24
 7164               	.LVL599:
 7165 2178 6A5C      		subi r22,lo8(-(54))
 7166 217a 7F4F      		sbci r23,hi8(-(54))
 7167 217c D601      		movw r26,r12
 7168 217e A60F      		add r26,r22
 7169 2180 B71F      		adc r27,r23
 7170 2182 6653      		subi r22,lo8(-(-54))
 7171 2184 7040      		sbci r23,hi8(-(-54))
 7172               	.LM1086:
 7173 2186 80E0      		ldi r24,lo8(__c.2659)
 7174 2188 90E0      		ldi r25,hi8(__c.2659)
 7175               	.LVL600:
 7176 218a 00C0      		rjmp .L547
 7177               	.LVL601:
 7178               	.L548:
 7179               	.LBB429:
 7180               	.LBB430:
 7181               	.LM1087:
 7182 218c 2D93      		st X+,r18
 7183               	.LM1088:
 7184 218e 6F5F      		subi r22,lo8(-(1))
 7185 2190 7F4F      		sbci r23,hi8(-(1))
 7186               	.L547:
 7187 2192 FC01      		movw r30,r24
 7188               	.LBB431:
 7189               	.LM1089:
 7190 2194 0196      		adiw r24,1
 7191               	/* #APP */
 7192               	 ;  463 "ip_arp_udp_tcp.c" 1
 7193 2196 2491      		lpm r18, Z
 7194               		
 7195               	 ;  0 "" 2
 7196               	/* #NOAPP */
 7197               	.LBE431:
 7198 2198 2223      		tst r18
 7199 219a 01F4      		brne .L548
 7200               	.LBE430:
 7201               	.LBE429:
 7202               	.LM1090:
 7203 219c 4091 0000 		lds r20,client_postval
 7204 21a0 5091 0000 		lds r21,(client_postval)+1
 7205 21a4 C601      		movw r24,r12
 7206               	.LVL602:
 7207 21a6 0E94 0000 		call fill_tcp_data
 7208               	.LVL603:
 7209 21aa AC01      		movw r20,r24
 7210               	.LVL604:
 7211               	.L518:
 7212               	.LM1091:
 7213 21ac CA01      		movw r24,r20
 7214               	.LVL605:
 7215               	/* epilogue start */
 7216 21ae 0F90      		pop __tmp_reg__
 7217 21b0 0F90      		pop __tmp_reg__
 7218 21b2 0F90      		pop __tmp_reg__
 7219 21b4 0F90      		pop __tmp_reg__
 7220 21b6 0F90      		pop __tmp_reg__
 7221 21b8 CF91      		pop r28
 7222 21ba DF91      		pop r29
 7223 21bc 1F91      		pop r17
 7224 21be 0F91      		pop r16
 7225 21c0 FF90      		pop r15
 7226 21c2 EF90      		pop r14
 7227 21c4 DF90      		pop r13
 7228 21c6 CF90      		pop r12
 7229 21c8 0895      		ret
 7230               	.LFE55:
 7232               	.global	arpreqhdr
 7233               		.section	.progmem.data,"a",@progbits
 7236               	arpreqhdr:
 7237 0000 00        		.byte	0
 7238 0001 01        		.byte	1
 7239 0002 08        		.byte	8
 7240 0003 00        		.byte	0
 7241 0004 06        		.byte	6
 7242 0005 04        		.byte	4
 7243 0006 00        		.byte	0
 7244 0007 01        		.byte	1
 7245               	.global	iphdr
 7248               	iphdr:
 7249 0008 45        		.byte	69
 7250 0009 00        		.byte	0
 7251 000a 00        		.byte	0
 7252 000b 82        		.byte	-126
 7253 000c 00        		.byte	0
 7254 000d 00        		.byte	0
 7255 000e 40        		.byte	64
 7256 000f 00        		.byte	0
 7257 0010 20        		.byte	32
 7258               		.data
 7261               	mymac:
 7262 000c 54        		.byte	84
 7263 000d 55        		.byte	85
 7264 000e 58        		.byte	88
 7265 000f 10        		.byte	16
 7266 0010 00        		.byte	0
 7267 0011 29        		.byte	41
 7270               	myip:
 7271 0012 C0        		.byte	-64
 7272 0013 A8        		.byte	-88
 7273 0014 01        		.byte	1
 7274 0015 5C        		.byte	92
 7277               	gwip:
 7278 0016 C0        		.byte	-64
 7279 0017 A8        		.byte	-88
 7280 0018 01        		.byte	1
 7281 0019 01        		.byte	1
 7282               		.lcomm dns_state,1
 7283               		.lcomm sec,1
 7284               		.lcomm start_web_client,1
 7285               		.lcomm web_client_attempts,1
 7286               		.section	.progmem.data
 7289               	__c.3200:
 7290 0011 4854 5450 		.ascii	"HTTP/1.0 401 Un"
 7290      2F31 2E30 
 7290      2034 3031 
 7290      2055 6E
 7291 0020 6175 7468 		.string	"authorized\r\nContent-Type: text/html\r\n\r\n<h1>401 Unauthorized</h1>"
 7291      6F72 697A 
 7291      6564 0D0A 
 7291      436F 6E74 
 7291      656E 742D 
 7294               	__c.3197:
 7295 0061 3C68 313E 		.string	"<h1>200 OK</h1>"
 7295      3230 3020 
 7295      4F4B 3C2F 
 7295      6831 3E00 
 7298               	__c.3195:
 7299 0071 7475 7867 		.string	"tuxgraphics.org"
 7299      7261 7068 
 7299      6963 732E 
 7299      6F72 6700 
 7302               	__c.3193:
 7303 0081 2F63 6769 		.string	"/cgi-bin/upld?pingIP="
 7303      2D62 696E 
 7303      2F75 706C 
 7303      643F 7069 
 7303      6E67 4950 
 7306               	__c.3191:
 7307 0097 7475 7867 		.string	"tuxgraphics.org"
 7307      7261 7068 
 7307      6963 732E 
 7307      6F72 6700 
 7308               		.lcomm web_client_sendok,1
 7309               		.lcomm cnt2step,1
 7312               	__c.3127:
 7313 00a7 0A3C 2F70 		.string	"\n</pre><br><hr>"
 7313      7265 3E3C 
 7313      6272 3E3C 
 7313      6872 3E00 
 7316               	__c.3125:
 7317 00b7 0A63 6865 		.ascii	"\ncheck result: <a href=http://tuxg"
 7317      636B 2072 
 7317      6573 756C 
 7317      743A 203C 
 7317      6120 6872 
 7318 00d9 7261 7068 		.string	"raphics.org/cgi-bin/upld>http://tuxgraphics.org/cgi-bin/upld</a>"
 7318      6963 732E 
 7318      6F72 672F 
 7318      6367 692D 
 7318      6269 6E2F 
 7321               	__c.3123:
 7322 011a 0A4E 756D 		.string	"\nNumber successful data uploads to web: "
 7322      6265 7220 
 7322      7375 6363 
 7322      6573 7366 
 7322      756C 2064 
 7325               	__c.3121:
 7326 0143 4E75 6D62 		.string	"Number of data uploads started by ping: "
 7326      6572 206F 
 7326      6620 6461 
 7326      7461 2075 
 7326      706C 6F61 
 7329               	__c.3119:
 7330 016c 7761 6974 		.string	"waiting for DNS answer.\n"
 7330      696E 6720 
 7330      666F 7220 
 7330      444E 5320 
 7330      616E 7377 
 7333               	__c.3117:
 7334 0185 7761 6974 		.string	"waiting for GW IP to answer arp.\n"
 7334      696E 6720 
 7334      666F 7220 
 7334      4757 2049 
 7334      5020 746F 
 7337               	__c.3115:
 7338 01a7 3C68 323E 		.string	"<h2>web client status</h2>\n<pre>\n"
 7338      7765 6220 
 7338      636C 6965 
 7338      6E74 2073 
 7338      7461 7475 
 7341               	__c.3106:
 7342 01c9 4854 5450 		.string	"HTTP/1.0 200 OK\r\nContent-Type: text/html\r\nPragma: no-cache\r\n\r\n"
 7342      2F31 2E30 
 7342      2032 3030 
 7342      204F 4B0D 
 7342      0A43 6F6E 
 7343               		.lcomm dnstid_l,1
 7344               		.lcomm dns_ansError,1
 7345               		.lcomm haveDNSanswer,1
 7346               		.data
 7349               	dnsip:
 7350 001a 08        		.byte	8
 7351 001b 08        		.byte	8
 7352 001c 08        		.byte	8
 7353 001d 08        		.byte	8
 7354               		.lcomm waitgwmac,1
 7357               	delaycnt:
 7358 001e 0100      		.word	1
 7359               		.lcomm tcp_client_state,1
 7362               	tcpclient_src_port_l:
 7363 0020 01        		.byte	1
 7364               		.lcomm tcp_fd,1
 7365               		.lcomm tcp_client_port_h,1
 7366               		.lcomm tcp_client_port_l,1
 7367               		.lcomm bufptr,2
 7368               		.lcomm wwwport_h,1
 7371               	wwwport_l:
 7372 0021 50        		.byte	80
 7373               		.lcomm info_data_len,2
 7374               		.lcomm browsertype,1
 7375               		.lcomm www_fd,1
 7376               		.section	.progmem.data
 7379               	__c.2659:
 7380 0208 0D0A 436F 		.string	"\r\nContent-Type: application/x-www-form-urlencoded\r\n\r\n"
 7380      6E74 656E 
 7380      742D 5479 
 7380      7065 3A20 
 7380      6170 706C 
 7383               	__c.2657:
 7384 023e 436F 6E74 		.string	"Content-Length: "
 7384      656E 742D 
 7384      4C65 6E67 
 7384      7468 3A20 
 7384      00
 7387               	__c.2655:
 7388 024f 0D0A 5573 		.string	"\r\nUser-Agent: tgr/1.1\r\nAccept: */*\r\nConnection: close\r\n"
 7388      6572 2D41 
 7388      6765 6E74 
 7388      3A20 7467 
 7388      722F 312E 
 7391               	__c.2653:
 7392 0287 0D0A 00   		.string	"\r\n"
 7395               	__c.2651:
 7396 028a 2048 5454 		.string	" HTTP/1.1\r\nHost: "
 7396      502F 312E 
 7396      310D 0A48 
 7396      6F73 743A 
 7396      2000 
 7399               	__c.2649:
 7400 029c 504F 5354 		.string	"POST "
 7400      2000 
 7403               	__c.2647:
 7404 02a2 0D0A 5573 		.string	"\r\nUser-Agent: tgr/1.0\r\nAccept: text/html\r\nConnection: close\r\n\r\n"
 7404      6572 2D41 
 7404      6765 6E74 
 7404      3A20 7467 
 7404      722F 312E 
 7407               	__c.2645:
 7408 02e2 2048 5454 		.string	" HTTP/1.1\r\nHost: "
 7408      502F 312E 
 7408      310D 0A48 
 7408      6F73 743A 
 7408      2000 
 7411               	__c.2643:
 7412 02f4 4745 5420 		.string	"GET "
 7412      00
 7413               		.data
 7416               	seqnum:
 7417 0022 0A        		.byte	10
 7418               		.lcomm Enc28j60Bank,1
 7419               		.lcomm gNextPacketPtr,2
 7420               		.lcomm tcpsrvip,4
 7421               		.lcomm client_tcp_result_callback,2
 7422               		.lcomm client_tcp_datafill_callback,2
 7423               		.lcomm client_browser_callback,2
 7424               		.lcomm client_additionalheaderline,2
 7425               		.lcomm client_postval,2
 7426               		.lcomm client_urlbuf,2
 7427               		.lcomm client_urlbuf_var,2
 7428               		.lcomm client_hoststr,2
 7429               		.lcomm icmp_callback,2
 7430               		.lcomm gwmacaddr,6
 7431               		.lcomm macaddr,6
 7432               		.lcomm ipaddr,4
 7433               		.lcomm dns_answerip,4
 7434               		.lcomm urlvarstr,21
 7435               		.lcomm buf,651
 7436               		.lcomm pingsrcip,4
 8045               	.Letext0:
DEFINED SYMBOLS
                            *ABS*:00000000 main.c
C:\DOCUME~1\LAB\LOCALS~1\Temp/ccJB4Jg6.s:2      *ABS*:0000003f __SREG__
C:\DOCUME~1\LAB\LOCALS~1\Temp/ccJB4Jg6.s:3      *ABS*:0000003e __SP_H__
C:\DOCUME~1\LAB\LOCALS~1\Temp/ccJB4Jg6.s:4      *ABS*:0000003d __SP_L__
C:\DOCUME~1\LAB\LOCALS~1\Temp/ccJB4Jg6.s:5      *ABS*:00000034 __CCP__
C:\DOCUME~1\LAB\LOCALS~1\Temp/ccJB4Jg6.s:6      *ABS*:00000000 __tmp_reg__
C:\DOCUME~1\LAB\LOCALS~1\Temp/ccJB4Jg6.s:7      *ABS*:00000001 __zero_reg__
C:\DOCUME~1\LAB\LOCALS~1\Temp/ccJB4Jg6.s:18     .text:00000000 enc28j60ReadOp
C:\DOCUME~1\LAB\LOCALS~1\Temp/ccJB4Jg6.s:63     .text:00000024 enc28j60WriteOp
C:\DOCUME~1\LAB\LOCALS~1\Temp/ccJB4Jg6.s:95     .text:0000003a enc28j60ReadBuffer
C:\DOCUME~1\LAB\LOCALS~1\Temp/ccJB4Jg6.s:151    .text:0000006c enc28j60WriteBuffer
C:\DOCUME~1\LAB\LOCALS~1\Temp/ccJB4Jg6.s:199    .text:00000094 enc28j60SetBank
C:\DOCUME~1\LAB\LOCALS~1\Temp/ccJB4Jg6.s:7375   .bss:00000015 Enc28j60Bank
C:\DOCUME~1\LAB\LOCALS~1\Temp/ccJB4Jg6.s:279    .text:000000e2 enc28j60Read
C:\DOCUME~1\LAB\LOCALS~1\Temp/ccJB4Jg6.s:303    .text:000000f6 enc28j60Write
C:\DOCUME~1\LAB\LOCALS~1\Temp/ccJB4Jg6.s:349    .text:0000011c enc28j60PhyReadH
C:\DOCUME~1\LAB\LOCALS~1\Temp/ccJB4Jg6.s:404    .text:0000014e enc28j60PhyWrite
C:\DOCUME~1\LAB\LOCALS~1\Temp/ccJB4Jg6.s:469    .text:0000018a enc28j60clkout
C:\DOCUME~1\LAB\LOCALS~1\Temp/ccJB4Jg6.s:488    .text:00000196 enc28j60Init
C:\DOCUME~1\LAB\LOCALS~1\Temp/ccJB4Jg6.s:7418   .bss:00000016 gNextPacketPtr
C:\DOCUME~1\LAB\LOCALS~1\Temp/ccJB4Jg6.s:752    .text:00000306 enc28j60getrev
C:\DOCUME~1\LAB\LOCALS~1\Temp/ccJB4Jg6.s:767    .text:0000030e enc28j60linkup
C:\DOCUME~1\LAB\LOCALS~1\Temp/ccJB4Jg6.s:788    .text:00000320 enc28j60PacketSend
C:\DOCUME~1\LAB\LOCALS~1\Temp/ccJB4Jg6.s:990    .text:000003f8 enc28j60hasRxPkt
C:\DOCUME~1\LAB\LOCALS~1\Temp/ccJB4Jg6.s:1007   .text:00000404 enc28j60PacketReceive
C:\DOCUME~1\LAB\LOCALS~1\Temp/ccJB4Jg6.s:1212   .text:00000538 checksum
C:\DOCUME~1\LAB\LOCALS~1\Temp/ccJB4Jg6.s:1389   .text:0000062e init_ip_arp_udp_tcp
C:\DOCUME~1\LAB\LOCALS~1\Temp/ccJB4Jg6.s:7367   .bss:00000010 wwwport_h
C:\DOCUME~1\LAB\LOCALS~1\Temp/ccJB4Jg6.s:7371   .data:00000021 wwwport_l
C:\DOCUME~1\LAB\LOCALS~1\Temp/ccJB4Jg6.s:7431   .bss:0000003a ipaddr
C:\DOCUME~1\LAB\LOCALS~1\Temp/ccJB4Jg6.s:7430   .bss:00000034 macaddr
C:\DOCUME~1\LAB\LOCALS~1\Temp/ccJB4Jg6.s:1450   .text:0000067e check_ip_message_is_from
C:\DOCUME~1\LAB\LOCALS~1\Temp/ccJB4Jg6.s:1489   .text:000006aa eth_type_is_arp_and_my_ip
C:\DOCUME~1\LAB\LOCALS~1\Temp/ccJB4Jg6.s:1537   .text:000006e2 eth_type_is_ip_and_my_ip
C:\DOCUME~1\LAB\LOCALS~1\Temp/ccJB4Jg6.s:1590   .text:00000722 make_eth
C:\DOCUME~1\LAB\LOCALS~1\Temp/ccJB4Jg6.s:1621   .text:0000073c fill_ip_hdr_checksum
C:\DOCUME~1\LAB\LOCALS~1\Temp/ccJB4Jg6.s:1665   .text:0000076a make_ip
C:\DOCUME~1\LAB\LOCALS~1\Temp/ccJB4Jg6.s:1700   .text:0000078c step_seq
C:\DOCUME~1\LAB\LOCALS~1\Temp/ccJB4Jg6.s:1750   .text:000007b6 make_tcphead
C:\DOCUME~1\LAB\LOCALS~1\Temp/ccJB4Jg6.s:1799   .text:000007e4 make_arp_answer_from_request
C:\DOCUME~1\LAB\LOCALS~1\Temp/ccJB4Jg6.s:1884   .text:0000084c make_echo_reply_from_request
C:\DOCUME~1\LAB\LOCALS~1\Temp/ccJB4Jg6.s:1954   .text:0000089c make_udp_reply_from_request
C:\DOCUME~1\LAB\LOCALS~1\Temp/ccJB4Jg6.s:2084   .text:00000942 make_tcp_synack_from_syn
C:\DOCUME~1\LAB\LOCALS~1\Temp/ccJB4Jg6.s:7416   .data:00000022 seqnum
C:\DOCUME~1\LAB\LOCALS~1\Temp/ccJB4Jg6.s:2189   .text:000009c8 get_tcp_data_len
C:\DOCUME~1\LAB\LOCALS~1\Temp/ccJB4Jg6.s:2237   .text:000009fe fill_tcp_data_p
C:\DOCUME~1\LAB\LOCALS~1\Temp/ccJB4Jg6.s:2286   .text:00000a24 fill_tcp_data_len
C:\DOCUME~1\LAB\LOCALS~1\Temp/ccJB4Jg6.s:2328   .text:00000a4a make_tcp_ack_from_any
C:\DOCUME~1\LAB\LOCALS~1\Temp/ccJB4Jg6.s:2420   .text:00000ab8 make_tcp_ack_with_data_noflags
C:\DOCUME~1\LAB\LOCALS~1\Temp/ccJB4Jg6.s:2485   .text:00000b08 www_server_reply
C:\DOCUME~1\LAB\LOCALS~1\Temp/ccJB4Jg6.s:7368   .bss:00000011 info_data_len
C:\DOCUME~1\LAB\LOCALS~1\Temp/ccJB4Jg6.s:2525   .text:00000b3a fill_buf_p
C:\DOCUME~1\LAB\LOCALS~1\Temp/ccJB4Jg6.s:2564   .text:00000b52 send_udp_prepare
C:\DOCUME~1\LAB\LOCALS~1\Temp/ccJB4Jg6.s:7429   .bss:0000002e gwmacaddr
C:\DOCUME~1\LAB\LOCALS~1\Temp/ccJB4Jg6.s:7248   .progmem.data:00000008 iphdr
C:\DOCUME~1\LAB\LOCALS~1\Temp/ccJB4Jg6.s:2710   .text:00000bfc send_udp_transmit
C:\DOCUME~1\LAB\LOCALS~1\Temp/ccJB4Jg6.s:2767   .text:00000c46 send_udp
C:\DOCUME~1\LAB\LOCALS~1\Temp/ccJB4Jg6.s:2846   .text:00000ca6 client_arp_whohas
C:\DOCUME~1\LAB\LOCALS~1\Temp/ccJB4Jg6.s:7236   .progmem.data:00000000 arpreqhdr
C:\DOCUME~1\LAB\LOCALS~1\Temp/ccJB4Jg6.s:7345   .bss:00000009 waitgwmac
C:\DOCUME~1\LAB\LOCALS~1\Temp/ccJB4Jg6.s:2974   .text:00000d46 client_waiting_gw
C:\DOCUME~1\LAB\LOCALS~1\Temp/ccJB4Jg6.s:2991   .text:00000d52 client_store_gw_mac
C:\DOCUME~1\LAB\LOCALS~1\Temp/ccJB4Jg6.s:7277   .data:00000016 gwip
C:\DOCUME~1\LAB\LOCALS~1\Temp/ccJB4Jg6.s:3046   .text:00000d94 client_gw_arp_refresh
C:\DOCUME~1\LAB\LOCALS~1\Temp/ccJB4Jg6.s:3064   .text:00000da4 client_set_gwip
C:\DOCUME~1\LAB\LOCALS~1\Temp/ccJB4Jg6.s:3100   .text:00000dcc client_tcp_set_serverip
C:\DOCUME~1\LAB\LOCALS~1\Temp/ccJB4Jg6.s:7419   .bss:00000018 tcpsrvip
C:\DOCUME~1\LAB\LOCALS~1\Temp/ccJB4Jg6.s:3134   .text:00000dee client_syn
C:\DOCUME~1\LAB\LOCALS~1\Temp/ccJB4Jg6.s:3339   .text:00000ef2 client_tcp_req
C:\DOCUME~1\LAB\LOCALS~1\Temp/ccJB4Jg6.s:7420   .bss:0000001c client_tcp_result_callback
C:\DOCUME~1\LAB\LOCALS~1\Temp/ccJB4Jg6.s:7421   .bss:0000001e client_tcp_datafill_callback
C:\DOCUME~1\LAB\LOCALS~1\Temp/ccJB4Jg6.s:7364   .bss:0000000c tcp_client_port_h
C:\DOCUME~1\LAB\LOCALS~1\Temp/ccJB4Jg6.s:7365   .bss:0000000d tcp_client_port_l
C:\DOCUME~1\LAB\LOCALS~1\Temp/ccJB4Jg6.s:7354   .bss:0000000a tcp_client_state
C:\DOCUME~1\LAB\LOCALS~1\Temp/ccJB4Jg6.s:7359   .bss:0000000b tcp_fd
C:\DOCUME~1\LAB\LOCALS~1\Temp/ccJB4Jg6.s:3378   .text:00000f28 client_browse_url
C:\DOCUME~1\LAB\LOCALS~1\Temp/ccJB4Jg6.s:7425   .bss:00000026 client_urlbuf
C:\DOCUME~1\LAB\LOCALS~1\Temp/ccJB4Jg6.s:7426   .bss:00000028 client_urlbuf_var
C:\DOCUME~1\LAB\LOCALS~1\Temp/ccJB4Jg6.s:7427   .bss:0000002a client_hoststr
C:\DOCUME~1\LAB\LOCALS~1\Temp/ccJB4Jg6.s:7373   .bss:00000013 browsertype
C:\DOCUME~1\LAB\LOCALS~1\Temp/ccJB4Jg6.s:7422   .bss:00000020 client_browser_callback
C:\DOCUME~1\LAB\LOCALS~1\Temp/ccJB4Jg6.s:5027   .text:00001786 www_client_internal_result_callback
C:\DOCUME~1\LAB\LOCALS~1\Temp/ccJB4Jg6.s:6526   .text:00001eb8 www_client_internal_datafill_callback
C:\DOCUME~1\LAB\LOCALS~1\Temp/ccJB4Jg6.s:7374   .bss:00000014 www_fd
C:\DOCUME~1\LAB\LOCALS~1\Temp/ccJB4Jg6.s:3441   .text:00000f90 client_http_post
C:\DOCUME~1\LAB\LOCALS~1\Temp/ccJB4Jg6.s:7423   .bss:00000022 client_additionalheaderline
C:\DOCUME~1\LAB\LOCALS~1\Temp/ccJB4Jg6.s:7424   .bss:00000024 client_postval
C:\DOCUME~1\LAB\LOCALS~1\Temp/ccJB4Jg6.s:3515   .text:00001008 register_ping_rec_callback
C:\DOCUME~1\LAB\LOCALS~1\Temp/ccJB4Jg6.s:7428   .bss:0000002c icmp_callback
C:\DOCUME~1\LAB\LOCALS~1\Temp/ccJB4Jg6.s:3531   .text:00001012 packetloop_icmp_tcp
C:\DOCUME~1\LAB\LOCALS~1\Temp/ccJB4Jg6.s:7357   .data:0000001e delaycnt
C:\DOCUME~1\LAB\LOCALS~1\Temp/ccJB4Jg6.s:7362   .data:00000020 tcpclient_src_port_l
C:\DOCUME~1\LAB\LOCALS~1\Temp/ccJB4Jg6.s:7366   .bss:0000000e bufptr
C:\DOCUME~1\LAB\LOCALS~1\Temp/ccJB4Jg6.s:4141   .text:000013ce find_key_val
C:\DOCUME~1\LAB\LOCALS~1\Temp/ccJB4Jg6.s:4282   .text:00001466 h2int
C:\DOCUME~1\LAB\LOCALS~1\Temp/ccJB4Jg6.s:4320   .text:0000148a urldecode
C:\DOCUME~1\LAB\LOCALS~1\Temp/ccJB4Jg6.s:4450   .text:00001510 int2h
C:\DOCUME~1\LAB\LOCALS~1\Temp/ccJB4Jg6.s:4501   .text:00001544 dnslkup_haveanswer
C:\DOCUME~1\LAB\LOCALS~1\Temp/ccJB4Jg6.s:7344   .bss:00000008 haveDNSanswer
C:\DOCUME~1\LAB\LOCALS~1\Temp/ccJB4Jg6.s:4514   .text:0000154a dnslkup_get_error_info
C:\DOCUME~1\LAB\LOCALS~1\Temp/ccJB4Jg6.s:7343   .bss:00000007 dns_ansError
C:\DOCUME~1\LAB\LOCALS~1\Temp/ccJB4Jg6.s:4527   .text:00001550 dnslkup_getip
C:\DOCUME~1\LAB\LOCALS~1\Temp/ccJB4Jg6.s:7432   .bss:0000003e dns_answerip
C:\DOCUME~1\LAB\LOCALS~1\Temp/ccJB4Jg6.s:4541   .text:00001556 dnslkup_request
C:\DOCUME~1\LAB\LOCALS~1\Temp/ccJB4Jg6.s:7309   .bss:00000006 dnstid_l
C:\DOCUME~1\LAB\LOCALS~1\Temp/ccJB4Jg6.s:7349   .data:0000001a dnsip
C:\DOCUME~1\LAB\LOCALS~1\Temp/ccJB4Jg6.s:4715   .text:00001628 udp_client_check_for_dns_answer
C:\DOCUME~1\LAB\LOCALS~1\Temp/ccJB4Jg6.s:4853   .text:000016da http200ok
C:\DOCUME~1\LAB\LOCALS~1\Temp/ccJB4Jg6.s:7434   .bss:00000057 buf
C:\DOCUME~1\LAB\LOCALS~1\Temp/ccJB4Jg6.s:7341   .progmem.data:000001c9 __c.3106
C:\DOCUME~1\LAB\LOCALS~1\Temp/ccJB4Jg6.s:4901   .text:000016fc init_cnt2
C:\DOCUME~1\LAB\LOCALS~1\Temp/ccJB4Jg6.s:7308   .bss:00000005 cnt2step
C:\DOCUME~1\LAB\LOCALS~1\Temp/ccJB4Jg6.s:4923   .text:0000170c __vector_9
C:\DOCUME~1\LAB\LOCALS~1\Temp/ccJB4Jg6.s:7282   .bss:00000001 sec
C:\DOCUME~1\LAB\LOCALS~1\Temp/ccJB4Jg6.s:4961   .text:00001744 ping_callback
C:\DOCUME~1\LAB\LOCALS~1\Temp/ccJB4Jg6.s:7283   .bss:00000002 start_web_client
C:\DOCUME~1\LAB\LOCALS~1\Temp/ccJB4Jg6.s:7435   .bss:000002e2 pingsrcip
C:\DOCUME~1\LAB\LOCALS~1\Temp/ccJB4Jg6.s:5000   .text:00001774 browserresult_callback
C:\DOCUME~1\LAB\LOCALS~1\Temp/ccJB4Jg6.s:7285   .bss:00000004 web_client_sendok
C:\DOCUME~1\LAB\LOCALS~1\Temp/ccJB4Jg6.s:5140   .text:0000182e mk_net_str
C:\DOCUME~1\LAB\LOCALS~1\Temp/ccJB4Jg6.s:5236   .text:000018a0 parse_ip
C:\DOCUME~1\LAB\LOCALS~1\Temp/ccJB4Jg6.s:5344   .text:00001924 urlencode
C:\DOCUME~1\LAB\LOCALS~1\Temp/ccJB4Jg6.s:5428   .text:0000198a fill_tcp_data
C:\DOCUME~1\LAB\LOCALS~1\Temp/ccJB4Jg6.s:5491   .text:000019cc print_webpage
C:\DOCUME~1\LAB\LOCALS~1\Temp/ccJB4Jg6.s:7337   .progmem.data:000001a7 __c.3115
C:\DOCUME~1\LAB\LOCALS~1\Temp/ccJB4Jg6.s:7333   .progmem.data:00000185 __c.3117
                             .bss:00000000 dns_state
C:\DOCUME~1\LAB\LOCALS~1\Temp/ccJB4Jg6.s:7325   .progmem.data:00000143 __c.3121
C:\DOCUME~1\LAB\LOCALS~1\Temp/ccJB4Jg6.s:7329   .progmem.data:0000016c __c.3119
C:\DOCUME~1\LAB\LOCALS~1\Temp/ccJB4Jg6.s:7284   .bss:00000003 web_client_attempts
C:\DOCUME~1\LAB\LOCALS~1\Temp/ccJB4Jg6.s:7321   .progmem.data:0000011a __c.3123
C:\DOCUME~1\LAB\LOCALS~1\Temp/ccJB4Jg6.s:7316   .progmem.data:000000b7 __c.3125
C:\DOCUME~1\LAB\LOCALS~1\Temp/ccJB4Jg6.s:7312   .progmem.data:000000a7 __c.3127
C:\DOCUME~1\LAB\LOCALS~1\Temp/ccJB4Jg6.s:5933   .text:00001ba6 main
C:\DOCUME~1\LAB\LOCALS~1\Temp/ccJB4Jg6.s:7261   .data:0000000c mymac
C:\DOCUME~1\LAB\LOCALS~1\Temp/ccJB4Jg6.s:7270   .data:00000012 myip
C:\DOCUME~1\LAB\LOCALS~1\Temp/ccJB4Jg6.s:7433   .bss:00000042 urlvarstr
C:\DOCUME~1\LAB\LOCALS~1\Temp/ccJB4Jg6.s:7298   .progmem.data:00000071 __c.3195
C:\DOCUME~1\LAB\LOCALS~1\Temp/ccJB4Jg6.s:7306   .progmem.data:00000097 __c.3191
C:\DOCUME~1\LAB\LOCALS~1\Temp/ccJB4Jg6.s:7302   .progmem.data:00000081 __c.3193
C:\DOCUME~1\LAB\LOCALS~1\Temp/ccJB4Jg6.s:7294   .progmem.data:00000061 __c.3197
C:\DOCUME~1\LAB\LOCALS~1\Temp/ccJB4Jg6.s:7289   .progmem.data:00000011 __c.3200
C:\DOCUME~1\LAB\LOCALS~1\Temp/ccJB4Jg6.s:7411   .progmem.data:000002f4 __c.2643
C:\DOCUME~1\LAB\LOCALS~1\Temp/ccJB4Jg6.s:7407   .progmem.data:000002e2 __c.2645
C:\DOCUME~1\LAB\LOCALS~1\Temp/ccJB4Jg6.s:7403   .progmem.data:000002a2 __c.2647
C:\DOCUME~1\LAB\LOCALS~1\Temp/ccJB4Jg6.s:7399   .progmem.data:0000029c __c.2649
C:\DOCUME~1\LAB\LOCALS~1\Temp/ccJB4Jg6.s:7395   .progmem.data:0000028a __c.2651
C:\DOCUME~1\LAB\LOCALS~1\Temp/ccJB4Jg6.s:7391   .progmem.data:00000287 __c.2653
C:\DOCUME~1\LAB\LOCALS~1\Temp/ccJB4Jg6.s:7387   .progmem.data:0000024f __c.2655
C:\DOCUME~1\LAB\LOCALS~1\Temp/ccJB4Jg6.s:7383   .progmem.data:0000023e __c.2657
C:\DOCUME~1\LAB\LOCALS~1\Temp/ccJB4Jg6.s:7379   .progmem.data:00000208 __c.2659

UNDEFINED SYMBOLS
strncmp
itoa
atoi
isalnum
__do_copy_data
__do_clear_bss
