
main.elf:     file format elf32-avr

Sections:
Idx Name          Size      VMA       LMA       File off  Algn
  0 .text         00005e7c  00000000  00000000  00000094  2**1
                  CONTENTS, ALLOC, LOAD, READONLY, CODE
  1 .data         00000004  00800060  00005e7c  00005f10  2**0
                  CONTENTS, ALLOC, LOAD, DATA
  2 .bss          00000003  00800064  00800064  00005f14  2**0
                  ALLOC
  3 .debug_aranges 00000020  00000000  00000000  00005f14  2**0
                  CONTENTS, READONLY, DEBUGGING
  4 .debug_pubnames 000000a9  00000000  00000000  00005f34  2**0
                  CONTENTS, READONLY, DEBUGGING
  5 .debug_info   00000200  00000000  00000000  00005fdd  2**0
                  CONTENTS, READONLY, DEBUGGING
  6 .debug_abbrev 00000120  00000000  00000000  000061dd  2**0
                  CONTENTS, READONLY, DEBUGGING
  7 .debug_line   000001ce  00000000  00000000  000062fd  2**0
                  CONTENTS, READONLY, DEBUGGING
  8 .debug_frame  00000060  00000000  00000000  000064cc  2**2
                  CONTENTS, READONLY, DEBUGGING
  9 .debug_str    0000011e  00000000  00000000  0000652c  2**0
                  CONTENTS, READONLY, DEBUGGING
 10 .debug_loc    00000026  00000000  00000000  0000664a  2**0
                  CONTENTS, READONLY, DEBUGGING

Disassembly of section .text:

00000000 <__vectors>:
       0:	0c 94 92 2e 	jmp	0x5d24	; 0x5d24 <__ctors_end>
       4:	0c 94 af 2e 	jmp	0x5d5e	; 0x5d5e <__bad_interrupt>
       8:	0c 94 af 2e 	jmp	0x5d5e	; 0x5d5e <__bad_interrupt>
       c:	0c 94 af 2e 	jmp	0x5d5e	; 0x5d5e <__bad_interrupt>
      10:	0c 94 af 2e 	jmp	0x5d5e	; 0x5d5e <__bad_interrupt>
      14:	0c 94 af 2e 	jmp	0x5d5e	; 0x5d5e <__bad_interrupt>
      18:	0c 94 af 2e 	jmp	0x5d5e	; 0x5d5e <__bad_interrupt>
      1c:	0c 94 b1 2e 	jmp	0x5d62	; 0x5d62 <__vector_7>
      20:	0c 94 af 2e 	jmp	0x5d5e	; 0x5d5e <__bad_interrupt>
      24:	0c 94 af 2e 	jmp	0x5d5e	; 0x5d5e <__bad_interrupt>
      28:	0c 94 af 2e 	jmp	0x5d5e	; 0x5d5e <__bad_interrupt>
      2c:	0c 94 af 2e 	jmp	0x5d5e	; 0x5d5e <__bad_interrupt>
      30:	0c 94 af 2e 	jmp	0x5d5e	; 0x5d5e <__bad_interrupt>
      34:	0c 94 af 2e 	jmp	0x5d5e	; 0x5d5e <__bad_interrupt>
      38:	0c 94 af 2e 	jmp	0x5d5e	; 0x5d5e <__bad_interrupt>
      3c:	0c 94 af 2e 	jmp	0x5d5e	; 0x5d5e <__bad_interrupt>
      40:	0c 94 af 2e 	jmp	0x5d5e	; 0x5d5e <__bad_interrupt>
      44:	0c 94 af 2e 	jmp	0x5d5e	; 0x5d5e <__bad_interrupt>
      48:	0c 94 af 2e 	jmp	0x5d5e	; 0x5d5e <__bad_interrupt>
      4c:	0c 94 af 2e 	jmp	0x5d5e	; 0x5d5e <__bad_interrupt>
      50:	0c 94 af 2e 	jmp	0x5d5e	; 0x5d5e <__bad_interrupt>

00000054 <sounddata_data>:
      54:	66 5d 58 56 62 74 87 9c af b1 b2 aa a8 a3 8e 6f     f]XVbt.........o
      64:	42 28 33 4e 69 76 7e 8c 9e b1 c0 b7 98 7d 66 5b     B(3Niv~......}f[
      74:	5d 5a 5a 5f 69 85 9c a9 b5 ae a7 a6 a1 9c 87 60     ]ZZ_i..........`
      84:	33 26 39 5c 77 81 87 91 a4 b6 bd a9 8a 6b 5a 58     3&9\w........kZX
      94:	58 58 5e 69 77 91 a3 ae b0 ab a1 a0 9b 8f 7a 52     XX^iw.........zR
      a4:	31 2e 48 6c 83 89 8f 9a ad b9 b3 9b 7b 60 57 59     1.Hl........{`WY
      b4:	5e 61 64 6e 85 9a b0 b9 aa a2 9a 95 98 8f 70 46     ^adn..........pF
      c4:	2d 33 57 7b 8c 8f 93 a0 b0 b7 ab 8f 6d 57 52 5a     -3W{........mWRZ
      d4:	62 64 67 75 8e a9 b8 b2 a1 97 96 98 93 81 57 33     bdgu..........W3
      e4:	2e 47 70 8a 8f 8d 98 a9 b6 b3 9b 77 59 50 58 61     .Gp........wYPXa
      f4:	64 64 6c 80 a1 b9 b5 a7 92 8e 98 99 8c 69 3d 2d     ddl..........i=-
     104:	3e 66 89 8e 88 8d a2 b5 b6 a3 80 5f 51 5a 64 65     >f........._QZde
     114:	62 64 77 9a b2 b6 aa 95 91 97 9b 97 75 42 2b 35     bdw.........uB+5
     124:	5e 84 8e 87 89 9c b5 bc aa 89 64 51 57 62 65 61     ^.........dQWbea
     134:	61 71 91 b4 bc b0 99 8e 9d a4 9f 7d 45 27 31 59     aq.........}E'1Y
     144:	83 8f 85 84 97 b6 c5 b3 8e 66 51 59 68 69 61 5b     .........fQYhia[
     154:	6b 8f b0 bc b5 9e 95 9d a1 a3 82 46 26 2b 53 81     k..........F&+S.
     164:	8e 86 85 95 b3 c5 b6 93 69 50 57 66 6a 62 59 66     ........iPWfjbYf
     174:	86 a8 bb b7 9d 95 9d a5 a7 83 46 23 2b 54 7e 8b     ..........F#+T~.
     184:	84 81 91 b2 c4 b5 92 68 50 58 69 6d 63 59 64 87     .......hPXimcYd.
     194:	a9 b8 b4 9b 94 a2 aa a6 7d 42 26 2c 57 7e 88 81     ........}B&,W~..
     1a4:	83 95 b3 c5 b2 8b 61 50 5c 6e 72 64 59 65 88 ab     ......aP\nrdYe..
     1b4:	bb af 96 96 a0 aa a0 6d 3b 24 37 65 83 8a 7e 84     .......m;$7e..~.
     1c4:	9a b7 be a1 79 57 55 67 77 76 65 5c 6f 90 ac b6     ....yWUgwve\o...
     1d4:	a1 92 98 a5 ae 90 57 32 2b 4d 79 8b 82 78 87 a5     ......W2+My..x..
     1e4:	bc b4 90 64 4c 57 74 87 7d 68 64 7b 9c b3 ac 96     ...dLWt.}hd{....
     1f4:	8c 94 a7 a1 77 45 2c 3f 6b 8c 8f 7d 7c 8f af b9     ....wE,?k..}|...
     204:	a0 76 55 50 65 7b 83 7d 74 7e 90 a0 aa 9c 91 92     .vUPe{.}t~......
     214:	9c 9d 81 55 34 3c 61 85 96 88 80 87 a0 b3 a5 81     ...U4<a.........
     224:	5a 4c 5a 72 81 7f 79 84 91 9e a9 98 8d 8c 93 a0     ZLZr..y.........
     234:	8d 62 3d 37 58 7a 98 94 81 86 94 a9 ab 8f 63 49     .b=7Xz........cI
     244:	52 6b 80 83 7a 7e 94 a2 a9 a1 89 83 89 9b a0 7f     Rk..z~..........
     254:	4d 32 43 6c 8e a1 8d 7f 8a 9e ae a0 7a 4f 46 5e     M2Cl........zOF^
     264:	78 86 7e 78 87 a0 aa a9 95 7e 85 91 a1 98 6c 3f     x.~x.....~....l?
     274:	31 52 78 96 a0 84 81 94 a7 ad 96 6b 46 49 65 7f     1Rx........kFIe.
     284:	86 79 75 89 a5 b2 a8 8e 7d 81 94 a5 95 65 37 30     .yu.....}....e70
     294:	57 7d 9a 9e 81 83 99 ad ae 8f 63 44 4f 6b 81 83     W}........cDOk..
     2a4:	73 74 8c a5 b1 a7 8d 81 85 97 a6 92 62 36 32 5b     st..........b62[
     2b4:	7c 94 9a 80 87 a1 af ab 8a 60 4a 55 6d 7f 7f 71     |........`JUm..q
     2c4:	70 8a a3 ab aa 92 82 89 93 a1 92 65 3b 35 56 76     p..........e;5Vv
     2d4:	8a 97 84 86 a3 ac a9 8f 67 51 58 6a 7a 79 71 6e     ........gQXjzyqn
     2e4:	84 9e a8 aa 91 86 8e 91 a2 96 70 47 36 50 6e 7a     ..........pG6Pnz
     2f4:	8b 85 82 a1 ac a8 95 71 5e 60 6a 75 77 6e 68 75     .......q^`juwnhu
     304:	98 a3 a8 a6 8c 8d 90 96 a1 88 5a 3c 3e 5d 70 83     ..........Z<>]p.
     314:	8d 80 93 a9 a5 a1 85 6b 67 69 6f 73 6c 66 6b 89     .......kgioslfk.
     324:	a3 a0 a7 96 86 95 95 a0 9c 75 4b 3b 4a 65 71 86     .........uK;Jeq.
     334:	86 81 9f a9 a7 9e 7e 6e 6c 69 6d 6b 65 62 70 96     ......~nlimkebp.
     344:	a4 a1 a4 8c 8b 9b 9d a7 98 6b 47 3d 4d 65 6d 83     .........kG=Mem.
     354:	86 83 a1 a9 aa a0 83 76 6e 67 67 64 64 63 6e 93     .......vnggddcn.
     364:	a3 9f a2 8f 8f a2 a2 a8 99 6c 47 39 4a 64 6a 81     .........lG9Jdj.
     374:	85 7e 9f b0 b2 a9 85 74 6e 67 66 62 63 60 6b 8e     .~.....tngfbc`k.
     384:	a2 9d a2 99 8f a6 a7 a1 9c 71 4c 3f 47 63 68 6f     .........qL?Gcho
     394:	81 82 9b b3 b0 a6 87 77 7a 71 64 5a 5b 61 6d 89     .......wzqdZ[am.
     3a4:	99 98 98 9f 9f a3 a4 95 8a 83 6d 58 4c 4b 59 64     ..........mXLKYd
     3b4:	75 91 96 9b a6 a3 9f 90 82 73 5d 53 56 6a 75 79     u........s]SVjuy
     3c4:	82 8a 9a a6 b5 aa 92 8a 7f 89 94 7e 5a 40 41 63     ...........~Z@Ac
     3d4:	7a 85 8f 85 8c a7 b1 a9 88 6c 65 5f 61 6b 74 6d     z........le_aktm
     3e4:	6d 83 9b a9 a6 a1 92 7e 87 8f 8e 95 7f 5f 4f 54     m......~....._OT
     3f4:	69 77 70 77 89 90 a6 a9 97 7f 6b 76 78 68 67 6d     iwpw......kvxhgm
     404:	70 7a 8c 94 90 8d 8d 9a 93 83 89 89 8b 95 8b 6b     pz.............k
     414:	4f 54 69 76 79 88 89 7f 92 98 91 84 76 77 78 73     OTivy.......vwxs
     424:	7b 84 7a 74 78 82 87 88 90 8f 84 81 8f 9a 9d 9e     {.ztx...........
     434:	8c 70 5c 60 6d 72 65 6a 78 75 89 97 96 8e 89 94     .p\`mrejxu......
     444:	94 86 7b 75 6f 6a 6e 73 72 73 7d 8f 98 94 9c 9e     ..{uojnsrs}.....
     454:	9b a3 a0 8a 6a 56 53 58 5b 60 70 70 7c 95 a6 ab     ....jVSX[`pp|...
     464:	a1 9b 96 88 7d 79 6b 5a 53 5b 69 6e 83 97 9a 9d     ....}ykZS[in....
     474:	9a a3 ab a6 a6 95 6f 4c 46 52 5d 5d 64 72 75 8d     ......oLFR]]dru.
     484:	ab bb b3 9e 98 8f 80 70 62 53 4d 58 6f 7c 7b 85     .......pbSMXo|{.
     494:	94 a3 b0 aa a0 95 89 8b 8d 7d 5e 49 46 55 68 74     .........}^IFUht
     4a4:	82 83 89 9f b1 b3 9c 88 7a 71 70 73 6f 5e 58 66     ........zqpso^Xf
     4b4:	79 87 8b 90 91 92 97 9b 9a 95 8e 8d 8b 76 60 5b     y............v`[
     4c4:	59 64 6f 76 7e 7c 81 92 a1 a1 94 8f 89 82 7c 79     Ydov~|........|y
     4d4:	73 66 60 66 6d 71 74 82 94 9b 9c 98 99 9b 9e a3     sf`fmqt.........
     4e4:	9c 82 63 53 53 5f 61 64 6b 6c 7d 97 ae af a2 9b     ..cSS_adkl}.....
     4f4:	96 90 84 78 69 53 4f 5d 6c 70 70 7b 8d a2 b2 b0     ...xiSO]lpp{....
     504:	a8 9d 95 99 9b 8a 68 4d 42 50 63 6f 72 6e 78 8f     ......hMBPcornx.
     514:	ac ba a8 92 83 82 84 83 79 61 52 59 6a 7a 7d 77     ........yaRYjz}w
     524:	81 8e 9e a6 9d 95 8a 8f 9c 9c 8b 6d 59 55 60 6a     ...........mYU`j
     534:	72 6a 62 68 81 9e a5 a2 94 89 8a 92 99 8c 74 63     rjbh..........tc
     544:	5e 64 6b 6a 6b 71 7c 90 97 99 9e a3 ac ad a5 91     ^dkjkq|.........
     554:	71 5f 5b 58 5c 61 5d 60 6b 82 9a 9d 9f 99 9b 9e     q_[X\a]`k.......
     564:	9e 9b 89 70 62 5e 5d 61 5f 64 71 81 92 95 9b a1     ...pb^]a_dq.....
     574:	a2 a6 a3 9f 92 7c 6d 66 5c 5c 5e 5c 5f 69 7d 8f     .....|mf\\^\_i}.
     584:	94 99 97 97 98 9a 98 8e 80 76 6b 62 63 60 62 6e     .........vkbc`bn
     594:	78 80 83 8c 9c a6 ad ad a5 9a 8a 7c 71 63 5d 5e     x..........|qc]^
     5a4:	59 59 5f 6a 7c 86 92 97 9a a1 a3 9f 99 8a 7d 72     YY_j|.........}r
     5b4:	69 65 61 5f 68 74 7e 83 87 93 9b a3 ab a7 a3 94     iea_ht~.........
     5c4:	82 75 66 61 65 60 60 5f 64 73 7d 8a 8f 8b 8d 91     .ufae``_ds}.....
     5d4:	99 9d 99 8f 81 79 79 76 6e 6b 6a 6e 70 76 83 88     .....yyvnkjnpv..
     5e4:	8e 9a a3 a3 9e 97 8c 7e 77 78 6e 61 58 56 5d 66     .......~wxnaXV]f
     5f4:	73 7d 7e 85 92 a0 a8 aa a5 96 85 80 7b 6f 68 64     s}~.........{ohd
     604:	64 64 6b 7f 8b 92 9a 9f a3 9c 95 8a 7e 7c 7b 74     ddk.........~|{t
     614:	69 5e 5d 61 6d 79 79 78 7f 89 94 99 9a 97 8d 86     i^]amyyx........
     624:	85 83 80 7e 79 74 6d 70 77 7b 82 8a 92 93 91 8d     ...~ytmpw{......
     634:	87 88 89 88 7f 71 67 66 69 71 71 6a 6b 72 81 8f     .....qgfiqqjkr..
     644:	98 9c 98 94 96 93 8c 82 76 6f 6a 6b 72 76 80 8a     ........vojkrv..
     654:	95 9a 96 92 88 86 89 87 7c 6c 5f 60 65 6f 75 70     ........|l_`eoup
     664:	70 77 87 96 9e 9f 98 8d 87 85 83 7a 75 71 71 74     pw.........zuqqt
     674:	7b 86 8c 8f 97 99 95 8c 80 78 7c 7d 7c 72 66 64     {........x|}|rfd
     684:	69 74 7e 7f 7a 77 7a 87 90 94 8e 86 80 82 86 88     it~.zwz.........
     694:	87 82 7f 7e 7e 84 83 84 86 88 8c 86 80 79 7c 83     ...~~........y|.
     6a4:	86 83 79 6b 69 70 79 7e 77 6e 6c 73 85 95 98 92     ..ykipy~wnls....
     6b4:	8a 8a 8f 8f 8c 85 77 74 73 7b 81 82 87 8c 91 91     ......wts{......
     6c4:	8a 80 7c 7c 82 81 74 68 62 67 71 7b 7f 79 78 7d     ..||..thbgq{.yx}
     6d4:	8a 96 9b 93 88 7d 7a 7f 84 84 7b 7a 79 7d 88 8c     .....}z...{zy}..
     6e4:	91 91 8f 8f 88 7d 75 73 77 79 76 71 6a 6d 74 80     .....}uswyvqjmt.
     6f4:	84 80 7b 7a 7e 86 8c 8c 87 81 80 84 88 88 84 7d     ..{z~..........}
     704:	7e 7c 82 89 89 8f 8e 8d 8c 84 7e 79 7b 7e 7f 77     ~|........~y{~.w
     714:	6e 69 6c 74 7a 7e 7a 75 77 82 8d 95 91 89 82 81     niltz~zuw.......
     724:	84 86 85 7e 79 7e 7c 83 89 8c 94 94 91 8e 82 7b     ...~y~|........{
     734:	7b 7c 7f 78 6e 6a 67 6e 76 7b 7b 74 74 7b 84 8c     {|.xnjgnv{{tt{..
     744:	90 8c 86 80 83 87 88 87 80 7f 80 7f 84 88 87 8b     ................
     754:	8e 8e 8c 84 7e 7c 7f 82 80 75 6b 67 69 70 76 76     ....~|...ukgipvv
     764:	71 70 76 83 8b 93 93 91 8c 8b 8b 8a 88 80 7c 7b     qpv...........|{
     774:	78 7f 85 8c 91 90 91 90 87 83 82 7e 7c 78 70 68     x..........~|xph
     784:	63 65 6d 71 74 75 79 80 88 90 94 92 8d 88 84 84     cemqtuy.........
     794:	84 83 7d 7e 7f 7d 85 8a 8c 92 90 8f 8e 83 7d 7a     ..}~.}........}z
     7a4:	78 79 78 73 6a 66 69 71 78 7b 79 76 77 7d 85 8e     xyxsjfiqx{yvw}..
     7b4:	8f 8c 88 85 88 8c 8b 86 82 7e 7f 84 89 8a 8a 8b     .........~......
     7c4:	8c 8b 89 83 7f 7c 7b 7b 78 70 6a 67 6b 6e 72 74     .....|{{xpjgknrt
     7d4:	76 78 7d 86 8f 94 92 8e 89 87 88 89 86 83 7f 7e     vx}............~
     7e4:	80 88 8a 8d 8d 91 90 8c 86 7f 7a 79 78 76 6d 65     ..........zyxvme
     7f4:	66 6b 73 76 77 78 77 7a 80 88 8d 8c 89 89 88 88     fksvwxwz........
     804:	89 88 8b 88 82 83 87 87 8a 8e 91 8f 89 81 7c 76     ..............|v
     814:	77 7b 7e 77 6c 6a 6c 6f 72 76 73 73 71 76 7f 88     w{~wljlorvssqv..
     824:	8b 8c 8d 8c 8b 8d 8e 90 8e 87 87 84 86 87 88 8c     ................
     834:	8c 87 88 83 82 7b 7a 79 7d 74 6e 68 67 68 6c 71     .....{zy}tnhghlq
     844:	75 74 72 79 83 8d 8f 8f 8d 89 8a 8e 91 91 89 81     utry............
     854:	80 84 89 89 8c 8e 8c 8a 8b 86 82 76 75 77 79 71     ...........vuwyq
     864:	6a 65 69 6a 70 74 75 72 72 78 83 8c 8d 8e 8c 8d     jeijpturrx......
     874:	8d 8f 93 94 8c 88 86 86 86 87 88 8c 8a 88 88 84     ................
     884:	81 7a 7a 7a 7b 73 6e 67 69 6a 6c 70 73 75 76 7a     .zzz{sngijlpsuvz
     894:	81 8a 8c 8d 8d 8a 88 8b 8f 93 8e 88 84 84 85 85     ................
     8a4:	87 8b 8d 8a 8b 8f 8f 8c 83 7c 76 76 70 6b 64 61     .........|vvpkda
     8b4:	5d 61 68 72 75 74 78 80 85 89 8c 8e 8c 85 86 8a     ]ahrutx.........
     8c4:	90 90 8e 8d 92 94 93 91 8f 8d 8a 85 85 83 7d 75     ..............}u
     8d4:	74 77 7b 7b 76 71 69 63 60 66 6a 6c 68 6c 73 7c     tw{{vqic`fjlhls|
     8e4:	86 92 9b a0 9a 95 95 95 94 8d 85 80 7c 7c 84 8b     ............||..
     8f4:	90 90 91 91 93 90 8a 7d 74 6c 6e 6f 6b 65 60 5e     .......}tlnoke`^
     904:	60 6d 7b 85 80 7a 76 7b 82 89 8a 86 7f 7f 8b 96     `m{..zv{........
     914:	9e 9c 92 8d 8d 8b 8e 8b 84 81 80 82 89 8a 83 7c     ...............|
     924:	73 77 7d 89 81 76 65 5e 5b 62 67 6c 66 65 6c 77     sw}..ve^[bglfelw
     934:	87 8e 94 94 90 8c 8e 90 95 93 8d 89 86 88 8a 8c     ................
     944:	90 93 95 95 92 8e 8c 87 82 77 6d 69 71 78 7a 73     .........wmiqxzs
     954:	69 62 60 66 6e 72 6c 68 66 6f 7e 8c 92 91 8c 89     ib`fnrlhfo~.....
     964:	92 a1 ac a9 9d 8a 80 7e 84 89 87 7f 7d 83 8e 9b     .......~....}...
     974:	9c 96 8b 7e 72 71 74 72 67 5b 54 54 58 61 6b 73     ...~rqtrg[TTXaks
     984:	78 7c 7f 82 87 8a 8d 8e 88 81 80 87 95 9c 9e 97     x|..............
     994:	92 8d 8f 93 95 8e 84 7e 7e 85 8a 88 84 7b 71 71     .......~~....{qq
     9a4:	7d 85 84 76 67 5c 5c 5d 61 64 65 65 67 70 7e 89     }..vg\\]adeegp~.
     9b4:	90 93 92 91 8f 8e 8e 94 94 90 8c 8a 87 8a 8d 95     ................
     9c4:	98 94 8e 8c 8a 8b 8a 86 81 77 6e 73 7c 83 7a 6f     .........wns|.zo
     9d4:	64 60 60 62 63 64 61 5e 62 6e 7b 84 87 8c 94 9d     d``bcda^bn{.....
     9e4:	a1 a2 9d 98 8f 89 86 85 83 81 86 8d 91 92 93 94     ................
     9f4:	96 95 91 8c 85 7b 71 6f 76 74 6d 64 63 68 71 71     .....{qovtmdchqq
     a04:	6e 66 63 64 69 70 75 77 79 83 8f 96 96 97 99 9b     nfcdipuwy.......
     a14:	9b 96 91 88 80 82 86 89 87 80 7e 88 97 a0 a1 99     ..........~.....
     a24:	8e 85 81 80 80 79 6f 69 6b 6f 73 70 6a 65 62 63     .....yoikospjebc
     a34:	66 69 68 68 6a 71 7b 80 81 86 8f 99 a2 a0 9a 95     fihhjq{.........
     a44:	90 8d 8b 87 81 7f 81 8b 92 94 90 8e 8e 91 95 94     ................
     a54:	8c 83 7a 78 7b 7d 76 71 68 6b 71 73 6e 67 61 5c     ..zx{}vqhkqsnga\
     a64:	5f 63 66 68 6c 74 80 8b 90 92 91 92 95 95 91 8d     _cfhlt..........
     a74:	87 85 87 8a 8c 89 87 89 93 9d a0 9c 95 90 8f 90     ................
     a84:	8c 84 79 75 76 7c 7d 78 6e 68 64 65 64 62 5e 5b     ..yuv|}xnhdedb^[
     a94:	5a 5f 64 6b 6e 72 79 84 8d 90 8f 8c 8d 91 94 93     Z_dknry.........
     aa4:	8e 8e 90 97 9e a0 9a 92 8c 8d 8f 8f 8d 8b 89 8a     ................
     ab4:	8c 8b 87 81 7e 7e 82 7f 79 6f 66 5e 5e 5a 5b 5a     ....~~..yof^^Z[Z
     ac4:	59 5d 65 6c 71 74 77 7a 7f 82 83 84 8a 8f 96 99     Y]elqtwz........
     ad4:	99 96 94 98 a0 a7 a6 9b 8e 86 85 8a 8b 87 85 84     ................
     ae4:	89 8f 94 90 88 7f 7a 78 76 71 6b 65 5f 5c 5c 59     ......zxvqke_\\Y
     af4:	5b 5b 5f 64 6c 6d 6a 6d 73 7b 82 84 84 88 91 9c     [[_dlmjms{......
     b04:	a5 a8 a3 9b 95 97 9c 9a 93 8b 85 87 8b 8d 8a 86     ................
     b14:	84 89 92 95 93 8c 84 7c 78 76 73 71 6e 6c 6b 68     .......|xvsqnlkh
     b24:	62 5d 5c 5e 61 60 5c 5a 5e 68 77 82 84 83 81 87     b]\^a`\Z^hw.....
     b34:	96 a5 af ac a2 98 92 95 9b 9c 98 90 8d 8c 8e 8f     ................
     b44:	8d 89 83 7f 7d 7d 7f 81 85 86 85 7c 74 6f 70 7b     ....}}.....|top{
     b54:	7f 7b 6f 63 59 5a 60 66 65 5f 5a 5c 69 7a 84 89     .{ocYZ`fe_Z\iz..
     b64:	85 83 84 8c 94 9e a1 a3 9f 9d 9a 9b 9b 9c 9d 9b     ................
     b74:	94 8b 81 7f 80 7e 7b 75 6f 70 7c 89 93 94 8d 86     .....~{uop|.....
     b84:	80 7c 79 7c 7c 76 6c 62 5f 60 62 63 63 64 66 68     .|y||vlb_`bccdfh
     b94:	6a 70 76 7a 7c 7c 7f 80 85 8f 99 a3 a9 a5 a0 9e     jpvz||..........
     ba4:	9e 9e 9c 97 8b 81 7a 77 7c 81 7f 7b 76 77 82 8c     ......zw|..{vw..
     bb4:	93 95 91 8c 89 87 86 82 7a 77 77 79 74 6d 67 61     ........zwwytmga
     bc4:	60 5e 5a 59 59 58 57 5f 6d 75 7a 7d 82 8a 96 9f     `^ZYYXW_muz}....
     bd4:	a5 a7 a7 a1 99 99 9a 94 91 90 8f 90 8e 88 87 88     ................
     be4:	89 87 82 7c 78 7a 7e 84 89 87 84 83 82 88 8b 84     ...|xz~.........
     bf4:	7c 79 76 72 6d 66 5e 55 51 50 59 64 6b 68 67 6d     |yvrmf^UQPYdkhgm
     c04:	78 7c 82 86 86 87 8e 91 98 a0 a4 9f 9e a0 a2 a1     x|..............
     c14:	a2 9c 97 91 86 7d 7c 7b 7b 7c 7d 7f 7f 7f 87 8c     .....}|{{|}.....
     c24:	8c 8b 8a 85 82 83 81 7a 71 6e 70 72 72 6b 66 62     .......zqnprrkfb
     c34:	62 62 64 66 6a 65 5e 62 6c 74 7c 85 89 8b 90 94     bbdfje^blt|.....
     c44:	98 9e a6 a3 9a 95 92 90 90 96 97 94 90 86 7f 85     ................
     c54:	8f 90 8b 81 79 77 7b 81 83 81 80 7e 84 8e 90 8e     ....yw{....~....
     c64:	8b 80 74 73 75 70 6a 63 5d 55 57 59 5e 64 6a 65     ..tsupjc]UWY^dje
     c74:	61 68 73 7a 81 86 88 85 85 86 88 93 a0 a3 a1 a1     ahsz............
     c84:	9e 9d a2 a3 9f 96 8c 82 80 85 87 83 7d 7c 78 79     ............}|xy
     c94:	7c 80 83 88 8c 89 8b 8c 8c 8a 89 84 7b 70 6e 73     |...........{pns
     ca4:	76 75 6c 60 55 55 58 5b 5e 61 5c 54 57 63 6f 79     vul`UUX[^a\TWcoy
     cb4:	7f 7f 7c 84 8e 97 a5 b4 b2 a7 a8 ab a6 a7 a7 9e     ..|.............
     cc4:	97 91 89 80 81 88 88 83 7e 78 78 7e 84 84 84 80     ........~xx~....
     cd4:	79 7c 86 8c 8b 87 80 7c 7c 7a 76 78 75 6e 65 5d     y|.....||zvxune]
     ce4:	53 51 53 51 52 5c 60 5d 63 6f 78 82 8e 90 8c 92     SQSQR\`]cox.....
     cf4:	9b 9a 9f ac af a5 a2 a3 a2 a4 ab a7 9d 98 8f 82     ................
     d04:	7d 7f 7b 74 6c 64 63 6d 75 74 7a 81 82 83 8a 90     }.{tldcmutz.....
     d14:	8e 8c 89 84 82 80 78 6f 72 74 71 6b 63 5c 5b 63     ......xortqkc\[c
     d24:	63 5f 60 65 61 5d 66 71 77 7e 88 8c 8f 9b 9f a2     c_`ea]fqw~......
     d34:	aa b4 ad a2 a0 9f 9d 9d 9c 91 88 86 7f 78 7f 82     .............x..
     d44:	77 73 78 76 79 7e 7c 79 7d 80 7f 82 8b 8f 92 94     wsxvy~|y}.......
     d54:	91 8b 8b 89 83 7c 76 71 6c 64 5f 58 53 4c 4d 4f     .....|vqld_XSLMO
     d64:	53 5a 63 63 66 74 81 84 8e 96 96 98 9e 9e 9b a1     SZccft..........
     d74:	a5 9d 9c a2 9e 9a 9f a0 97 95 92 87 7f 83 7e 75     ..............~u
     d84:	74 71 6c 71 77 79 7a 7e 7d 83 8e 96 94 90 8c 88     tqlqwyz~}.......
     d94:	85 84 80 7a 72 68 64 67 68 65 61 5c 58 5c 60 5f     ...zrhdghea\X\`_
     da4:	61 6a 6e 6b 6f 77 7c 83 90 94 95 9a 9e 9c a5 b3     ajnkow|.........
     db4:	b5 ac a9 a5 9e 9e a1 97 8c 85 7f 76 77 7b 78 71     ...........vw{xq
     dc4:	70 6f 6e 75 79 76 76 7c 7b 79 7c 80 84 87 86 84     ponuyvv|{y|.....
     dd4:	84 85 84 86 88 84 78 72 71 70 6d 68 60 55 52 58     ......xrqpmh`URX
     de4:	5c 60 6b 70 6b 6f 7c 87 8f 99 9b 95 99 9e 99 9b     \`kpko|.........
     df4:	a7 a6 99 96 95 8f 91 9a 97 8f 8e 88 7a 77 7f 7c     ............zw.|
     e04:	77 72 67 60 69 72 74 79 7e 7a 7a 84 8f 96 9c 9a     wrg`irty~zz.....
     e14:	92 8f 8d 8a 87 86 83 77 68 60 64 69 68 66 60 58     .......wh`dihf`X
     e24:	58 61 63 65 70 75 69 65 71 7b 7f 8f 94 8b 8f 9c     Xacepuieq{......
     e34:	9b a1 b5 b8 a5 a1 a4 97 96 a0 97 88 86 7e 67 65     .............~ge
     e44:	76 76 74 7a 72 69 77 81 7e 83 8c 84 7c 85 8d 91     vvtzriw.~...|...
     e54:	99 9a 8e 89 8c 89 87 89 86 7e 73 66 5f 65 6a 64     .........~sf_ejd
     e64:	5c 54 4a 49 53 5d 62 70 78 70 70 84 90 93 a2 a8     \TJIS]bpxpp.....
     e74:	9c 99 a2 9d 9a ab af 9b 93 96 8d 8c 9d 9e 8f 8d     ................
     e84:	8b 77 71 7f 80 76 74 6f 60 65 75 76 79 87 85 7e     .wq..vto`euvy..~
     e94:	86 90 90 97 9c 92 8b 89 82 7d 83 80 77 72 6c 5f     .........}..wrl_
     ea4:	56 5c 69 66 5f 60 55 4d 5e 6b 6b 72 79 72 6a 76     V\if_`UM^kkryrjv
     eb4:	88 8e 97 a4 9a 90 9e aa a6 b1 bf af 9a 9c 9b 91     ................
     ec4:	99 9e 89 7b 80 74 64 73 7d 71 73 77 6a 69 7b 7e     ...{.tds}qswji{~
     ed4:	76 7c 82 73 75 86 8c 8e 99 93 86 8a 8f 8a 88 87     v|.su...........
     ee4:	82 78 71 6e 66 5b 5a 61 62 5c 5d 5e 59 60 71 75     .xqnf[Zab\]^Y`qu
     ef4:	6e 79 80 74 76 8e 93 8d 9b 9e 8f 9b b2 a7 a0 b5     ny.tv...........
     f04:	ae 91 99 a1 8b 8b 9e 8b 74 7d 7c 62 6c 81 6e 62     ........t}|bl.nb
     f14:	73 6b 61 7a 88 75 77 89 7c 79 94 9a 8b 94 9c 89     skaz.uw.|y......
     f24:	8b 99 8e 84 8b 88 79 7a 80 75 6d 69 5e 59 62 5f     ......yz.umi^Yb_
     f34:	57 5b 5a 54 5d 6c 67 6e 8a 87 75 83 94 89 96 aa     W[ZT]lgn..u.....
     f44:	9a 8f a4 a3 92 a5 b8 a0 93 a2 98 86 96 97 7e 80     ..............~.
     f54:	8e 78 62 72 73 67 78 81 6f 6f 81 77 71 88 8c 7c     .xbrsgx.oo.wq..|
     f64:	84 8c 84 87 98 91 85 8e 92 83 83 87 81 79 7a 79     .............yzy
     f74:	6e 66 5f 56 5e 6b 62 59 57 4f 53 6a 6f 67 77 84     nf_V^kbYWOSjogw.
     f84:	72 74 8f 97 91 a1 a3 8c 96 b0 a2 9b b7 ba 98 96     rt..............
     f94:	a3 93 91 a5 98 7b 82 87 6a 64 7d 71 60 6d 6c 60     .....{..jd}q`ml`
     fa4:	71 81 6f 6e 88 85 7c 8a 8f 82 8d 99 87 83 93 8d     q.on..|.........
     fb4:	82 89 8c 7f 7c 82 7a 74 76 64 52 63 70 65 60 61     ....|.ztvdRcpe`a
     fc4:	51 4d 65 6f 69 7d 8d 75 6d 8c 99 92 a3 aa 90 90     QMeoi}.um.......
     fd4:	ab a2 95 af b5 93 8d a0 91 87 9c 98 7c 82 8d 70     ............|..p
     fe4:	62 7b 7c 69 70 75 62 67 7f 78 6f 85 88 7b 85 95     b{|ipubg.xo..{..
     ff4:	91 92 9c 90 83 8a 8a 7e 80 87 82 7e 7c 77 72 6d     .......~...~|wrm
    1004:	62 5d 67 6b 60 58 5b 4e 4f 67 67 5c 72 81 6e 73     b]gk`X[NOgg\r.ns
    1014:	91 97 91 a4 a7 8e 97 b2 a4 9a b4 b1 8f 92 a0 90     ................
    1024:	92 a8 97 7d 85 8a 72 71 84 77 67 72 6f 64 73 7f     ...}..rq.wgrods.
    1034:	70 70 81 7e 78 88 8f 87 91 99 8a 88 92 8c 81 85     pp.~x...........
    1044:	83 77 7b 7c 71 70 6f 5b 54 69 6b 5d 63 63 4f 50     .w{|qpo[Tik]ccOP
    1054:	6b 6b 60 78 8a 71 6c 8c 92 8b a8 b0 90 98 b7 a4     kk`x.ql.........
    1064:	9a bc b9 91 91 9e 88 87 a2 93 78 84 88 6a 69 81     ..........x..ji.
    1074:	77 69 79 74 61 70 7e 6d 72 8a 81 76 8a 8e 86 97     wiytap~mr..v....
    1084:	a0 8e 8a 94 89 81 8c 89 7c 7c 7b 71 71 70 5c 51     ........||{qqp\Q
    1094:	66 73 62 60 63 52 50 6c 74 67 76 8a 76 69 88 99     fsb`cRPltgv.vi..
    10a4:	90 9b a9 91 88 a7 aa 97 aa b8 98 87 9a 94 85 97     ................
    10b4:	9c 7d 72 83 75 64 7a 85 6c 67 76 6d 6e 87 87 71     .}r.udz.lgvmn..q
    10c4:	79 89 7c 80 96 94 86 8c 8b 84 8e 97 8c 84 84 7e     y.|............~
    10d4:	79 80 7e 79 77 6b 53 4a 63 75 65 5e 5f 52 4d 65     y.~ywkSJcue^_RMe
    10e4:	79 71 79 90 7e 61 7f a1 95 99 ae 96 7c 9c af 95     yqy.~a......|...
    10f4:	a2 c0 9c 76 91 9c 85 98 ad 81 67 86 7d 5a 7a 97     ...v......g.}Zz.
    1104:	6c 5b 7a 6f 64 8c 94 6c 78 96 7b 74 9f a0 82 92     l[zod..lx.{t....
    1114:	99 7b 80 9c 8c 7b 8b 8b 71 74 82 77 73 7d 6e 48     .{...{..qt.ws}nH
    1124:	4e 72 70 59 5c 60 47 45 6a 76 6b 81 90 70 69 93     NrpY\`GEjvk..pi.
    1134:	a9 9b a4 b1 93 84 a9 ae 96 ae bb 8c 7b 9d 98 85     ............{...
    1144:	9f 9f 72 6f 85 6d 60 85 89 61 61 75 6a 71 90 84     ..ro.m`..aaujq..
    1154:	6c 80 8d 7a 87 a6 99 89 96 94 89 99 9d 87 80 86     l..z............
    1164:	7a 6c 76 76 6b 71 6f 60 57 52 53 67 72 61 57 59     zlvvkqo`WRSgraWY
    1174:	4e 4b 6b 7d 6c 78 8c 78 74 9e ae 9d ae ba 93 92     NKk}lx.xt.......
    1184:	be b2 96 b3 b2 83 82 9e 89 7c 9a 8e 66 72 83 67     .........|..fr.g
    1194:	62 80 77 5c 6e 7d 67 76 96 82 71 8b 91 7e 8e a2     b.w\n}gv..q..~..
    11a4:	91 8c 9f 94 83 90 98 85 80 8a 7e 71 78 79 6e 6c     ..........~qxynl
    11b4:	70 67 5a 53 49 54 6f 6c 57 5d 5d 4c 61 83 78 70     pgZSITolW]]La.xp
    11c4:	8e 8b 6b 81 a3 9b 99 b2 a4 88 a3 b9 a1 a5 bd a0     ..k.............
    11d4:	81 94 9a 84 93 a2 82 6e 82 7d 67 79 87 6a 5d 70     .......n.}gy.j]p
    11e4:	6c 6a 85 85 6b 75 88 7d 83 a0 9a 87 90 91 7f 88     lj..ku.}........
    11f4:	97 85 7a 87 84 74 7c 85 79 77 81 79 6f 71 64 4e     ..z..t|.yw.yoqdN
    1204:	57 75 6d 55 59 5b 47 57 80 76 66 87 90 67 6f 9f     WumUY[GW.vf..go.
    1214:	9e 8f ab ac 87 99 b9 a0 98 c1 ba 86 8a a2 8c 8d     ................
    1224:	ab 92 67 7a 8b 69 6f 96 80 5c 6d 75 62 79 8f 6e     ..gz.io..\muby.n
    1234:	61 82 85 71 87 9c 87 83 93 87 7f 95 94 7a 78 83     a..q.........zx.
    1244:	77 70 76 77 76 78 77 6f 68 67 5a 58 77 77 5b 5c     wpvwvxwohgZXww[\
    1254:	66 56 60 86 7e 67 85 97 6f 71 9e a0 8f a3 a3 84     fV`.~g..oq......
    1264:	8f b0 a1 95 b9 ba 8c 8a a1 93 8d a4 94 6c 79 8b     .............ly.
    1274:	6c 66 8b 85 63 6a 77 6b 7b 95 7c 68 85 8c 74 83     lf..cjwk{.|h..t.
    1284:	9b 8d 87 93 87 7b 8e 91 7b 77 7f 6f 64 74 79 70     .....{..{w.odtyp
    1294:	75 7a 6c 67 6e 5e 4d 6a 80 63 56 61 56 4b 6b 80     uzlgn^Mj.cVaVKk.
    12a4:	6b 76 99 88 6d 8f b2 a6 a6 b7 9f 8d b0 bc 9f ad     kv..m...........
    12b4:	c5 a3 81 96 9b 85 92 9b 74 67 83 74 54 70 8c 6d     ........tg.tTp.m
    12c4:	5b 71 6c 65 89 92 6c 72 90 7a 6e 95 9e 84 8c 94     [qle..lr.zn.....
    12d4:	7b 83 a1 92 77 84 85 6c 6e 83 79 6e 79 74 64 6f     {...w..ln.ynytdo
    12e4:	76 5a 4c 6b 78 5f 59 5f 51 4d 6e 7c 68 73 92 86     vZLkx_Y_QMn|hs..
    12f4:	70 8b a8 9f 9f af 9f 91 ab b1 98 a4 c0 a8 88 95     p...............
    1304:	9c 8f 9c a7 86 72 86 7f 64 78 91 75 5f 6a 68 67     .....r..dx.u_jhg
    1314:	84 88 69 69 7e 75 71 8a 8e 7e 84 88 79 81 98 8b     ..ii~uq..~..y...
    1324:	76 7f 83 6f 6f 7c 74 72 82 7b 67 70 7e 6e 56 59     v..oo|tr.{gp~nVY
    1334:	70 78 66 5e 67 63 5c 73 85 75 7c 9f 91 70 8e b8     pxf^gc\s.u|..p..
    1344:	a8 9c b1 9f 83 a3 b9 98 9d bd 9d 72 8b 9c 81 8a     ...........r....
    1354:	9b 76 62 82 7b 59 6e 8c 70 5c 6d 6d 6a 87 8e 6e     .vb.{Yn.p\mmj..n
    1364:	6e 86 7b 74 94 9e 8d 90 91 7f 87 a0 94 7f 84 85     n.{t............
    1374:	75 75 7d 75 74 7a 6e 62 6e 78 6e 5f 52 57 71 74     uu}utznbnxn_RWqt
    1384:	55 50 67 62 5d 7a 81 6f 86 a1 80 76 a7 b2 95 a4     UPgb]z.o...v....
    1394:	b5 97 9b ba a5 90 b8 bf 8c 88 a7 94 82 9b 92 6d     ...............m
    13a4:	77 88 69 60 81 7e 5c 60 6c 61 6b 81 6e 5f 7a 82     w.i`.~\`lak.n_z.
    13b4:	6c 78 92 88 80 91 8b 7c 90 9c 85 7e 8e 81 6a 75     lx.....|...~..ju
    13c4:	85 7a 7b 83 73 68 7d 86 75 69 63 5a 6d 81 6e 5e     .z{.sh}.uicZm.n^
    13d4:	70 6d 54 6b 8e 7e 7b 9f 90 6c 8a b0 97 8e ad a0     pmTk.~{..l......
    13e4:	85 a1 ad 8f 9a b6 98 7b 91 95 7a 88 9b 7f 6e 83     .......{..z...n.
    13f4:	79 5e 73 8e 76 61 6f 70 6b 80 85 6b 6b 81 7c 78     y^s.vaopk..kk.|x
    1404:	8e 94 88 8e 93 83 85 99 95 81 81 82 77 74 7d 7a     ............wt}z
    1414:	73 77 75 67 6e 7f 7a 71 70 5d 4b 64 7f 67 59 71     swugn.zqp]Kd.gYq
    1424:	69 50 69 8f 80 7c 9c 94 6f 89 b2 a0 99 b8 a7 82     iPi..|..o.......
    1434:	9b b2 97 9f c1 a7 7b 90 a0 84 8b a4 85 65 7e 80     ......{......e~.
    1444:	5e 6f 92 77 58 68 6a 5f 7a 8a 6a 62 7b 73 66 84     ^o.wXhj_z.jb{sf.
    1454:	95 7e 7d 8c 79 78 9c 9d 7d 7f 8c 75 6c 87 8a 79     .~}.yx..}..ul..y
    1464:	7f 7f 6a 71 8a 87 7d 7f 6c 4b 58 82 79 63 70 6d     ..jq..}.lKX.ycpm
    1474:	4d 5b 87 83 76 95 9e 74 74 a1 ab a1 b0 a9 85 8f     M[..v..tt.......
    1484:	ad 9f 98 b5 ad 83 7f 8d 7c 7f 9b 8a 63 69 77 62     ........|...ciwb
    1494:	62 7f 81 6b 69 66 5f 79 92 82 6f 79 7a 73 87 96     b..kif_y..oyzs..
    14a4:	8c 8a 92 84 7a 91 9f 91 89 89 7d 72 7f 85 7c 7d     ....z.....}r..|}
    14b4:	80 71 6b 7b 80 77 78 7b 6a 53 58 71 71 62 65 66     .qk{.wx{jSXqqbef
    14c4:	53 56 74 7f 74 84 99 83 75 97 ac 9e a4 b2 9a 92     SVt.t...u.......
    14d4:	af ae 98 a8 b8 9a 84 91 8d 7f 91 92 71 68 7c 70     ............qh|p
    14e4:	5f 76 89 74 66 6c 6c 74 8b 8a 74 76 81 77 79 8d     _v.tfllt..tv.wy.
    14f4:	8f 88 89 7e 70 82 95 88 7a 80 7c 70 76 7d 76 78     ...~p...z.|pv}vx
    1504:	7e 70 6a 7b 85 7f 7d 7f 75 61 5d 78 83 72 69 6b     ~pj{..}.ua]x.rik
    1514:	5f 57 72 8b 79 71 8f 8c 6c 82 b0 a9 98 ae a7 8b     _Wr.yq..l.......
    1524:	a2 be a3 9c bb a9 79 86 9f 88 83 96 7b 5b 74 7b     ......y.....{[t{
    1534:	57 5f 88 75 4e 59 62 5c 76 8b 6d 62 80 81 73 8d     W_.uNYb\v.mb..s.
    1544:	a4 95 8e 94 84 82 a0 a4 87 83 8c 7b 72 84 89 7d     ...........{r..}
    1554:	81 7e 6a 6c 81 83 7a 7c 77 61 50 62 7d 7a 6d 6c     .~jl..z|waPb}zml
    1564:	62 52 64 88 88 75 83 90 72 6b 96 a9 9b a0 a1 85     bRd..u..rk......
    1574:	88 ab a7 97 ad ac 80 77 8f 8a 87 9d 8e 65 6f 85     .......w.....eo.
    1584:	72 6d 8d 89 69 68 6d 62 75 94 80 66 77 7d 6d 80     rm..ihmbu..fw}m.
    1594:	9c 92 88 93 87 76 92 aa 94 83 8b 80 6f 80 8f 84     .....v......o...
    15a4:	7e 7d 6c 66 77 82 7c 76 75 6b 58 4e 59 76 7b 65     ~}lfw.|vukXNYv{e
    15b4:	57 58 51 5c 82 8e 7a 81 96 7f 71 9c bc aa a7 aa     WXQ\..z...q.....
    15c4:	8f 8f b3 b2 9c ad b0 85 72 8e 8e 83 99 8e 61 61     ........r.....aa
    15d4:	7c 6b 61 83 8d 6a 62 6e 66 76 9c 90 6d 7d 8c 74     |ka..jbnfv..m}.t
    15e4:	7b a0 98 81 8d 86 65 76 9e 8a 6c 80 80 61 6f 8a     {.....ev..l..ao.
    15f4:	7a 70 83 78 5c 72 8f 7d 72 85 82 6e 67 5e 64 8a     zp.x\r.}r..ng^d.
    1604:	90 68 5a 6a 66 63 81 88 72 83 99 76 6a 9d b3 9b     .hZjfc..r..vj...
    1614:	9d a5 93 98 b1 a7 9a b2 b5 87 74 91 97 86 8f 8e     ..........t.....
    1624:	70 6b 7c 69 58 76 8b 6a 50 5c 63 69 80 7f 6a 74     pk|iXv.jP\ci..jt
    1634:	85 75 71 92 a5 93 87 89 84 8c a3 9c 86 8a 8e 7a     .uq............z
    1644:	73 85 8c 82 7b 73 68 71 86 80 6e 78 87 79 5f 4f     s...{shq..nx.y_O
    1654:	53 76 8c 71 51 5a 67 61 6d 88 85 81 9a 90 6b 86     Sv.qQZgam.....k.
    1664:	bf b7 97 a1 a3 8c 93 a5 98 96 af 9a 66 70 97 88     ............fp..
    1674:	7d 93 86 64 6f 7b 62 69 99 8f 5b 5e 76 6e 7b 98     }..do{bi..[^vn{.
    1684:	86 75 8d 8e 71 83 ab 9c 7e 88 86 72 84 96 7f 78     .u..q...~..r...x
    1694:	8a 77 5e 73 8a 7f 7a 7f 71 6c 83 88 77 7e 8b 7f     .w^s..z.ql..w~..
    16a4:	71 73 66 53 6a 8a 74 54 5e 68 54 5c 80 80 72 85     qsfSj.tT^hT\..r.
    16b4:	8b 6f 73 9c aa 9e a0 a0 92 96 a9 a9 a5 b2 af 8e     .os.............
    16c4:	7e 92 9a 91 94 90 76 6c 76 71 69 7c 88 73 5f 62     ~.....vlvqi|.s_b
    16d4:	69 73 84 84 78 78 7f 79 7b 91 9b 8f 89 87 7c 83     is..xx.y{.....|.
    16e4:	98 95 87 87 84 72 6f 7e 83 7c 75 6b 61 6a 76 71     .....ro~.|ukajvq
    16f4:	71 7b 7b 72 6b 61 52 5d 87 88 62 58 69 65 62 7d     q{{rkaR]..bXieb}
    1704:	8e 85 8c 98 81 76 9e ba ad a3 a6 9e 97 9d a2 a0     .....v..........
    1714:	a8 ad 91 75 7f 94 8b 86 8c 83 75 76 72 69 78 8f     ...u......uvrix.
    1724:	83 67 68 71 73 7d 83 7a 7c 85 7b 71 80 92 89 7f     .ghqs}.z|.{q....
    1734:	80 7b 79 83 83 7b 7e 7d 6e 6a 75 7b 78 76 72 6f     .{y..{~}nju{xvro
    1744:	77 7e 78 77 82 87 84 80 77 63 59 6f 87 7c 6b 69     w~xw....wcYo.|ki
    1754:	66 5f 6b 7d 84 8a 96 8c 76 79 93 a4 a7 a5 9e 96     f_k}....vy......
    1764:	94 96 99 a7 b7 b1 94 82 88 8f 90 93 93 88 78 6f     ..............xo
    1774:	66 66 7b 8c 7b 5f 5b 65 6b 72 7b 7c 7b 77 6f 6a     ff{.{_[ekr{|{woj
    1784:	79 8f 95 89 7e 7d 7f 82 8a 93 91 88 7c 75 78 82     y...~}......|ux.
    1794:	88 85 7e 78 75 73 74 7a 80 84 80 72 64 57 57 73     ..~xustz...rdWWs
    17a4:	8b 7a 61 5e 61 5f 6d 83 87 89 95 8a 72 7e a6 b4     .za^a_m.....r~..
    17b4:	aa a9 a8 9a 97 a2 a1 a1 b1 ab 86 76 86 87 82 8b     ...........v....
    17c4:	8b 79 6e 6e 63 61 7a 85 6d 60 6c 6c 68 75 7f 7f     .ynncaz.m`llhu..
    17d4:	86 87 78 75 89 96 90 8f 94 8b 80 82 86 8a 8f 89     ..xu............
    17e4:	77 72 7b 79 73 7a 80 77 70 70 6c 73 82 84 7b 7a     wr{ysz.wppls..{z
    17f4:	7c 6f 55 54 79 90 7f 65 5c 5f 6a 76 7d 84 97 9d     |oUTy..e\_jv}...
    1804:	7d 65 82 ab af a3 9c 99 9c 9b 8f 8c a5 ba a1 7b     }e.............{
    1814:	7a 8d 8e 87 82 81 88 87 6f 5a 6b 8a 88 6d 67 73     z.......oZk..mgs
    1824:	78 77 74 73 83 91 82 6b 78 93 90 7b 7b 88 8c 88     xwts...kx..{{...
    1834:	7f 78 83 8f 7f 68 72 89 88 76 6e 73 7b 80 7b 75     .x...hr..vns{.{u
    1844:	7e 89 7e 6f 74 85 85 6a 50 60 81 7f 5f 50 67 7e     ~.~ot..jP`.._Pg~
    1854:	72 5e 65 85 a1 9a 79 76 99 b1 a0 8e a0 be bc 9c     r^e...yv........
    1864:	83 8f b0 b8 9c 86 94 a1 89 6a 70 8d 92 80 67 5b     .........jp...g[
    1874:	6a 7e 6d 55 6a 8d 82 62 61 78 8a 8f 83 75 87 9d     j~mUj..bax...u..
    1884:	87 6b 80 9f 99 86 82 81 82 84 77 6c 85 98 79 5b     .k........wl..y[
    1894:	6b 7b 72 72 77 6f 75 80 6e 61 7e 91 73 52 53 6b     k{rrwou.na~.sRSk
    18a4:	80 81 66 56 76 8e 6e 58 7d a8 a6 8d 7e 8d af b8     ..fVv.nX}...~...
    18b4:	95 8a b7 ce a9 81 84 9f b1 a2 7e 76 93 99 6d 50     ..........~v..mP
    18c4:	6c 91 8a 68 5a 6d 84 7c 5d 59 80 a0 8c 67 6c 8f     l..hZm.|]Y...gl.
    18d4:	9a 81 72 8a a4 99 76 63 78 96 8c 6c 6e 88 81 5f     ..r...vcx..ln.._
    18e4:	56 71 88 84 72 65 6c 81 81 6f 7a 95 93 82 82 87     Vq..rel..oz.....
    18f4:	88 8c 78 3b 20 72 c2 72 25 5e ac 82 4b 7a c2 c8     ..x; r.r%^..Kz..
    1904:	96 91 95 8b b0 ce a1 75 a1 b8 72 34 5b 9c 94 6f     .......u..r4[..o
    1914:	63 70 86 86 73 7c a7 c1 ad 88 7e 91 a6 98 78 7a     cp..s|....~...xz
    1924:	93 87 5d 44 51 75 90 7b 59 6a 8c 80 67 79 9e aa     ..]DQu.{Yj..gy..
    1934:	98 79 6f 86 93 7e 70 80 87 79 66 5b 68 84 8c 7a     .yo..~p..yf[h..z
    1944:	72 80 86 83 82 85 8b 84 59 59 59 59 59 59 59 59     r.......YYYYYYYY
    1954:	59 59 59 59 59 59 59 59 59 59 59 59 59 59 59 59     YYYYYYYYYYYYYYYY
    1964:	59 59 59 59 59 59 59 59 59 59 59 59 59 59 59 59     YYYYYYYYYYYYYYYY
    1974:	59 59 59 59 59 59 59 59 59 59 59 59 59 59 59 59     YYYYYYYYYYYYYYYY
    1984:	59 59 59 59 59 59 59 59 59 59 59 59 59 59 59 59     YYYYYYYYYYYYYYYY
    1994:	59 59 59 59 59 59 59 59 59 59 59 59 59 59 59 59     YYYYYYYYYYYYYYYY
    19a4:	59 59 59 59 59 59 59 59 59 59 59 59 59 59 59 59     YYYYYYYYYYYYYYYY
    19b4:	59 59 59 59 59 59 59 59 59 59 59 59 59 59 59 59     YYYYYYYYYYYYYYYY
    19c4:	59 59 59 59 59 59 59 59 59 59 59 59 59 59 59 59     YYYYYYYYYYYYYYYY
    19d4:	59 59 59 59 59 59 59 59 59 59 59 59 59 59 59 59     YYYYYYYYYYYYYYYY
    19e4:	59 59 59 59 59 59 59 59 59 59 59 59 59 59 59 59     YYYYYYYYYYYYYYYY
    19f4:	59 59 59 59 59 59 59 59 59 59 59 59 59 59 59 59     YYYYYYYYYYYYYYYY
    1a04:	59 59 59 59 59 59 59 59 59 59 59 59 59 59 59 59     YYYYYYYYYYYYYYYY
    1a14:	59 59 59 59 59 59 59 59 59 59 59 59 59 59 59 59     YYYYYYYYYYYYYYYY
    1a24:	59 59 59 59 59 59 59 59 59 59 59 59 59 59 59 59     YYYYYYYYYYYYYYYY
    1a34:	59 59 59 59 59 59 59 59 59 59 59 59 59 59 59 59     YYYYYYYYYYYYYYYY
    1a44:	59 59 59 59 59 59 59 59 59 59 59 59 59 59 59 59     YYYYYYYYYYYYYYYY
    1a54:	59 59 59 59 59 59 59 59 59 59 59 59 59 59 59 59     YYYYYYYYYYYYYYYY
    1a64:	59 59 59 59 59 59 59 59 59 59 59 59 59 59 59 59     YYYYYYYYYYYYYYYY
    1a74:	59 59 59 59 59 59 59 59 59 59 59 59 59 59 59 59     YYYYYYYYYYYYYYYY
    1a84:	59 59 59 59 59 59 59 59 59 59 59 59 59 59 59 59     YYYYYYYYYYYYYYYY
    1a94:	59 59 59 59 59 59 59 59 59 59 59 59 59 59 59 59     YYYYYYYYYYYYYYYY
    1aa4:	59 59 59 59 59 59 59 59 59 59 59 59 59 59 59 59     YYYYYYYYYYYYYYYY
    1ab4:	59 59 59 59 59 59 59 59 59 59 59 59 59 59 59 59     YYYYYYYYYYYYYYYY
    1ac4:	59 59 59 59 59 59 59 59 59 59 59 59 59 59 59 59     YYYYYYYYYYYYYYYY
    1ad4:	59 59 59 59 59 59 59 59 59 59 59 59 59 59 59 59     YYYYYYYYYYYYYYYY
    1ae4:	59 59 59 59 59 59 59 59 59 59 59 59 59 59 59 59     YYYYYYYYYYYYYYYY
    1af4:	59 59 59 59 59 59 59 59 59 59 59 59 59 59 59 59     YYYYYYYYYYYYYYYY
    1b04:	59 59 59 59 59 59 59 59 59 59 59 59 59 59 59 59     YYYYYYYYYYYYYYYY
    1b14:	59 59 59 59 59 59 59 59 59 59 59 59 59 59 59 59     YYYYYYYYYYYYYYYY
    1b24:	59 59 59 59 59 59 59 59 59 59 59 59 59 59 59 59     YYYYYYYYYYYYYYYY
    1b34:	59 59 59 59 59 59 59 59 59 59 59 59 59 59 59 59     YYYYYYYYYYYYYYYY
    1b44:	59 59 59 59 59 59 59 59 59 59 59 59 59 59 59 59     YYYYYYYYYYYYYYYY
    1b54:	59 59 59 59 59 59 59 59 59 59 59 59 59 59 59 59     YYYYYYYYYYYYYYYY
    1b64:	59 59 59 59 59 59 59 59 59 59 59 59 59 59 59 59     YYYYYYYYYYYYYYYY
    1b74:	59 59 59 59 59 59 59 59 59 59 59 59 59 59 59 59     YYYYYYYYYYYYYYYY
    1b84:	59 59 59 59 59 59 59 59 59 59 59 59 59 59 59 59     YYYYYYYYYYYYYYYY
    1b94:	59 59 59 59 59 59 59 59 59 59 59 59 59 59 59 59     YYYYYYYYYYYYYYYY
    1ba4:	59 59 59 59 59 59 59 59 59 59 59 59 59 59 59 59     YYYYYYYYYYYYYYYY
    1bb4:	59 59 59 59 59 59 59 59 59 59 59 59 59 59 59 59     YYYYYYYYYYYYYYYY
    1bc4:	59 59 59 59 59 59 59 59 59 59 59 59 59 59 59 59     YYYYYYYYYYYYYYYY
    1bd4:	59 59 59 59 59 59 59 59 59 59 59 59 59 59 59 59     YYYYYYYYYYYYYYYY
    1be4:	59 59 59 59 59 59 59 59 59 59 59 59 59 59 59 59     YYYYYYYYYYYYYYYY
    1bf4:	59 59 59 59 59 59 59 59 59 59 59 59 59 59 59 59     YYYYYYYYYYYYYYYY
    1c04:	59 59 59 59 59 59 59 59 59 59 59 59 59 59 59 59     YYYYYYYYYYYYYYYY
    1c14:	59 59 59 59 59 59 59 59 59 59 59 59 59 59 59 59     YYYYYYYYYYYYYYYY
    1c24:	59 59 59 59 59 59 59 59 59 59 59 59 59 59 59 59     YYYYYYYYYYYYYYYY
    1c34:	59 59 59 59 59 59 59 59 59 59 59 59 59 59 59 59     YYYYYYYYYYYYYYYY
    1c44:	59 59 59 59 59 59 59 59 59 59 59 59 59 59 59 59     YYYYYYYYYYYYYYYY
    1c54:	59 59 59 59 59 59 59 59 59 59 59 59 59 59 59 59     YYYYYYYYYYYYYYYY
    1c64:	59 59 59 59 59 59 59 59 59 59 59 59 59 59 59 59     YYYYYYYYYYYYYYYY
    1c74:	59 59 59 59 59 59 59 59 59 59 59 59 59 59 59 59     YYYYYYYYYYYYYYYY
    1c84:	59 59 59 59 59 59 59 59 59 59 59 59 59 59 59 59     YYYYYYYYYYYYYYYY
    1c94:	59 59 59 59 59 59 59 59 59 59 59 59 59 59 59 59     YYYYYYYYYYYYYYYY
    1ca4:	59 59 59 59 59 59 59 59 59 59 59 59 59 59 59 59     YYYYYYYYYYYYYYYY
    1cb4:	59 59 59 59 59 59 59 59 59 59 59 59 59 59 59 59     YYYYYYYYYYYYYYYY
    1cc4:	59 59 59 59 59 59 59 59 59 59 59 59 59 59 59 59     YYYYYYYYYYYYYYYY
    1cd4:	59 59 59 59 59 59 59 59 59 59 59 59 59 59 59 59     YYYYYYYYYYYYYYYY
    1ce4:	59 59 59 59 59 59 59 59 59 59 59 59 59 59 59 59     YYYYYYYYYYYYYYYY
    1cf4:	59 59 59 59 59 59 59 59 59 59 59 59 59 59 59 59     YYYYYYYYYYYYYYYY
    1d04:	59 59 59 59 59 59 59 59 59 59 59 59 59 59 59 59     YYYYYYYYYYYYYYYY
    1d14:	59 59 59 59 59 59 59 59 59 59 59 59 59 59 59 59     YYYYYYYYYYYYYYYY
    1d24:	59 59 59 59 59 59 59 59 59 59 59 59 59 59 59 59     YYYYYYYYYYYYYYYY
    1d34:	59 59 59 59 59 59 59 59 59 59 59 59 59 59 59 59     YYYYYYYYYYYYYYYY
    1d44:	59 59 59 59 59 59 59 59 59 59 59 59 59 59 59 59     YYYYYYYYYYYYYYYY
    1d54:	59 59 59 59 59 59 59 59 59 59 59 59 59 59 59 59     YYYYYYYYYYYYYYYY
    1d64:	59 59 59 59 59 59 59 59 59 59 59 59 59 59 59 59     YYYYYYYYYYYYYYYY
    1d74:	59 59 59 59 59 59 59 59 59 59 59 59 59 59 59 59     YYYYYYYYYYYYYYYY
    1d84:	59 59 59 59 59 59 59 59 59 59 59 59 59 59 59 59     YYYYYYYYYYYYYYYY
    1d94:	59 59 59 59 59 59 59 59 59 59 59 59 59 59 59 59     YYYYYYYYYYYYYYYY
    1da4:	59 59 59 59 59 59 59 59 59 59 59 59 59 59 59 59     YYYYYYYYYYYYYYYY
    1db4:	59 59 59 59 59 59 59 59 59 59 59 59 59 59 59 59     YYYYYYYYYYYYYYYY
    1dc4:	59 59 59 59 59 59 59 59 59 59 59 59 59 59 59 59     YYYYYYYYYYYYYYYY
    1dd4:	59 59 59 59 59 59 59 59 59 59 59 59 59 59 59 59     YYYYYYYYYYYYYYYY
    1de4:	59 59 59 59 59 59 59 59 59 59 59 59 59 59 59 59     YYYYYYYYYYYYYYYY
    1df4:	59 59 59 59 59 59 59 59 59 59 59 59 59 59 59 59     YYYYYYYYYYYYYYYY
    1e04:	59 59 59 59 59 59 59 59 59 59 59 59 59 59 59 59     YYYYYYYYYYYYYYYY
    1e14:	59 59 59 59 59 59 59 59 59 59 59 59 59 59 59 59     YYYYYYYYYYYYYYYY
    1e24:	59 59 59 59 59 59 59 59 59 59 59 59 59 59 59 59     YYYYYYYYYYYYYYYY
    1e34:	59 59 59 59 59 59 59 59 59 59 59 59 59 59 59 59     YYYYYYYYYYYYYYYY
    1e44:	59 59 59 59 59 59 59 59 59 59 59 59 59 59 59 59     YYYYYYYYYYYYYYYY
    1e54:	59 59 59 59 59 59 59 59 59 59 59 59 59 59 59 59     YYYYYYYYYYYYYYYY
    1e64:	59 59 59 59 59 59 59 59 59 59 59 59 59 59 59 59     YYYYYYYYYYYYYYYY
    1e74:	59 59 59 59 59 59 59 59 59 59 59 59 59 59 59 59     YYYYYYYYYYYYYYYY
    1e84:	59 59 59 59 59 59 59 59 59 59 59 59 59 59 59 59     YYYYYYYYYYYYYYYY
    1e94:	59 59 59 59 59 59 59 59 59 59 59 59 59 59 59 59     YYYYYYYYYYYYYYYY
    1ea4:	59 59 59 59 59 59 59 59 59 59 59 59 59 59 59 59     YYYYYYYYYYYYYYYY
    1eb4:	59 59 59 59 59 59 59 59 59 59 59 59 59 59 59 59     YYYYYYYYYYYYYYYY
    1ec4:	59 59 59 59 59 59 59 59 59 59 59 59 59 59 59 59     YYYYYYYYYYYYYYYY
    1ed4:	59 59 59 59 59 59 59 59 59 59 59 59 59 59 59 59     YYYYYYYYYYYYYYYY
    1ee4:	59 59 59 59 59 59 59 59 59 59 59 59 59 59 59 59     YYYYYYYYYYYYYYYY
    1ef4:	59 59 59 59 59 59 59 59 59 59 59 59 59 59 59 59     YYYYYYYYYYYYYYYY
    1f04:	59 59 59 59 59 59 59 59 59 59 59 59 59 59 59 59     YYYYYYYYYYYYYYYY
    1f14:	59 59 59 59 59 59 59 59 59 59 59 59 59 59 59 59     YYYYYYYYYYYYYYYY
    1f24:	59 59 59 59 59 59 59 59 59 59 59 59 59 59 59 59     YYYYYYYYYYYYYYYY
    1f34:	59 59 59 59 59 59 59 59 59 59 59 59 59 59 59 59     YYYYYYYYYYYYYYYY
    1f44:	59 59 59 59 59 59 59 59 59 59 59 59 59 59 59 59     YYYYYYYYYYYYYYYY
    1f54:	59 59 59 59 59 59 59 59 59 59 59 59 59 59 59 59     YYYYYYYYYYYYYYYY
    1f64:	59 59 59 59 59 59 59 59 59 59 59 59 59 59 59 59     YYYYYYYYYYYYYYYY
    1f74:	59 59 59 59 59 59 59 59 59 59 59 59 59 59 59 59     YYYYYYYYYYYYYYYY
    1f84:	59 59 59 59 59 59 59 59 59 59 59 59 59 59 59 59     YYYYYYYYYYYYYYYY
    1f94:	59 59 59 59 59 59 59 59 59 59 59 59 59 59 59 59     YYYYYYYYYYYYYYYY
    1fa4:	59 59 59 59 59 59 59 59 59 59 59 59 59 59 59 59     YYYYYYYYYYYYYYYY
    1fb4:	59 59 59 59 59 59 59 59 59 59 59 59 59 59 59 59     YYYYYYYYYYYYYYYY
    1fc4:	59 59 59 59 59 59 59 59 59 59 59 59 59 59 59 59     YYYYYYYYYYYYYYYY
    1fd4:	59 59 59 59 59 59 59 59 59 59 59 59 59 59 59 59     YYYYYYYYYYYYYYYY
    1fe4:	59 59 59 59 59 59 59 59 59 59 59 59 59 59 59 59     YYYYYYYYYYYYYYYY
    1ff4:	59 59 59 59 59 59 59 59 59 59 59 59 59 59 59 59     YYYYYYYYYYYYYYYY
    2004:	59 59 59 59 59 59 59 59 59 59 59 59 59 59 59 59     YYYYYYYYYYYYYYYY
    2014:	59 59 59 59 59 59 59 59 59 59 59 59 59 59 59 59     YYYYYYYYYYYYYYYY
    2024:	59 59 59 59 59 59 59 59 59 59 59 59 59 59 59 59     YYYYYYYYYYYYYYYY
    2034:	59 59 59 59 59 59 59 59 59 59 59 59 59 59 59 59     YYYYYYYYYYYYYYYY
    2044:	59 59 59 59 59 59 59 59 59 59 59 59 59 59 59 59     YYYYYYYYYYYYYYYY
    2054:	59 59 59 59 59 59 59 59 59 59 59 59 59 59 59 59     YYYYYYYYYYYYYYYY
    2064:	59 59 59 59 59 59 59 59 59 59 59 59 59 59 59 59     YYYYYYYYYYYYYYYY
    2074:	59 59 59 59 59 59 59 59 59 59 59 59 59 59 59 59     YYYYYYYYYYYYYYYY
    2084:	59 59 59 59 59 59 59 59 59 59 59 59 59 59 59 59     YYYYYYYYYYYYYYYY
    2094:	59 59 59 59 59 59 59 59 59 59 59 59 59 59 59 59     YYYYYYYYYYYYYYYY
    20a4:	59 59 59 59 59 59 59 59 59 59 59 59 59 59 59 59     YYYYYYYYYYYYYYYY
    20b4:	59 59 59 59 59 59 59 59 59 59 59 59 59 59 59 59     YYYYYYYYYYYYYYYY
    20c4:	59 59 59 59 59 59 59 59 59 59 59 59 59 59 59 59     YYYYYYYYYYYYYYYY
    20d4:	59 59 59 59 59 59 59 59 59 59 59 59 59 59 59 59     YYYYYYYYYYYYYYYY
    20e4:	59 59 59 59 59 59 59 59 59 59 59 59 59 59 59 59     YYYYYYYYYYYYYYYY
    20f4:	59 59 59 59 59 59 59 59 59 59 59 59 59 59 59 59     YYYYYYYYYYYYYYYY
    2104:	59 59 59 59 59 59 59 59 59 59 59 59 59 59 59 59     YYYYYYYYYYYYYYYY
    2114:	59 59 59 59 59 59 59 59 59 59 59 59 59 59 59 59     YYYYYYYYYYYYYYYY
    2124:	59 59 59 59 59 59 59 59 59 59 59 59 59 59 59 59     YYYYYYYYYYYYYYYY
    2134:	59 59 59 59 59 59 59 59 59 59 59 59 59 59 59 59     YYYYYYYYYYYYYYYY
    2144:	59 59 59 59 59 59 59 59 59 59 59 59 59 59 59 59     YYYYYYYYYYYYYYYY
    2154:	59 59 59 59 59 59 59 59 59 59 59 59 59 59 59 59     YYYYYYYYYYYYYYYY
    2164:	59 59 59 59 59 59 59 59 59 59 59 59 59 59 59 59     YYYYYYYYYYYYYYYY
    2174:	59 59 59 59 59 59 59 59 59 59 59 59 59 59 59 59     YYYYYYYYYYYYYYYY
    2184:	59 59 59 59 59 59 59 59 59 59 59 59 59 59 59 59     YYYYYYYYYYYYYYYY
    2194:	59 59 59 59 59 59 59 59 59 59 59 59 59 59 59 59     YYYYYYYYYYYYYYYY
    21a4:	59 59 59 59 59 59 59 59 59 59 59 59 59 59 59 59     YYYYYYYYYYYYYYYY
    21b4:	59 59 59 59 59 59 59 59 59 59 59 59 59 59 59 59     YYYYYYYYYYYYYYYY
    21c4:	59 59 59 59 59 59 59 59 59 59 59 59 59 59 59 59     YYYYYYYYYYYYYYYY
    21d4:	59 59 59 59 59 59 59 59 59 59 59 59 59 59 59 59     YYYYYYYYYYYYYYYY
    21e4:	59 59 59 59 59 59 59 59 59 59 59 59 59 59 59 59     YYYYYYYYYYYYYYYY
    21f4:	59 59 59 59 59 59 59 59 59 59 59 59 59 59 59 59     YYYYYYYYYYYYYYYY
    2204:	59 59 59 59 59 59 59 59 59 59 59 59 59 59 59 59     YYYYYYYYYYYYYYYY
    2214:	59 59 59 59 59 59 59 59 59 59 59 59 59 59 59 59     YYYYYYYYYYYYYYYY
    2224:	59 59 59 59 59 59 59 59 59 59 59 59 59 59 59 59     YYYYYYYYYYYYYYYY
    2234:	59 59 59 59 59 59 59 59 59 59 59 59 59 59 59 59     YYYYYYYYYYYYYYYY
    2244:	59 59 59 59 59 59 59 59 59 59 59 59 59 59 59 59     YYYYYYYYYYYYYYYY
    2254:	59 59 59 59 59 59 59 59 59 59 59 59 59 59 59 59     YYYYYYYYYYYYYYYY
    2264:	59 59 59 59 59 59 59 59 59 59 59 59 59 59 59 59     YYYYYYYYYYYYYYYY
    2274:	59 59 59 59 59 59 59 59 59 59 59 59 59 59 59 59     YYYYYYYYYYYYYYYY
    2284:	59 59 59 59 59 59 59 59 59 59 59 59 59 59 59 59     YYYYYYYYYYYYYYYY
    2294:	59 59 59 59 59 59 59 59 59 59 59 59 59 59 59 59     YYYYYYYYYYYYYYYY
    22a4:	59 59 59 59 59 59 59 59 59 59 59 59 59 59 59 59     YYYYYYYYYYYYYYYY
    22b4:	59 59 59 59 59 59 59 59 59 59 59 59 59 59 59 59     YYYYYYYYYYYYYYYY
    22c4:	59 59 59 59 59 59 59 59 59 59 59 59 59 59 59 59     YYYYYYYYYYYYYYYY
    22d4:	59 59 59 59 59 59 59 59 59 59 59 59 59 59 59 59     YYYYYYYYYYYYYYYY
    22e4:	59 59 59 59 59 59 59 59 59 59 59 59 59 59 59 59     YYYYYYYYYYYYYYYY
    22f4:	59 59 59 59 59 59 59 59 59 59 59 59 59 59 59 59     YYYYYYYYYYYYYYYY
    2304:	59 59 59 59 59 59 59 59 59 59 59 59 59 59 59 59     YYYYYYYYYYYYYYYY
    2314:	59 59 59 59 59 59 59 59 59 59 59 59 59 59 59 59     YYYYYYYYYYYYYYYY
    2324:	59 59 59 59 59 59 59 59 59 59 59 59 59 59 59 59     YYYYYYYYYYYYYYYY
    2334:	59 59 59 59 59 59 59 59 59 59 59 59 59 59 59 59     YYYYYYYYYYYYYYYY
    2344:	59 59 59 59 59 59 59 59 59 59 59 59 59 59 59 59     YYYYYYYYYYYYYYYY
    2354:	59 59 59 59 59 59 59 59 59 59 59 59 59 59 59 59     YYYYYYYYYYYYYYYY
    2364:	59 59 59 59 59 59 59 59 59 59 59 59 59 59 59 59     YYYYYYYYYYYYYYYY
    2374:	59 59 59 59 59 59 59 59 59 59 59 59 59 59 59 59     YYYYYYYYYYYYYYYY
    2384:	59 59 59 59 59 59 59 59 59 59 59 59 59 59 59 59     YYYYYYYYYYYYYYYY
    2394:	59 59 59 59 59 59 59 59 59 59 59 59 59 59 59 59     YYYYYYYYYYYYYYYY
    23a4:	59 59 59 59 59 59 59 59 59 59 59 59 59 59 59 59     YYYYYYYYYYYYYYYY
    23b4:	59 59 59 59 59 59 59 59 59 59 59 59 59 59 59 59     YYYYYYYYYYYYYYYY
    23c4:	59 59 59 59 59 59 59 59 59 59 59 59 59 59 59 59     YYYYYYYYYYYYYYYY
    23d4:	59 59 59 59 59 59 59 59 59 59 59 59 59 59 59 59     YYYYYYYYYYYYYYYY
    23e4:	59 59 59 59 59 59 59 59 59 59 59 59 59 59 59 59     YYYYYYYYYYYYYYYY
    23f4:	59 59 59 59 59 59 59 59 59 59 59 59 59 59 59 59     YYYYYYYYYYYYYYYY
    2404:	59 59 59 59 59 59 59 59 59 59 59 59 59 59 59 59     YYYYYYYYYYYYYYYY
    2414:	59 59 59 59 59 59 59 59 59 59 59 59 59 59 59 59     YYYYYYYYYYYYYYYY
    2424:	59 59 59 59 59 59 59 59 59 59 59 59 59 59 59 59     YYYYYYYYYYYYYYYY
    2434:	59 59 59 59 59 59 59 59 59 59 59 59 59 59 59 59     YYYYYYYYYYYYYYYY
    2444:	59 59 59 59 59 59 59 59 59 59 59 59 59 59 59 59     YYYYYYYYYYYYYYYY
    2454:	59 59 59 59 59 59 59 59 59 59 59 59 59 59 59 59     YYYYYYYYYYYYYYYY
    2464:	59 59 59 59 59 59 59 59 59 59 59 59 59 59 59 59     YYYYYYYYYYYYYYYY
    2474:	59 59 59 59 59 59 59 59 59 59 59 59 59 59 59 59     YYYYYYYYYYYYYYYY
    2484:	59 59 59 59 59 59 59 59 59 59 59 59 59 59 59 59     YYYYYYYYYYYYYYYY
    2494:	59 59 59 59 59 59 59 59 59 59 59 59 59 59 59 59     YYYYYYYYYYYYYYYY
    24a4:	59 59 59 59 59 59 59 59 59 59 59 59 59 59 59 59     YYYYYYYYYYYYYYYY
    24b4:	59 59 59 59 59 59 59 59 59 59 59 59 59 59 59 59     YYYYYYYYYYYYYYYY
    24c4:	59 59 59 59 59 59 59 59 59 59 59 59 59 59 59 59     YYYYYYYYYYYYYYYY
    24d4:	59 59 59 59 59 59 59 59 59 59 59 59 59 59 59 59     YYYYYYYYYYYYYYYY
    24e4:	59 59 59 59 59 59 59 59 59 59 59 59 59 59 59 59     YYYYYYYYYYYYYYYY
    24f4:	59 59 59 59 59 59 59 59 59 59 59 59 59 59 59 59     YYYYYYYYYYYYYYYY
    2504:	59 59 59 59 59 59 59 59 59 59 59 59 59 59 59 59     YYYYYYYYYYYYYYYY
    2514:	59 59 59 59 59 59 59 59 59 59 59 59 59 59 59 59     YYYYYYYYYYYYYYYY
    2524:	59 59 59 59 59 59 59 59 59 59 59 59 59 59 59 59     YYYYYYYYYYYYYYYY
    2534:	59 59 59 59 59 59 59 59 59 59 59 59 59 59 59 59     YYYYYYYYYYYYYYYY
    2544:	59 59 59 59 59 59 59 59 59 59 59 59 59 59 59 59     YYYYYYYYYYYYYYYY
    2554:	59 59 59 59 59 59 59 59 59 59 59 59 59 59 59 59     YYYYYYYYYYYYYYYY
    2564:	59 59 59 59 59 59 59 59 59 59 59 59 59 59 59 59     YYYYYYYYYYYYYYYY
    2574:	59 59 59 59 59 59 59 59 59 59 59 59 59 59 59 59     YYYYYYYYYYYYYYYY
    2584:	59 59 59 59 59 59 59 59 59 59 59 59 59 59 59 59     YYYYYYYYYYYYYYYY
    2594:	59 59 59 59 59 59 59 59 59 59 59 59 59 59 59 59     YYYYYYYYYYYYYYYY
    25a4:	59 59 59 59 59 59 59 59 59 59 59 59 59 59 59 59     YYYYYYYYYYYYYYYY
    25b4:	59 59 59 59 59 59 59 59 59 59 59 59 59 59 59 59     YYYYYYYYYYYYYYYY
    25c4:	59 59 59 59 59 59 59 59 59 59 59 59 59 59 59 59     YYYYYYYYYYYYYYYY
    25d4:	59 59 59 59 59 59 59 59 59 59 59 59 59 59 59 59     YYYYYYYYYYYYYYYY
    25e4:	59 59 59 59 59 59 59 59 59 59 59 59 59 59 59 59     YYYYYYYYYYYYYYYY
    25f4:	59 59 59 59 59 59 59 59 59 59 59 59 59 59 59 59     YYYYYYYYYYYYYYYY
    2604:	59 59 59 59 59 59 59 59 59 59 59 59 59 59 59 59     YYYYYYYYYYYYYYYY
    2614:	59 59 59 59 59 59 59 59 59 59 59 59 59 59 59 59     YYYYYYYYYYYYYYYY
    2624:	59 59 59 59 59 59 59 59 59 59 59 59 59 59 59 59     YYYYYYYYYYYYYYYY
    2634:	59 59 59 59 59 59 59 59 59 59 59 59 59 59 59 59     YYYYYYYYYYYYYYYY
    2644:	59 59 59 59 59 59 59 59 59 59 59 59 59 59 59 59     YYYYYYYYYYYYYYYY
    2654:	59 59 59 59 59 59 59 59 59 59 59 59 59 59 59 59     YYYYYYYYYYYYYYYY
    2664:	59 59 59 59 59 59 59 59 59 59 59 59 59 59 59 59     YYYYYYYYYYYYYYYY
    2674:	59 59 59 59 59 59 59 59 59 59 59 59 59 59 59 59     YYYYYYYYYYYYYYYY
    2684:	59 59 59 59 59 59 59 59 59 59 59 59 59 59 59 59     YYYYYYYYYYYYYYYY
    2694:	59 59 59 59 59 59 59 59 59 59 59 59 59 59 59 59     YYYYYYYYYYYYYYYY
    26a4:	59 59 59 59 59 59 59 59 59 59 59 59 59 59 59 59     YYYYYYYYYYYYYYYY
    26b4:	59 59 59 59 59 59 59 59 59 59 59 59 59 59 59 59     YYYYYYYYYYYYYYYY
    26c4:	59 59 59 59 59 59 59 59 59 59 59 59 59 59 59 59     YYYYYYYYYYYYYYYY
    26d4:	59 59 59 59 59 59 59 59 59 59 59 59 59 59 59 59     YYYYYYYYYYYYYYYY
    26e4:	59 59 59 59 59 59 59 59 59 59 59 59 59 59 59 59     YYYYYYYYYYYYYYYY
    26f4:	59 59 59 59 59 59 59 59 59 59 59 59 59 59 59 59     YYYYYYYYYYYYYYYY
    2704:	59 59 59 59 59 59 59 59 59 59 59 59 59 59 59 59     YYYYYYYYYYYYYYYY
    2714:	59 59 59 59 59 59 59 59 59 59 59 59 59 59 59 59     YYYYYYYYYYYYYYYY
    2724:	59 59 59 59 59 59 59 59 59 59 59 59 59 59 59 59     YYYYYYYYYYYYYYYY
    2734:	59 59 59 59 59 59 59 59 59 59 59 59 59 59 59 59     YYYYYYYYYYYYYYYY
    2744:	59 59 59 59 59 59 59 59 59 59 59 59 59 59 59 59     YYYYYYYYYYYYYYYY
    2754:	59 59 59 59 59 59 59 59 59 59 59 59 59 59 59 59     YYYYYYYYYYYYYYYY
    2764:	59 59 59 59 59 59 59 59 59 59 59 59 59 59 59 59     YYYYYYYYYYYYYYYY
    2774:	59 59 59 59 59 59 59 59 59 59 59 59 59 59 59 59     YYYYYYYYYYYYYYYY
    2784:	59 59 59 59 59 59 59 59 59 59 59 59 59 59 59 59     YYYYYYYYYYYYYYYY
    2794:	59 59 59 59 59 59 59 59 59 59 59 59 59 59 59 59     YYYYYYYYYYYYYYYY
    27a4:	59 59 59 59 59 59 59 59 59 59 59 59 59 59 59 59     YYYYYYYYYYYYYYYY
    27b4:	59 59 59 59 59 59 59 59 59 59 59 59 59 59 59 59     YYYYYYYYYYYYYYYY
    27c4:	59 59 59 59 59 59 59 59 59 59 59 59 59 59 59 59     YYYYYYYYYYYYYYYY
    27d4:	59 59 59 59 59 59 59 59 59 59 59 59 59 59 59 59     YYYYYYYYYYYYYYYY
    27e4:	59 59 59 59 59 59 59 59 59 59 59 59 59 59 59 59     YYYYYYYYYYYYYYYY
    27f4:	59 59 59 59 59 59 59 59 59 59 59 59 59 59 59 59     YYYYYYYYYYYYYYYY
    2804:	59 59 59 59 59 59 59 59 59 59 59 59 59 59 59 59     YYYYYYYYYYYYYYYY
    2814:	59 59 59 59 59 59 59 59 59 59 59 59 59 59 59 59     YYYYYYYYYYYYYYYY
    2824:	59 59 59 59 59 59 59 59 59 59 59 59 59 59 59 59     YYYYYYYYYYYYYYYY
    2834:	59 59 59 59 59 59 59 59 59 59 59 59 59 59 59 59     YYYYYYYYYYYYYYYY
    2844:	59 59 59 59 59 59 59 59 59 59 59 59 59 59 59 59     YYYYYYYYYYYYYYYY
    2854:	59 59 59 59 59 59 59 59 59 59 59 59 59 59 59 59     YYYYYYYYYYYYYYYY
    2864:	59 59 59 59 59 59 59 59 59 59 59 59 59 59 59 59     YYYYYYYYYYYYYYYY
    2874:	59 59 59 59 59 59 59 59 59 59 59 59 59 59 59 59     YYYYYYYYYYYYYYYY
    2884:	59 59 59 59 59 59 59 59 59 59 59 59 59 59 59 59     YYYYYYYYYYYYYYYY
    2894:	59 59 59 59 59 59 59 59 59 59 59 59 59 59 59 59     YYYYYYYYYYYYYYYY
    28a4:	59 59 59 59 59 59 59 59 59 59 59 59 59 59 59 59     YYYYYYYYYYYYYYYY
    28b4:	59 59 59 59 59 59 59 59 59 59 59 59 59 59 59 59     YYYYYYYYYYYYYYYY
    28c4:	59 59 59 59 59 59 59 59 59 59 59 59 59 59 59 59     YYYYYYYYYYYYYYYY
    28d4:	59 59 59 59 59 59 59 59 59 59 59 59 59 59 59 59     YYYYYYYYYYYYYYYY
    28e4:	59 59 59 59 59 59 59 59 59 59 59 59 59 59 59 59     YYYYYYYYYYYYYYYY
    28f4:	59 59 59 59 59 59 59 59 59 59 59 59 59 59 59 59     YYYYYYYYYYYYYYYY
    2904:	59 59 59 59 59 59 59 59 59 59 59 59 59 59 59 59     YYYYYYYYYYYYYYYY
    2914:	59 59 59 59 59 59 59 59 59 59 59 59 59 59 59 59     YYYYYYYYYYYYYYYY
    2924:	59 59 59 59 59 59 59 59 59 59 59 59 59 59 59 59     YYYYYYYYYYYYYYYY
    2934:	59 59 59 59 59 59 59 59 59 59 59 59 59 59 59 59     YYYYYYYYYYYYYYYY
    2944:	59 59 59 59 59 59 59 59 59 59 59 59 59 59 59 59     YYYYYYYYYYYYYYYY
    2954:	59 59 59 59 59 59 59 59 59 59 59 59 59 59 59 59     YYYYYYYYYYYYYYYY
    2964:	59 59 59 59 59 59 59 59 59 59 59 59 59 59 59 59     YYYYYYYYYYYYYYYY
    2974:	59 59 59 59 59 59 59 59 59 59 59 59 59 59 59 59     YYYYYYYYYYYYYYYY
    2984:	59 59 59 59 59 59 59 59 59 59 59 59 59 59 59 59     YYYYYYYYYYYYYYYY
    2994:	59 59 59 59 59 59 59 59 59 59 59 59 59 59 59 59     YYYYYYYYYYYYYYYY
    29a4:	59 59 59 59 59 59 59 59 59 59 59 59 59 59 59 59     YYYYYYYYYYYYYYYY
    29b4:	59 59 59 59 59 59 59 59 59 59 59 59 59 59 59 59     YYYYYYYYYYYYYYYY
    29c4:	59 59 59 59 59 59 59 59 59 59 59 59 59 59 59 59     YYYYYYYYYYYYYYYY
    29d4:	59 59 59 59 59 59 59 59 59 59 59 59 59 59 59 59     YYYYYYYYYYYYYYYY
    29e4:	59 59 59 59 59 59 59 59 59 59 59 59 59 59 59 59     YYYYYYYYYYYYYYYY
    29f4:	59 59 59 59 59 59 59 59 59 59 59 59 59 59 59 59     YYYYYYYYYYYYYYYY
    2a04:	59 59 59 59 59 59 59 59 59 59 59 59 59 59 59 59     YYYYYYYYYYYYYYYY
    2a14:	59 59 59 59 59 59 59 59 59 59 59 59 59 59 59 59     YYYYYYYYYYYYYYYY
    2a24:	59 59 59 59 59 59 59 59 59 59 59 59 59 59 59 59     YYYYYYYYYYYYYYYY
    2a34:	59 59 59 59 59 59 59 59 59 59 59 59 59 59 59 59     YYYYYYYYYYYYYYYY
    2a44:	59 59 59 59 59 59 59 59 59 59 59 59 59 59 59 59     YYYYYYYYYYYYYYYY
    2a54:	59 59 59 59 59 59 59 59 59 59 59 59 59 59 59 59     YYYYYYYYYYYYYYYY
    2a64:	59 59 59 59 59 59 59 59 59 59 59 59 59 59 59 59     YYYYYYYYYYYYYYYY
    2a74:	59 59 59 59 59 59 59 59 59 59 59 59 59 59 59 59     YYYYYYYYYYYYYYYY
    2a84:	59 59 59 59 59 59 59 59 59 59 59 59 59 59 59 59     YYYYYYYYYYYYYYYY
    2a94:	59 59 59 59 59 59 59 59 59 59 59 59 59 59 59 59     YYYYYYYYYYYYYYYY
    2aa4:	59 59 59 59 59 59 59 59 59 59 59 59 59 59 59 59     YYYYYYYYYYYYYYYY
    2ab4:	59 59 59 59 59 59 59 59 59 59 59 59 59 59 59 59     YYYYYYYYYYYYYYYY
    2ac4:	59 59 59 59 59 59 59 59 59 59 59 59 59 59 59 59     YYYYYYYYYYYYYYYY
    2ad4:	59 59 59 59 59 59 59 59 59 59 59 59 59 59 59 59     YYYYYYYYYYYYYYYY
    2ae4:	59 59 59 59 59 59 59 59 59 59 59 59 59 59 59 59     YYYYYYYYYYYYYYYY
    2af4:	59 59 59 59 59 59 59 59 59 59 59 59 59 59 59 59     YYYYYYYYYYYYYYYY
    2b04:	59 59 59 59 59 59 59 59 59 59 59 59 59 59 59 59     YYYYYYYYYYYYYYYY
    2b14:	59 59 59 59 59 59 59 59 59 59 59 59 59 59 59 59     YYYYYYYYYYYYYYYY
    2b24:	59 59 59 59 59 59 59 59 59 59 59 59 59 59 59 59     YYYYYYYYYYYYYYYY
    2b34:	59 59 59 59 59 59 59 59 59 59 59 59 59 59 59 59     YYYYYYYYYYYYYYYY
    2b44:	59 59 59 59 59 59 59 59 59 59 59 59 59 59 59 59     YYYYYYYYYYYYYYYY
    2b54:	59 59 59 59 59 59 59 59 59 59 59 59 59 59 59 59     YYYYYYYYYYYYYYYY
    2b64:	59 59 59 59 59 59 59 59 59 59 59 59 59 59 59 59     YYYYYYYYYYYYYYYY
    2b74:	59 59 59 59 59 59 59 59 59 59 59 59 59 59 59 59     YYYYYYYYYYYYYYYY
    2b84:	59 59 59 59 59 59 59 59 59 59 59 59 59 59 59 59     YYYYYYYYYYYYYYYY
    2b94:	59 59 59 59 59 59 59 59 59 59 59 59 59 59 59 59     YYYYYYYYYYYYYYYY
    2ba4:	59 59 59 59 59 59 59 59 59 59 59 59 59 59 59 59     YYYYYYYYYYYYYYYY
    2bb4:	59 59 59 59 59 59 59 59 59 59 59 59 59 59 59 59     YYYYYYYYYYYYYYYY
    2bc4:	59 59 59 59 59 59 59 59 59 59 59 59 59 59 59 59     YYYYYYYYYYYYYYYY
    2bd4:	59 59 59 59 59 59 59 59 59 59 59 59 59 59 59 59     YYYYYYYYYYYYYYYY
    2be4:	59 59 59 59 59 59 59 59 59 59 59 59 59 59 59 59     YYYYYYYYYYYYYYYY
    2bf4:	59 59 59 59 59 59 59 59 59 59 59 59 59 59 59 59     YYYYYYYYYYYYYYYY
    2c04:	59 59 59 59 59 59 59 59 59 59 59 59 59 59 59 59     YYYYYYYYYYYYYYYY
    2c14:	59 59 59 59 59 59 59 59 59 59 59 59 59 59 59 59     YYYYYYYYYYYYYYYY
    2c24:	59 59 59 59 59 59 59 59 59 59 59 59 59 59 59 59     YYYYYYYYYYYYYYYY
    2c34:	59 59 59 59 59 59 59 59 59 59 59 59 59 59 59 59     YYYYYYYYYYYYYYYY
    2c44:	59 59 59 59 59 59 59 59 59 59 59 59 59 59 59 59     YYYYYYYYYYYYYYYY
    2c54:	59 59 59 59 59 59 59 59 59 59 59 59 59 59 59 59     YYYYYYYYYYYYYYYY
    2c64:	59 59 59 59 59 59 59 59 59 59 59 59 59 59 59 59     YYYYYYYYYYYYYYYY
    2c74:	59 59 59 59 59 59 59 59 59 59 59 59 59 59 59 59     YYYYYYYYYYYYYYYY
    2c84:	59 59 59 59 59 59 59 59 59 59 59 59 59 59 59 59     YYYYYYYYYYYYYYYY
    2c94:	59 59 59 59 59 59 59 59 59 59 59 59 59 59 59 59     YYYYYYYYYYYYYYYY
    2ca4:	59 59 59 59 59 59 59 59 59 59 59 59 59 59 59 59     YYYYYYYYYYYYYYYY
    2cb4:	59 59 59 59 59 59 59 59 59 59 59 59 59 59 59 59     YYYYYYYYYYYYYYYY
    2cc4:	59 59 59 59 59 59 59 59 59 59 59 59 59 59 59 59     YYYYYYYYYYYYYYYY
    2cd4:	59 59 59 59 59 59 59 59 59 59 59 59 59 59 59 59     YYYYYYYYYYYYYYYY
    2ce4:	59 59 59 59 59 59 59 59 59 59 59 59 59 59 59 59     YYYYYYYYYYYYYYYY
    2cf4:	59 59 59 59 59 59 59 59 59 59 59 59 59 59 59 59     YYYYYYYYYYYYYYYY
    2d04:	59 59 59 59 59 59 59 59 59 59 59 59 59 59 59 59     YYYYYYYYYYYYYYYY
    2d14:	59 59 59 59 59 59 59 59 59 59 59 59 59 59 59 59     YYYYYYYYYYYYYYYY
    2d24:	59 59 59 59 59 59 59 59 59 59 59 59 59 59 59 59     YYYYYYYYYYYYYYYY
    2d34:	59 59 59 59 59 59 59 59 59 59 59 59 59 59 59 59     YYYYYYYYYYYYYYYY
    2d44:	59 59 59 59 59 59 59 59 59 59 59 59 59 59 59 59     YYYYYYYYYYYYYYYY
    2d54:	59 59 59 59 59 59 59 59 59 59 59 59 59 59 59 59     YYYYYYYYYYYYYYYY
    2d64:	59 59 59 59 59 59 59 59 59 59 59 59 59 59 59 59     YYYYYYYYYYYYYYYY
    2d74:	59 59 59 59 59 59 59 59 59 59 59 59 59 59 59 59     YYYYYYYYYYYYYYYY
    2d84:	59 59 59 59 59 59 59 59 59 59 59 59 59 59 59 59     YYYYYYYYYYYYYYYY
    2d94:	59 59 59 59 59 59 59 59 59 59 59 59 59 59 59 59     YYYYYYYYYYYYYYYY
    2da4:	59 59 59 59 59 59 59 59 59 59 59 59 59 59 59 59     YYYYYYYYYYYYYYYY
    2db4:	59 59 59 59 59 59 59 59 59 59 59 59 59 59 59 59     YYYYYYYYYYYYYYYY
    2dc4:	59 59 59 59 59 59 59 59 59 59 59 59 59 59 59 59     YYYYYYYYYYYYYYYY
    2dd4:	59 59 59 59 59 59 59 59 59 59 59 59 59 59 59 59     YYYYYYYYYYYYYYYY
    2de4:	59 59 59 59 59 59 59 59 59 59 59 59 59 59 59 59     YYYYYYYYYYYYYYYY
    2df4:	59 59 59 59 59 59 59 59 59 59 59 59 59 59 59 59     YYYYYYYYYYYYYYYY
    2e04:	59 59 59 59 59 59 59 59 59 59 59 59 59 59 59 59     YYYYYYYYYYYYYYYY
    2e14:	59 59 59 59 59 59 59 59 59 59 59 59 59 59 59 59     YYYYYYYYYYYYYYYY
    2e24:	59 59 59 59 59 59 59 59 59 59 59 59 59 59 59 59     YYYYYYYYYYYYYYYY
    2e34:	59 59 59 59 59 59 59 59 59 59 59 59 59 59 59 59     YYYYYYYYYYYYYYYY
    2e44:	59 59 59 59 59 59 59 59 59 59 59 59 59 59 59 59     YYYYYYYYYYYYYYYY
    2e54:	59 59 59 59 59 59 59 59 59 59 59 59 59 59 59 59     YYYYYYYYYYYYYYYY
    2e64:	59 59 59 59 59 59 59 59 59 59 59 59 59 59 59 59     YYYYYYYYYYYYYYYY
    2e74:	59 59 59 59 59 59 59 59 59 59 59 59 59 59 59 59     YYYYYYYYYYYYYYYY
    2e84:	59 59 59 59 59 59 59 59 59 59 59 59 59 59 59 59     YYYYYYYYYYYYYYYY
    2e94:	59 59 59 59 59 59 59 59 59 59 59 59 59 59 59 59     YYYYYYYYYYYYYYYY
    2ea4:	59 59 59 59 59 59 59 59 59 59 59 59 59 59 59 59     YYYYYYYYYYYYYYYY
    2eb4:	59 59 59 59 59 59 59 59 59 59 59 59 59 59 59 59     YYYYYYYYYYYYYYYY
    2ec4:	59 59 59 59 59 59 59 59 59 59 59 59 59 59 59 59     YYYYYYYYYYYYYYYY
    2ed4:	59 59 59 59 59 59 59 59 59 59 59 59 59 59 59 59     YYYYYYYYYYYYYYYY
    2ee4:	59 59 59 59 59 59 59 59 59 59 59 59 59 59 59 59     YYYYYYYYYYYYYYYY
    2ef4:	59 59 59 59 59 59 59 59 59 59 59 59 59 59 59 59     YYYYYYYYYYYYYYYY
    2f04:	59 59 59 59 59 59 59 59 59 59 59 59 59 59 59 59     YYYYYYYYYYYYYYYY
    2f14:	59 59 59 59 59 59 59 59 59 59 59 59 59 59 59 59     YYYYYYYYYYYYYYYY
    2f24:	59 59 59 59 59 59 59 59 59 59 59 59 59 59 59 59     YYYYYYYYYYYYYYYY
    2f34:	59 59 59 59 59 59 59 59 59 59 59 59 59 59 59 59     YYYYYYYYYYYYYYYY
    2f44:	59 59 59 59 59 59 59 59 59 59 59 59 59 59 59 59     YYYYYYYYYYYYYYYY
    2f54:	59 59 59 59 59 59 59 59 59 59 59 59 59 59 59 59     YYYYYYYYYYYYYYYY
    2f64:	59 59 59 59 59 59 59 59 59 59 59 59 59 59 59 59     YYYYYYYYYYYYYYYY
    2f74:	59 59 59 59 59 59 59 59 59 59 59 59 59 59 59 59     YYYYYYYYYYYYYYYY
    2f84:	59 59 59 59 59 59 59 59 59 59 59 59 59 59 59 59     YYYYYYYYYYYYYYYY
    2f94:	59 59 59 59 59 59 59 59 59 59 59 59 59 59 59 59     YYYYYYYYYYYYYYYY
    2fa4:	59 59 59 59 59 59 59 59 59 59 59 59 59 59 59 59     YYYYYYYYYYYYYYYY
    2fb4:	59 59 59 59 59 59 59 59 59 59 59 59 59 59 59 59     YYYYYYYYYYYYYYYY
    2fc4:	59 59 59 59 59 59 59 59 59 59 59 59 59 59 59 59     YYYYYYYYYYYYYYYY
    2fd4:	59 59 59 59 59 59 59 59 59 59 59 59 59 59 59 59     YYYYYYYYYYYYYYYY
    2fe4:	59 59 59 59 59 59 59 59 59 59 59 59 59 59 59 59     YYYYYYYYYYYYYYYY
    2ff4:	59 59 59 59 59 59 59 59 59 59 59 59 59 59 59 59     YYYYYYYYYYYYYYYY
    3004:	59 59 59 59 59 59 59 59 59 59 59 59 59 59 59 59     YYYYYYYYYYYYYYYY
    3014:	59 59 59 59 59 59 59 59 59 59 59 59 59 59 59 59     YYYYYYYYYYYYYYYY
    3024:	59 59 59 59 59 59 59 59 59 59 59 59 59 59 59 59     YYYYYYYYYYYYYYYY
    3034:	59 59 59 59 59 59 59 59 59 59 59 59 59 59 59 59     YYYYYYYYYYYYYYYY
    3044:	59 59 59 59 59 59 59 59 59 59 59 59 59 59 59 59     YYYYYYYYYYYYYYYY
    3054:	59 59 59 59 59 59 59 59 59 59 59 59 59 59 59 59     YYYYYYYYYYYYYYYY
    3064:	59 59 59 59 59 59 59 59 59 59 59 59 59 59 59 59     YYYYYYYYYYYYYYYY
    3074:	59 59 59 59 59 59 59 59 59 59 59 59 59 59 59 59     YYYYYYYYYYYYYYYY
    3084:	59 59 59 59 59 59 59 59 59 59 59 59 59 59 59 59     YYYYYYYYYYYYYYYY
    3094:	59 59 59 59 59 59 59 59 59 59 59 59 59 59 59 59     YYYYYYYYYYYYYYYY
    30a4:	59 59 59 59 59 59 59 59 59 59 59 59 59 59 59 59     YYYYYYYYYYYYYYYY
    30b4:	59 59 59 59 59 59 59 59 59 59 59 59 59 59 59 59     YYYYYYYYYYYYYYYY
    30c4:	59 59 59 59 59 59 59 59 59 59 59 59 59 59 59 59     YYYYYYYYYYYYYYYY
    30d4:	59 59 59 59 59 59 59 59 59 59 59 59 59 59 59 59     YYYYYYYYYYYYYYYY
    30e4:	59 59 59 59 59 59 59 59 59 59 59 59 59 59 59 59     YYYYYYYYYYYYYYYY
    30f4:	59 59 59 59 59 59 59 59 59 59 59 59 59 59 59 59     YYYYYYYYYYYYYYYY
    3104:	59 59 59 59 59 59 59 59 59 59 59 59 59 59 59 59     YYYYYYYYYYYYYYYY
    3114:	59 59 59 59 59 59 59 59 59 59 59 59 59 59 59 59     YYYYYYYYYYYYYYYY
    3124:	59 59 59 59 59 59 59 59 59 59 59 59 59 59 59 59     YYYYYYYYYYYYYYYY
    3134:	59 59 59 59 59 59 59 59 59 59 59 59 59 59 59 59     YYYYYYYYYYYYYYYY
    3144:	59 59 59 59 59 59 59 59 59 59 59 59 59 59 59 59     YYYYYYYYYYYYYYYY
    3154:	59 59 59 59 59 59 59 59 59 59 59 59 59 59 59 59     YYYYYYYYYYYYYYYY
    3164:	59 59 59 59 59 59 59 59 59 59 59 59 59 59 59 59     YYYYYYYYYYYYYYYY
    3174:	59 59 59 59 59 59 59 59 59 59 59 59 59 59 59 59     YYYYYYYYYYYYYYYY
    3184:	59 59 59 59 59 59 59 59 59 59 59 59 59 59 59 59     YYYYYYYYYYYYYYYY
    3194:	59 59 59 59 59 59 59 59 59 59 59 59 59 59 59 59     YYYYYYYYYYYYYYYY
    31a4:	59 59 59 59 59 59 59 59 59 59 59 59 59 59 59 59     YYYYYYYYYYYYYYYY
    31b4:	59 59 59 59 59 59 59 59 59 59 59 59 59 59 59 59     YYYYYYYYYYYYYYYY
    31c4:	59 59 59 59 59 59 59 59 59 59 59 59 59 59 59 59     YYYYYYYYYYYYYYYY
    31d4:	59 59 59 59 59 59 59 59 59 59 59 59 59 59 59 59     YYYYYYYYYYYYYYYY
    31e4:	59 59 59 59 59 59 59 59 59 59 59 59 59 59 59 59     YYYYYYYYYYYYYYYY
    31f4:	59 59 59 59 59 59 59 59 59 59 59 59 59 59 59 59     YYYYYYYYYYYYYYYY
    3204:	59 59 59 59 59 59 59 59 59 59 59 59 59 59 59 59     YYYYYYYYYYYYYYYY
    3214:	59 59 59 59 59 59 59 59 59 59 59 59 59 59 59 59     YYYYYYYYYYYYYYYY
    3224:	59 59 59 59 59 59 59 59 59 59 59 59 59 59 59 59     YYYYYYYYYYYYYYYY
    3234:	59 59 59 59 59 59 59 59 59 59 59 59 59 59 59 59     YYYYYYYYYYYYYYYY
    3244:	59 59 59 59 59 59 59 59 59 59 59 59 59 59 59 59     YYYYYYYYYYYYYYYY
    3254:	59 59 59 59 59 59 59 59 59 59 59 59 59 59 59 59     YYYYYYYYYYYYYYYY
    3264:	59 59 59 59 59 59 59 59 59 59 59 59 59 59 59 59     YYYYYYYYYYYYYYYY
    3274:	59 59 59 59 59 59 59 59 59 59 59 59 59 59 59 59     YYYYYYYYYYYYYYYY
    3284:	59 59 59 59 59 59 59 59 59 59 59 59 59 59 59 59     YYYYYYYYYYYYYYYY
    3294:	59 59 59 59 59 59 59 59 59 59 59 59 59 59 59 59     YYYYYYYYYYYYYYYY
    32a4:	59 59 59 59 59 59 59 59 59 59 59 59 59 59 59 59     YYYYYYYYYYYYYYYY
    32b4:	59 59 59 59 59 59 59 59 59 59 59 59 59 59 59 59     YYYYYYYYYYYYYYYY
    32c4:	59 59 59 59 59 59 59 59 59 59 59 59 59 59 59 59     YYYYYYYYYYYYYYYY
    32d4:	59 59 59 59 59 59 59 59 59 59 59 59 59 59 59 59     YYYYYYYYYYYYYYYY
    32e4:	59 59 59 59 59 59 59 59 59 59 59 59 59 59 59 59     YYYYYYYYYYYYYYYY
    32f4:	59 59 59 59 59 59 59 59 59 59 59 59 59 59 59 59     YYYYYYYYYYYYYYYY
    3304:	59 59 59 59 59 59 59 59 59 59 59 59 59 59 59 59     YYYYYYYYYYYYYYYY
    3314:	59 59 59 59 59 59 59 59 59 59 59 59 59 59 59 59     YYYYYYYYYYYYYYYY
    3324:	59 59 59 59 59 59 59 59 59 59 59 59 59 59 59 59     YYYYYYYYYYYYYYYY
    3334:	59 59 59 59 59 59 59 59 59 59 59 59 59 59 59 59     YYYYYYYYYYYYYYYY
    3344:	59 59 59 59 59 59 59 59 59 59 59 59 59 59 59 59     YYYYYYYYYYYYYYYY
    3354:	59 59 59 59 59 59 59 59 59 59 59 59 59 59 59 59     YYYYYYYYYYYYYYYY
    3364:	59 59 59 59 59 59 59 59 59 59 59 59 59 59 59 59     YYYYYYYYYYYYYYYY
    3374:	59 59 59 59 59 59 59 59 59 59 59 59 59 59 59 59     YYYYYYYYYYYYYYYY
    3384:	59 59 59 59 59 59 59 59 59 59 59 59 59 59 59 59     YYYYYYYYYYYYYYYY
    3394:	59 59 59 59 59 59 59 59 59 59 59 59 59 59 59 59     YYYYYYYYYYYYYYYY
    33a4:	59 59 59 59 59 59 59 59 59 59 59 59 59 59 59 59     YYYYYYYYYYYYYYYY
    33b4:	59 59 59 59 59 59 59 59 59 59 59 59 59 59 59 59     YYYYYYYYYYYYYYYY
    33c4:	59 59 59 59 59 59 59 59 59 59 59 59 59 59 59 59     YYYYYYYYYYYYYYYY
    33d4:	59 59 59 59 59 59 59 59 59 59 59 59 59 59 59 59     YYYYYYYYYYYYYYYY
    33e4:	59 59 59 59 59 59 59 59 59 59 59 59 59 59 59 59     YYYYYYYYYYYYYYYY
    33f4:	59 59 59 59 59 59 59 59 59 59 59 59 59 59 59 59     YYYYYYYYYYYYYYYY
    3404:	59 59 59 59 59 59 59 59 59 59 59 59 59 59 59 59     YYYYYYYYYYYYYYYY
    3414:	59 59 59 59 59 59 59 59 59 59 59 59 59 59 59 59     YYYYYYYYYYYYYYYY
    3424:	59 59 59 59 59 59 59 59 59 59 59 59 59 59 59 59     YYYYYYYYYYYYYYYY
    3434:	59 59 59 59 59 59 59 59 59 59 59 59 59 59 59 59     YYYYYYYYYYYYYYYY
    3444:	59 59 59 59 59 59 59 59 59 59 59 59 59 59 59 59     YYYYYYYYYYYYYYYY
    3454:	59 59 59 59 59 59 59 59 59 59 59 59 59 59 59 59     YYYYYYYYYYYYYYYY
    3464:	59 59 59 59 59 59 59 59 59 59 59 59 59 59 59 59     YYYYYYYYYYYYYYYY
    3474:	59 59 59 59 59 59 59 59 59 59 59 59 59 59 59 59     YYYYYYYYYYYYYYYY
    3484:	59 59 59 59 59 59 59 59 59 59 59 59 59 59 59 59     YYYYYYYYYYYYYYYY
    3494:	59 59 59 59 59 59 59 59 59 59 59 59 59 59 59 59     YYYYYYYYYYYYYYYY
    34a4:	59 59 59 59 59 59 59 59 59 59 59 59 59 59 59 59     YYYYYYYYYYYYYYYY
    34b4:	59 59 59 59 59 59 59 59 59 59 59 59 59 59 59 59     YYYYYYYYYYYYYYYY
    34c4:	59 59 59 59 59 59 59 59 59 59 59 59 59 59 59 59     YYYYYYYYYYYYYYYY
    34d4:	59 59 59 59 59 59 59 59 59 59 59 59 59 59 59 59     YYYYYYYYYYYYYYYY
    34e4:	59 59 59 59 59 59 59 59 59 59 59 59 59 59 59 59     YYYYYYYYYYYYYYYY
    34f4:	59 59 59 59 59 59 59 59 59 59 59 59 59 59 59 59     YYYYYYYYYYYYYYYY
    3504:	59 59 59 59 59 59 59 59 59 59 59 59 59 59 59 59     YYYYYYYYYYYYYYYY
    3514:	59 59 59 59 59 59 59 59 59 59 59 59 59 59 59 59     YYYYYYYYYYYYYYYY
    3524:	59 59 59 59 59 59 59 59 59 59 59 59 59 59 59 59     YYYYYYYYYYYYYYYY
    3534:	59 59 59 59 59 59 59 59 59 59 59 59 59 59 59 59     YYYYYYYYYYYYYYYY
    3544:	59 59 59 59 59 59 59 59 59 59 59 59 59 59 59 59     YYYYYYYYYYYYYYYY
    3554:	59 59 59 59 59 59 59 59 59 59 59 59 59 59 59 59     YYYYYYYYYYYYYYYY
    3564:	59 59 59 59 59 59 59 59 59 59 59 59 59 59 59 59     YYYYYYYYYYYYYYYY
    3574:	59 59 59 59 59 59 59 59 59 59 59 59 59 59 59 59     YYYYYYYYYYYYYYYY
    3584:	59 59 59 59 59 59 59 59 59 59 59 59 59 59 59 59     YYYYYYYYYYYYYYYY
    3594:	59 59 59 59 59 59 59 59 59 59 59 59 59 59 59 59     YYYYYYYYYYYYYYYY
    35a4:	59 59 59 59 59 59 59 59 59 59 59 59 59 59 59 59     YYYYYYYYYYYYYYYY
    35b4:	59 59 59 59 59 59 59 59 59 59 59 59 59 59 59 59     YYYYYYYYYYYYYYYY
    35c4:	59 59 59 59 59 59 59 59 59 59 59 59 59 59 59 59     YYYYYYYYYYYYYYYY
    35d4:	59 59 59 59 59 59 59 59 59 59 59 59 59 59 59 59     YYYYYYYYYYYYYYYY
    35e4:	59 59 59 59 59 59 59 59 59 59 59 59 59 59 59 59     YYYYYYYYYYYYYYYY
    35f4:	59 59 59 59 59 59 59 59 59 59 59 59 59 59 59 59     YYYYYYYYYYYYYYYY
    3604:	59 59 59 59 59 59 59 59 59 59 59 59 59 59 59 59     YYYYYYYYYYYYYYYY
    3614:	59 59 59 59 59 59 59 59 59 59 59 59 59 59 59 59     YYYYYYYYYYYYYYYY
    3624:	59 59 59 59 59 59 59 59 59 59 59 59 59 59 59 59     YYYYYYYYYYYYYYYY
    3634:	59 59 59 59 59 59 59 59 59 59 59 59 59 59 59 59     YYYYYYYYYYYYYYYY
    3644:	59 59 59 59 59 59 59 59 59 59 59 59 59 59 59 59     YYYYYYYYYYYYYYYY
    3654:	59 59 59 59 59 59 59 59 59 59 59 59 59 59 59 59     YYYYYYYYYYYYYYYY
    3664:	59 59 59 59 59 59 59 59 59 59 59 59 59 59 59 59     YYYYYYYYYYYYYYYY
    3674:	59 59 59 59 59 59 59 59 59 59 59 59 59 59 59 59     YYYYYYYYYYYYYYYY
    3684:	59 59 59 59 59 59 59 59 59 59 59 59 59 59 59 59     YYYYYYYYYYYYYYYY
    3694:	59 59 59 59 59 59 59 59 59 59 59 59 59 59 59 59     YYYYYYYYYYYYYYYY
    36a4:	59 59 59 59 59 59 59 59 59 59 59 59 59 59 59 59     YYYYYYYYYYYYYYYY
    36b4:	59 59 59 59 59 59 59 59 59 59 59 59 59 59 59 59     YYYYYYYYYYYYYYYY
    36c4:	59 59 59 59 59 59 59 59 59 59 59 59 59 59 59 59     YYYYYYYYYYYYYYYY
    36d4:	59 59 59 59 59 59 59 59 59 59 59 59 59 59 59 59     YYYYYYYYYYYYYYYY
    36e4:	59 59 59 59 59 59 59 59 59 59 59 59 59 59 59 59     YYYYYYYYYYYYYYYY
    36f4:	59 59 59 59 59 59 59 59 59 59 59 59 59 59 59 59     YYYYYYYYYYYYYYYY
    3704:	59 59 59 59 59 59 59 59 59 59 59 59 59 59 59 59     YYYYYYYYYYYYYYYY
    3714:	59 59 59 59 59 59 59 59 59 59 59 59 59 59 59 59     YYYYYYYYYYYYYYYY
    3724:	59 59 59 59 59 59 59 59 59 59 59 59 59 59 59 59     YYYYYYYYYYYYYYYY
    3734:	59 59 59 59 59 59 59 59 59 59 59 59 59 59 59 59     YYYYYYYYYYYYYYYY
    3744:	59 59 59 59 59 59 59 59 59 59 59 59 59 59 59 59     YYYYYYYYYYYYYYYY
    3754:	59 59 59 59 59 59 59 59 59 59 59 59 59 59 59 59     YYYYYYYYYYYYYYYY
    3764:	59 59 59 59 59 59 59 59 59 59 59 59 59 59 59 59     YYYYYYYYYYYYYYYY
    3774:	59 59 59 59 59 59 59 59 59 59 59 59 59 59 59 59     YYYYYYYYYYYYYYYY
    3784:	59 59 59 59 59 59 59 59 59 59 59 59 59 59 59 59     YYYYYYYYYYYYYYYY
    3794:	59 59 59 59 59 59 59 59 59 59 59 59 59 59 59 59     YYYYYYYYYYYYYYYY
    37a4:	59 59 59 59 59 59 59 59 59 59 59 59 59 59 59 59     YYYYYYYYYYYYYYYY
    37b4:	59 59 59 59 59 59 59 59 59 59 59 59 59 59 59 59     YYYYYYYYYYYYYYYY
    37c4:	59 59 59 59 59 59 59 59 59 59 59 59 59 59 59 59     YYYYYYYYYYYYYYYY
    37d4:	59 59 59 59 59 59 59 59 59 59 59 59 59 59 59 59     YYYYYYYYYYYYYYYY
    37e4:	59 59 59 59 59 59 59 59 59 59 59 59 59 59 59 59     YYYYYYYYYYYYYYYY
    37f4:	59 59 59 59 59 59 59 59 59 59 59 59 59 59 59 59     YYYYYYYYYYYYYYYY
    3804:	59 59 59 59 59 59 59 59 59 59 59 59 59 59 59 59     YYYYYYYYYYYYYYYY
    3814:	59 59 59 59 59 59 59 59 59 59 59 59 59 59 59 59     YYYYYYYYYYYYYYYY
    3824:	59 59 59 59 59 59 59 59 59 59 59 59 59 59 59 59     YYYYYYYYYYYYYYYY
    3834:	59 59 59 59 59 59 59 59 59 59 59 59 59 59 59 59     YYYYYYYYYYYYYYYY
    3844:	59 59 59 59 59 59 59 59 59 59 59 59 59 59 59 59     YYYYYYYYYYYYYYYY
    3854:	59 59 59 59 59 59 59 59 59 59 59 59 59 59 59 59     YYYYYYYYYYYYYYYY
    3864:	59 59 59 59 59 59 59 59 59 59 59 59 59 59 59 59     YYYYYYYYYYYYYYYY
    3874:	59 59 59 59 59 59 59 59 59 59 59 59 59 59 59 59     YYYYYYYYYYYYYYYY
    3884:	59 59 59 59 59 59 59 59 59 59 59 59 59 59 59 59     YYYYYYYYYYYYYYYY
    3894:	59 59 59 59 59 59 59 59 59 59 59 59 59 59 59 59     YYYYYYYYYYYYYYYY
    38a4:	59 59 59 59 59 59 59 59 59 59 59 59 59 59 59 59     YYYYYYYYYYYYYYYY
    38b4:	59 59 59 59 59 59 59 59 59 59 59 59 59 59 59 59     YYYYYYYYYYYYYYYY
    38c4:	59 59 59 59 59 59 59 59 59 59 59 59 59 59 59 59     YYYYYYYYYYYYYYYY
    38d4:	59 59 59 59 59 59 59 59 59 59 59 59 59 59 59 59     YYYYYYYYYYYYYYYY
    38e4:	59 59 59 59 59 59 59 59 59 59 59 59 59 59 59 59     YYYYYYYYYYYYYYYY
    38f4:	59 59 59 59 59 59 59 59 59 59 59 59 59 59 59 59     YYYYYYYYYYYYYYYY
    3904:	59 59 59 59 59 59 59 59 59 59 59 59 59 59 59 59     YYYYYYYYYYYYYYYY
    3914:	59 59 59 59 59 59 59 59 59 59 59 59 59 59 59 59     YYYYYYYYYYYYYYYY
    3924:	59 59 59 59 59 59 59 59 59 59 59 59 59 59 59 59     YYYYYYYYYYYYYYYY
    3934:	59 59 59 59 59 59 59 59 59 59 59 59 59 59 59 59     YYYYYYYYYYYYYYYY
    3944:	59 59 59 59 59 59 59 59 59 59 59 59 59 59 59 59     YYYYYYYYYYYYYYYY
    3954:	59 59 59 59 59 59 59 59 59 59 59 59 59 59 59 59     YYYYYYYYYYYYYYYY
    3964:	59 59 59 59 59 59 59 59 59 59 59 59 59 59 59 59     YYYYYYYYYYYYYYYY
    3974:	59 59 59 59 59 59 59 59 59 59 59 59 59 59 59 59     YYYYYYYYYYYYYYYY
    3984:	59 59 59 59 59 59 59 59 59 59 59 59 59 59 59 59     YYYYYYYYYYYYYYYY
    3994:	59 59 59 59 59 59 59 59 59 59 59 59 59 59 59 59     YYYYYYYYYYYYYYYY
    39a4:	59 59 59 59 59 59 59 59 59 59 59 59 59 59 59 59     YYYYYYYYYYYYYYYY
    39b4:	59 59 59 59 59 59 59 59 59 59 59 59 59 59 59 59     YYYYYYYYYYYYYYYY
    39c4:	59 59 59 59 59 59 59 59 59 59 59 59 59 59 59 59     YYYYYYYYYYYYYYYY
    39d4:	59 59 59 59 59 59 59 59 59 59 59 59 59 59 59 59     YYYYYYYYYYYYYYYY
    39e4:	59 59 59 59 59 59 59 59 59 59 59 59 59 59 59 59     YYYYYYYYYYYYYYYY
    39f4:	59 59 59 59 59 59 59 59 59 59 59 59 59 59 59 59     YYYYYYYYYYYYYYYY
    3a04:	59 59 59 59 59 59 59 59 59 59 59 59 59 59 59 59     YYYYYYYYYYYYYYYY
    3a14:	59 59 59 59 59 59 59 59 59 59 59 59 59 59 59 59     YYYYYYYYYYYYYYYY
    3a24:	59 59 59 59 59 59 59 59 59 59 59 59 59 59 59 59     YYYYYYYYYYYYYYYY
    3a34:	59 59 59 59 59 59 59 59 59 59 59 59 59 59 59 59     YYYYYYYYYYYYYYYY
    3a44:	59 59 59 59 59 59 59 59 59 59 59 59 59 59 59 59     YYYYYYYYYYYYYYYY
    3a54:	59 59 59 59 59 59 59 59 59 59 59 59 59 59 59 59     YYYYYYYYYYYYYYYY
    3a64:	59 59 59 59 59 59 59 59 59 59 59 59 59 59 59 59     YYYYYYYYYYYYYYYY
    3a74:	59 59 59 59 59 59 59 59 59 59 59 59 59 59 59 59     YYYYYYYYYYYYYYYY
    3a84:	59 59 59 59 59 59 59 59 59 59 59 59 59 59 59 59     YYYYYYYYYYYYYYYY
    3a94:	59 59 59 59 59 59 59 59 59 59 59 59 59 59 59 59     YYYYYYYYYYYYYYYY
    3aa4:	59 59 59 59 59 59 59 59 59 59 59 59 59 59 59 59     YYYYYYYYYYYYYYYY
    3ab4:	59 59 59 59 59 59 59 59 59 59 59 59 59 59 59 59     YYYYYYYYYYYYYYYY
    3ac4:	59 59 59 59 59 59 59 59 59 59 59 59 59 59 59 59     YYYYYYYYYYYYYYYY
    3ad4:	59 59 59 59 59 59 59 59 59 59 59 59 59 59 59 59     YYYYYYYYYYYYYYYY
    3ae4:	59 59 59 59 59 59 59 59 59 59 59 59 59 59 59 59     YYYYYYYYYYYYYYYY
    3af4:	59 59 59 59 59 59 59 59 59 59 59 59 59 59 59 59     YYYYYYYYYYYYYYYY
    3b04:	59 59 59 59 59 59 59 59 59 59 59 59 59 59 59 59     YYYYYYYYYYYYYYYY
    3b14:	59 59 59 59 59 59 59 59 59 59 59 59 59 59 59 59     YYYYYYYYYYYYYYYY
    3b24:	59 59 59 59 59 59 59 59 59 59 59 59 59 59 59 59     YYYYYYYYYYYYYYYY
    3b34:	59 59 59 59 59 59 59 59 59 59 59 59 59 59 59 59     YYYYYYYYYYYYYYYY
    3b44:	59 59 59 59 59 59 59 59 59 59 59 59 59 59 59 59     YYYYYYYYYYYYYYYY
    3b54:	59 59 59 59 59 59 59 59 59 59 59 59 59 59 59 59     YYYYYYYYYYYYYYYY
    3b64:	59 59 59 59 59 59 59 59 59 59 59 59 59 59 59 59     YYYYYYYYYYYYYYYY
    3b74:	59 59 59 59 59 59 59 59 59 59 59 59 59 59 59 59     YYYYYYYYYYYYYYYY
    3b84:	59 59 59 59 59 59 59 59 59 59 59 59 59 59 59 59     YYYYYYYYYYYYYYYY
    3b94:	59 59 59 59 59 59 59 59 59 59 59 59 59 59 59 59     YYYYYYYYYYYYYYYY
    3ba4:	59 59 59 59 59 59 59 59 59 59 59 59 59 59 59 59     YYYYYYYYYYYYYYYY
    3bb4:	59 59 59 59 59 59 59 59 59 59 59 59 59 59 59 59     YYYYYYYYYYYYYYYY
    3bc4:	59 59 59 59 59 59 59 59 59 59 59 59 59 59 59 59     YYYYYYYYYYYYYYYY
    3bd4:	59 59 59 59 59 59 59 59 59 59 59 59 59 59 59 59     YYYYYYYYYYYYYYYY
    3be4:	59 59 59 59 59 59 59 59 59 59 59 59 59 59 59 59     YYYYYYYYYYYYYYYY
    3bf4:	59 59 59 59 59 59 59 59 59 59 59 59 59 59 59 59     YYYYYYYYYYYYYYYY
    3c04:	59 59 59 59 59 59 59 59 59 59 59 59 59 59 59 59     YYYYYYYYYYYYYYYY
    3c14:	59 59 59 59 59 59 59 59 59 59 59 59 59 59 59 59     YYYYYYYYYYYYYYYY
    3c24:	59 59 59 59 59 59 59 59 59 59 59 59 59 59 59 59     YYYYYYYYYYYYYYYY
    3c34:	59 59 59 59 59 59 59 59 59 59 59 59 59 59 59 59     YYYYYYYYYYYYYYYY
    3c44:	59 59 59 59 59 59 59 59 59 59 59 59 59 59 59 59     YYYYYYYYYYYYYYYY
    3c54:	59 59 59 59 59 59 59 59 59 59 59 59 59 59 59 59     YYYYYYYYYYYYYYYY
    3c64:	59 59 59 59 59 59 59 59 59 59 59 59 59 59 59 59     YYYYYYYYYYYYYYYY
    3c74:	59 59 59 59 59 59 59 59 59 59 59 59 59 59 59 59     YYYYYYYYYYYYYYYY
    3c84:	59 59 59 59 59 59 59 59 59 59 59 59 59 59 59 59     YYYYYYYYYYYYYYYY
    3c94:	59 59 59 59 59 59 59 59 59 59 59 59 59 59 59 59     YYYYYYYYYYYYYYYY
    3ca4:	59 59 59 59 59 59 59 59 59 59 59 59 59 59 59 59     YYYYYYYYYYYYYYYY
    3cb4:	59 59 59 59 59 59 59 59 59 59 59 59 59 59 59 59     YYYYYYYYYYYYYYYY
    3cc4:	59 59 59 59 59 59 59 59 59 59 59 59 59 59 59 59     YYYYYYYYYYYYYYYY
    3cd4:	59 59 59 59 59 59 59 59 59 59 59 59 59 59 59 59     YYYYYYYYYYYYYYYY
    3ce4:	59 59 59 59 59 59 59 59 59 59 59 59 59 59 59 59     YYYYYYYYYYYYYYYY
    3cf4:	59 59 59 59 59 59 59 59 59 59 59 59 59 59 59 59     YYYYYYYYYYYYYYYY
    3d04:	59 59 59 59 59 59 59 59 59 59 59 59 59 59 59 59     YYYYYYYYYYYYYYYY
    3d14:	59 59 59 59 59 59 59 59 59 59 59 59 59 59 59 59     YYYYYYYYYYYYYYYY
    3d24:	59 59 59 59 59 59 59 59 59 59 59 59 59 59 59 59     YYYYYYYYYYYYYYYY
    3d34:	59 59 59 59 59 59 59 59 59 59 59 59 59 59 59 59     YYYYYYYYYYYYYYYY
    3d44:	59 59 59 59 59 59 59 59 59 59 59 59 59 59 59 59     YYYYYYYYYYYYYYYY
    3d54:	59 59 59 59 59 59 59 59 59 59 59 59 59 59 59 59     YYYYYYYYYYYYYYYY
    3d64:	59 59 59 59 59 59 59 59 59 59 59 59 59 59 59 59     YYYYYYYYYYYYYYYY
    3d74:	59 59 59 59 59 59 59 59 59 59 59 59 59 59 59 59     YYYYYYYYYYYYYYYY
    3d84:	59 59 59 59 59 59 59 59 59 59 59 59 59 59 59 59     YYYYYYYYYYYYYYYY
    3d94:	59 59 59 59 59 59 59 59 59 59 59 59 59 59 59 59     YYYYYYYYYYYYYYYY
    3da4:	59 59 59 59 59 59 59 59 59 59 59 59 59 59 59 59     YYYYYYYYYYYYYYYY
    3db4:	59 59 59 59 59 59 59 59 59 59 59 59 59 59 59 59     YYYYYYYYYYYYYYYY
    3dc4:	59 59 59 59 59 59 59 59 59 59 59 59 59 59 59 59     YYYYYYYYYYYYYYYY
    3dd4:	59 59 59 59 59 59 59 59 59 59 59 59 59 59 59 59     YYYYYYYYYYYYYYYY
    3de4:	59 59 59 59 59 59 59 59 59 59 59 59 59 59 59 59     YYYYYYYYYYYYYYYY
    3df4:	59 59 59 59 59 59 59 59 59 59 59 59 59 59 59 59     YYYYYYYYYYYYYYYY
    3e04:	59 59 59 59 59 59 59 59 59 59 59 59 59 59 59 59     YYYYYYYYYYYYYYYY
    3e14:	59 59 59 59 59 59 59 59 59 59 59 59 59 59 59 59     YYYYYYYYYYYYYYYY
    3e24:	59 59 59 59 59 59 59 59 59 59 59 59 59 59 59 59     YYYYYYYYYYYYYYYY
    3e34:	59 59 59 59 59 59 59 59 59 59 59 59 59 59 59 59     YYYYYYYYYYYYYYYY
    3e44:	59 59 59 59 59 59 59 59 59 59 59 59 59 59 59 59     YYYYYYYYYYYYYYYY
    3e54:	59 59 59 59 59 59 59 59 59 59 59 59 59 59 59 59     YYYYYYYYYYYYYYYY
    3e64:	59 59 59 59 59 59 59 59 59 59 59 59 59 59 59 59     YYYYYYYYYYYYYYYY
    3e74:	59 59 59 59 59 59 59 59 59 59 59 59 59 59 59 59     YYYYYYYYYYYYYYYY
    3e84:	59 59 59 59 59 59 59 59 59 59 59 59 59 59 59 59     YYYYYYYYYYYYYYYY
    3e94:	59 59 59 59 59 59 59 59 59 59 59 59 59 59 59 59     YYYYYYYYYYYYYYYY
    3ea4:	59 59 59 59 59 59 59 59 59 59 59 59 59 59 59 59     YYYYYYYYYYYYYYYY
    3eb4:	59 59 59 59 59 59 59 59 59 59 59 59 59 59 59 59     YYYYYYYYYYYYYYYY
    3ec4:	59 59 59 59 59 59 59 59 59 59 59 59 59 59 59 59     YYYYYYYYYYYYYYYY
    3ed4:	59 59 59 59 59 59 59 59 59 59 59 59 59 59 59 59     YYYYYYYYYYYYYYYY
    3ee4:	59 59 59 59 59 59 59 59 59 59 59 59 59 59 59 59     YYYYYYYYYYYYYYYY
    3ef4:	59 59 59 59 59 59 59 59 59 59 59 59 59 59 59 59     YYYYYYYYYYYYYYYY
    3f04:	59 59 59 59 59 59 59 59 59 59 59 59 59 59 59 59     YYYYYYYYYYYYYYYY
    3f14:	59 59 59 59 59 59 59 59 59 59 59 59 59 59 59 59     YYYYYYYYYYYYYYYY
    3f24:	59 59 59 59 59 59 59 59 59 59 59 59 59 59 59 59     YYYYYYYYYYYYYYYY
    3f34:	59 59 59 59 59 59 59 59 59 59 59 59 59 59 59 59     YYYYYYYYYYYYYYYY
    3f44:	59 59 59 59 59 59 59 59 59 59 59 59 59 59 59 59     YYYYYYYYYYYYYYYY
    3f54:	59 59 59 59 59 59 59 59 59 59 59 59 59 59 59 59     YYYYYYYYYYYYYYYY
    3f64:	59 59 59 59 59 59 59 59 59 59 59 59 59 59 59 59     YYYYYYYYYYYYYYYY
    3f74:	59 59 59 59 59 59 59 59 59 59 59 59 59 59 59 59     YYYYYYYYYYYYYYYY
    3f84:	59 59 59 59 59 59 59 59 59 59 59 59 59 59 59 59     YYYYYYYYYYYYYYYY
    3f94:	59 59 59 59 59 59 59 59 59 59 59 59 59 59 59 59     YYYYYYYYYYYYYYYY
    3fa4:	59 59 59 59 59 59 59 59 59 59 59 59 59 59 59 59     YYYYYYYYYYYYYYYY
    3fb4:	59 59 59 59 59 59 59 59 59 59 59 59 59 59 59 59     YYYYYYYYYYYYYYYY
    3fc4:	59 59 59 59 59 59 59 59 59 59 59 59 59 59 59 59     YYYYYYYYYYYYYYYY
    3fd4:	59 59 59 59 59 59 59 59 59 59 59 59 59 59 59 59     YYYYYYYYYYYYYYYY
    3fe4:	59 59 59 59 59 59 59 59 59 59 59 59 59 59 59 59     YYYYYYYYYYYYYYYY
    3ff4:	59 59 59 59 59 59 59 59 59 59 59 59 59 59 59 59     YYYYYYYYYYYYYYYY
    4004:	59 59 59 59 59 59 59 59 59 59 59 59 59 59 59 59     YYYYYYYYYYYYYYYY
    4014:	59 59 59 59 59 59 59 59 59 59 59 59 59 59 59 59     YYYYYYYYYYYYYYYY
    4024:	59 59 59 59 59 59 59 59 59 59 59 59 59 59 59 59     YYYYYYYYYYYYYYYY
    4034:	59 59 59 59 59 59 59 59 59 59 59 59 59 59 59 59     YYYYYYYYYYYYYYYY
    4044:	59 59 59 59 59 59 59 59 59 59 59 59 59 59 59 59     YYYYYYYYYYYYYYYY
    4054:	59 59 59 59 59 59 59 59 59 59 59 59 59 59 59 59     YYYYYYYYYYYYYYYY
    4064:	59 59 59 59 59 59 59 59 59 59 59 59 59 59 59 59     YYYYYYYYYYYYYYYY
    4074:	59 59 59 59 59 59 59 59 59 59 59 59 59 59 59 59     YYYYYYYYYYYYYYYY
    4084:	59 59 59 59 59 59 59 59 59 59 59 59 59 59 59 59     YYYYYYYYYYYYYYYY
    4094:	59 59 59 59 59 59 59 59 59 59 59 59 59 59 59 59     YYYYYYYYYYYYYYYY
    40a4:	59 59 59 59 59 59 59 59 59 59 59 59 59 59 59 59     YYYYYYYYYYYYYYYY
    40b4:	59 59 59 59 59 59 59 59 59 59 59 59 59 59 59 59     YYYYYYYYYYYYYYYY
    40c4:	59 59 59 59 59 59 59 59 59 59 59 59 59 59 59 59     YYYYYYYYYYYYYYYY
    40d4:	59 59 59 59 59 59 59 59 59 59 59 59 59 59 59 59     YYYYYYYYYYYYYYYY
    40e4:	59 59 59 59 59 59 59 59 59 59 59 59 59 59 59 59     YYYYYYYYYYYYYYYY
    40f4:	59 59 59 59 59 59 59 59 59 59 59 59 59 59 59 59     YYYYYYYYYYYYYYYY
    4104:	59 59 59 59 59 59 59 59 59 59 59 59 59 59 59 59     YYYYYYYYYYYYYYYY
    4114:	59 59 59 59 59 59 59 59 59 59 59 59 59 59 59 59     YYYYYYYYYYYYYYYY
    4124:	59 59 59 59 59 59 59 59 59 59 59 59 59 59 59 59     YYYYYYYYYYYYYYYY
    4134:	59 59 59 59 59 59 59 59 59 59 59 59 59 59 59 59     YYYYYYYYYYYYYYYY
    4144:	59 59 59 59 59 59 59 59 59 59 59 59 59 59 59 59     YYYYYYYYYYYYYYYY
    4154:	59 59 59 59 59 59 59 59 59 59 59 59 59 59 59 59     YYYYYYYYYYYYYYYY
    4164:	59 59 59 59 59 59 59 59 59 59 59 59 59 59 59 59     YYYYYYYYYYYYYYYY
    4174:	59 59 59 59 59 59 59 59 59 59 59 59 59 59 59 59     YYYYYYYYYYYYYYYY
    4184:	59 59 59 59 59 59 59 59 59 59 59 59 59 59 59 59     YYYYYYYYYYYYYYYY
    4194:	59 59 59 59 59 59 59 59 59 59 59 59 59 59 59 59     YYYYYYYYYYYYYYYY
    41a4:	59 59 59 59 59 59 59 59 59 59 59 59 59 59 59 59     YYYYYYYYYYYYYYYY
    41b4:	59 59 59 59 59 59 59 59 59 59 59 59 59 59 59 59     YYYYYYYYYYYYYYYY
    41c4:	59 59 59 59 59 59 59 59 59 59 59 59 59 59 59 59     YYYYYYYYYYYYYYYY
    41d4:	59 59 59 59 59 59 59 59 59 59 59 59 59 59 59 59     YYYYYYYYYYYYYYYY
    41e4:	59 59 59 59 59 59 59 59 59 59 59 59 59 59 59 59     YYYYYYYYYYYYYYYY
    41f4:	59 59 59 59 59 59 59 59 59 59 59 59 59 59 59 59     YYYYYYYYYYYYYYYY
    4204:	59 59 59 59 59 59 59 59 59 59 59 59 59 59 59 59     YYYYYYYYYYYYYYYY
    4214:	59 59 59 59 59 59 59 59 59 59 59 59 59 59 59 59     YYYYYYYYYYYYYYYY
    4224:	59 59 59 59 59 59 59 59 59 59 59 59 59 59 59 59     YYYYYYYYYYYYYYYY
    4234:	59 59 59 59 59 59 59 59 59 59 59 59 59 59 59 59     YYYYYYYYYYYYYYYY
    4244:	59 59 59 59 59 59 59 59 59 59 59 59 59 59 59 59     YYYYYYYYYYYYYYYY
    4254:	59 59 59 59 59 59 59 59 59 59 59 59 59 59 59 59     YYYYYYYYYYYYYYYY
    4264:	59 59 59 59 59 59 59 59 59 59 59 59 59 59 59 59     YYYYYYYYYYYYYYYY
    4274:	59 59 59 59 59 59 59 59 59 59 59 59 59 59 59 59     YYYYYYYYYYYYYYYY
    4284:	59 59 59 59 59 59 59 59 59 59 59 59 59 59 59 59     YYYYYYYYYYYYYYYY
    4294:	59 59 59 59 59 59 59 59 59 59 59 59 59 59 59 59     YYYYYYYYYYYYYYYY
    42a4:	59 59 59 59 59 59 59 59 59 59 59 59 59 59 59 59     YYYYYYYYYYYYYYYY
    42b4:	59 59 59 59 59 59 59 59 59 59 59 59 59 59 59 59     YYYYYYYYYYYYYYYY
    42c4:	59 59 59 59 59 59 59 59 59 59 59 59 59 59 59 59     YYYYYYYYYYYYYYYY
    42d4:	59 59 59 59 59 59 59 59 59 59 59 59 59 59 59 59     YYYYYYYYYYYYYYYY
    42e4:	59 59 59 59 59 59 59 59 59 59 59 59 59 59 59 59     YYYYYYYYYYYYYYYY
    42f4:	59 59 59 59 59 59 59 59 59 59 59 59 59 59 59 59     YYYYYYYYYYYYYYYY
    4304:	59 59 59 59 59 59 59 59 59 59 59 59 59 59 59 59     YYYYYYYYYYYYYYYY
    4314:	59 59 59 59 59 59 59 59 59 59 59 59 59 59 59 59     YYYYYYYYYYYYYYYY
    4324:	59 59 59 59 59 59 59 59 59 59 59 59 59 59 59 59     YYYYYYYYYYYYYYYY
    4334:	59 59 59 59 59 59 59 59 59 59 59 59 59 59 59 59     YYYYYYYYYYYYYYYY
    4344:	59 59 59 59 59 59 59 59 59 59 59 59 59 59 59 59     YYYYYYYYYYYYYYYY
    4354:	59 59 59 59 59 59 59 59 59 59 59 59 59 59 59 59     YYYYYYYYYYYYYYYY
    4364:	59 59 59 59 59 59 59 59 59 59 59 59 59 59 59 59     YYYYYYYYYYYYYYYY
    4374:	59 59 59 59 59 59 59 59 59 59 59 59 59 59 59 59     YYYYYYYYYYYYYYYY
    4384:	59 59 59 59 59 59 59 59 59 59 59 59 59 59 59 59     YYYYYYYYYYYYYYYY
    4394:	59 59 59 59 59 59 59 59 59 59 59 59 59 59 59 59     YYYYYYYYYYYYYYYY
    43a4:	59 59 59 59 59 59 59 59 59 59 59 59 59 59 59 59     YYYYYYYYYYYYYYYY
    43b4:	59 59 59 59 59 59 59 59 59 59 59 59 59 59 59 59     YYYYYYYYYYYYYYYY
    43c4:	59 59 59 59 59 59 59 59 59 59 59 59 59 59 59 59     YYYYYYYYYYYYYYYY
    43d4:	59 59 59 59 59 59 59 59 59 59 59 59 59 59 59 59     YYYYYYYYYYYYYYYY
    43e4:	59 59 59 59 59 59 59 59 59 59 59 59 59 59 59 59     YYYYYYYYYYYYYYYY
    43f4:	59 59 59 59 59 59 59 59 59 59 59 59 59 59 59 59     YYYYYYYYYYYYYYYY
    4404:	59 59 59 59 59 59 59 59 59 59 59 59 59 59 59 59     YYYYYYYYYYYYYYYY
    4414:	59 59 59 59 59 59 59 59 59 59 59 59 59 59 59 59     YYYYYYYYYYYYYYYY
    4424:	59 59 59 59 59 59 59 59 59 59 59 59 59 59 59 59     YYYYYYYYYYYYYYYY
    4434:	59 59 59 59 59 59 59 59 59 59 59 59 59 59 59 59     YYYYYYYYYYYYYYYY
    4444:	59 59 59 59 59 59 59 59 59 59 59 59 59 59 59 59     YYYYYYYYYYYYYYYY
    4454:	59 59 59 59 59 59 59 59 59 59 59 59 59 59 59 59     YYYYYYYYYYYYYYYY
    4464:	59 59 59 59 59 59 59 59 59 59 59 59 59 59 59 59     YYYYYYYYYYYYYYYY
    4474:	59 59 59 59 59 59 59 59 59 59 59 59 59 59 59 59     YYYYYYYYYYYYYYYY
    4484:	59 59 59 59 59 59 59 59 59 59 59 59 59 59 59 59     YYYYYYYYYYYYYYYY
    4494:	59 59 59 59 59 59 59 59 59 59 59 59 59 59 59 59     YYYYYYYYYYYYYYYY
    44a4:	59 59 59 59 59 59 59 59 59 59 59 59 59 59 59 59     YYYYYYYYYYYYYYYY
    44b4:	59 59 59 59 59 59 59 59 59 59 59 59 59 59 59 59     YYYYYYYYYYYYYYYY
    44c4:	59 59 59 59 59 59 59 59 59 59 59 59 59 59 59 59     YYYYYYYYYYYYYYYY
    44d4:	59 59 59 59 59 59 59 59 59 59 59 59 59 59 59 59     YYYYYYYYYYYYYYYY
    44e4:	59 59 59 59 59 59 59 59 59 59 59 59 59 59 59 59     YYYYYYYYYYYYYYYY
    44f4:	59 59 59 59 59 59 59 59 59 59 59 59 59 59 59 59     YYYYYYYYYYYYYYYY
    4504:	59 59 59 59 59 59 59 59 59 59 59 59 59 59 59 59     YYYYYYYYYYYYYYYY
    4514:	59 59 59 59 59 59 59 59 59 59 59 59 59 59 59 59     YYYYYYYYYYYYYYYY
    4524:	59 59 59 59 59 59 59 59 59 59 59 59 59 59 59 59     YYYYYYYYYYYYYYYY
    4534:	59 59 59 59 59 59 59 59 59 59 59 59 59 59 59 59     YYYYYYYYYYYYYYYY
    4544:	59 59 59 59 59 59 59 59 59 59 59 59 59 59 59 59     YYYYYYYYYYYYYYYY
    4554:	59 59 59 59 59 59 59 59 59 59 59 59 59 59 59 59     YYYYYYYYYYYYYYYY
    4564:	59 59 59 59 59 59 59 59 59 59 59 59 59 59 59 59     YYYYYYYYYYYYYYYY
    4574:	59 59 59 59 59 59 59 59 59 59 59 59 59 59 59 59     YYYYYYYYYYYYYYYY
    4584:	59 59 59 59 59 59 59 59 59 59 59 59 59 59 59 59     YYYYYYYYYYYYYYYY
    4594:	59 59 59 59 59 59 59 59 59 59 59 59 59 59 59 59     YYYYYYYYYYYYYYYY
    45a4:	59 59 59 59 59 59 59 59 59 59 59 59 59 59 59 59     YYYYYYYYYYYYYYYY
    45b4:	59 59 59 59 59 59 59 59 59 59 59 59 59 59 59 59     YYYYYYYYYYYYYYYY
    45c4:	59 59 59 59 59 59 59 59 59 59 59 59 59 59 59 59     YYYYYYYYYYYYYYYY
    45d4:	59 59 59 59 59 59 59 59 59 59 59 59 59 59 59 59     YYYYYYYYYYYYYYYY
    45e4:	59 59 59 59 59 59 59 59 59 59 59 59 59 59 59 59     YYYYYYYYYYYYYYYY
    45f4:	59 59 59 59 59 59 59 59 59 59 59 59 59 59 59 59     YYYYYYYYYYYYYYYY
    4604:	59 59 59 59 59 59 59 59 59 59 59 59 59 59 59 59     YYYYYYYYYYYYYYYY
    4614:	59 59 59 59 59 59 59 59 59 59 59 59 59 59 59 59     YYYYYYYYYYYYYYYY
    4624:	59 59 59 59 59 59 59 59 59 59 59 59 59 59 59 59     YYYYYYYYYYYYYYYY
    4634:	59 59 59 59 59 59 59 59 59 59 59 59 59 59 59 59     YYYYYYYYYYYYYYYY
    4644:	59 59 59 59 59 59 59 59 59 59 59 59 59 59 59 59     YYYYYYYYYYYYYYYY
    4654:	59 59 59 59 59 59 59 59 59 59 59 59 59 59 59 59     YYYYYYYYYYYYYYYY
    4664:	59 59 59 59 59 59 59 59 59 59 59 59 59 59 59 59     YYYYYYYYYYYYYYYY
    4674:	59 59 59 59 59 59 59 59 59 59 59 59 59 59 59 59     YYYYYYYYYYYYYYYY
    4684:	59 59 59 59 59 59 59 59 59 59 59 59 59 59 59 59     YYYYYYYYYYYYYYYY
    4694:	59 59 59 59 59 59 59 59 59 59 59 59 59 59 59 59     YYYYYYYYYYYYYYYY
    46a4:	59 59 59 59 59 59 59 59 59 59 59 59 59 59 59 59     YYYYYYYYYYYYYYYY
    46b4:	59 59 59 59 59 59 59 59 59 59 59 59 59 59 59 59     YYYYYYYYYYYYYYYY
    46c4:	59 59 59 59 59 59 59 59 59 59 59 59 59 59 59 59     YYYYYYYYYYYYYYYY
    46d4:	59 59 59 59 59 59 59 59 59 59 59 59 59 59 59 59     YYYYYYYYYYYYYYYY
    46e4:	59 59 59 59 59 59 59 59 59 59 59 59 59 59 59 59     YYYYYYYYYYYYYYYY
    46f4:	59 59 59 59 59 59 59 59 59 59 59 59 59 59 59 59     YYYYYYYYYYYYYYYY
    4704:	59 59 59 59 59 59 59 59 59 59 59 59 59 59 59 59     YYYYYYYYYYYYYYYY
    4714:	59 59 59 59 59 59 59 59 59 59 59 59 59 59 59 59     YYYYYYYYYYYYYYYY
    4724:	59 59 59 59 59 59 59 59 59 59 59 59 59 59 59 59     YYYYYYYYYYYYYYYY
    4734:	59 59 59 59 59 59 59 59 59 59 59 59 59 59 59 59     YYYYYYYYYYYYYYYY
    4744:	59 59 59 59 59 59 59 59 59 59 59 59 59 59 59 59     YYYYYYYYYYYYYYYY
    4754:	59 59 59 59 59 59 59 59 59 59 59 59 59 59 59 59     YYYYYYYYYYYYYYYY
    4764:	59 59 59 59 59 59 59 59 59 59 59 59 59 59 59 59     YYYYYYYYYYYYYYYY
    4774:	59 59 59 59 59 59 59 59 59 59 59 59 59 59 59 59     YYYYYYYYYYYYYYYY
    4784:	59 59 59 59 59 59 59 59 59 59 59 59 59 59 59 59     YYYYYYYYYYYYYYYY
    4794:	59 59 59 59 59 59 59 59 59 59 59 59 59 59 59 59     YYYYYYYYYYYYYYYY
    47a4:	59 59 59 59 59 59 59 59 59 59 59 59 59 59 59 59     YYYYYYYYYYYYYYYY
    47b4:	59 59 59 59 59 59 59 59 59 59 59 59 59 59 59 59     YYYYYYYYYYYYYYYY
    47c4:	59 59 59 59 59 59 59 59 59 59 59 59 59 59 59 59     YYYYYYYYYYYYYYYY
    47d4:	59 59 59 59 59 59 59 59 59 59 59 59 59 59 59 59     YYYYYYYYYYYYYYYY
    47e4:	59 59 59 59 59 59 59 59 59 59 59 59 59 59 59 59     YYYYYYYYYYYYYYYY
    47f4:	59 59 59 59 59 59 59 59 59 59 59 59 59 59 59 59     YYYYYYYYYYYYYYYY
    4804:	59 59 59 59 59 59 59 59 59 59 59 59 59 59 59 59     YYYYYYYYYYYYYYYY
    4814:	59 59 59 59 59 59 59 59 59 59 59 59 59 59 59 59     YYYYYYYYYYYYYYYY
    4824:	59 59 59 59 59 59 59 59 59 59 59 59 59 59 59 59     YYYYYYYYYYYYYYYY
    4834:	59 59 59 59 59 59 59 59 59 59 59 59 59 59 59 59     YYYYYYYYYYYYYYYY
    4844:	59 59 59 59 59 59 59 59 59 59 59 59 59 59 59 59     YYYYYYYYYYYYYYYY
    4854:	59 59 59 59 59 59 59 59 59 59 59 59 59 59 59 59     YYYYYYYYYYYYYYYY
    4864:	59 59 59 59 59 59 59 59 59 59 59 59 59 59 59 59     YYYYYYYYYYYYYYYY
    4874:	59 59 59 59 59 59 59 59 59 59 59 59 59 59 59 59     YYYYYYYYYYYYYYYY
    4884:	59 59 59 59 59 59 59 59 59 59 59 59 59 59 59 59     YYYYYYYYYYYYYYYY
    4894:	59 59 59 59 59 59 59 59 59 59 59 59 59 59 59 59     YYYYYYYYYYYYYYYY
    48a4:	59 59 59 59 59 59 59 59 59 59 59 59 59 59 59 59     YYYYYYYYYYYYYYYY
    48b4:	59 59 59 59 59 59 59 59 59 59 59 59 59 59 59 59     YYYYYYYYYYYYYYYY
    48c4:	59 59 59 59 59 59 59 59 59 59 59 59 59 59 59 59     YYYYYYYYYYYYYYYY
    48d4:	59 59 59 59 59 59 59 59 59 59 59 59 59 59 59 59     YYYYYYYYYYYYYYYY
    48e4:	59 59 59 59 59 59 59 59 59 59 59 59 59 59 59 59     YYYYYYYYYYYYYYYY
    48f4:	59 59 59 59 59 59 59 59 59 59 59 59 59 59 59 59     YYYYYYYYYYYYYYYY
    4904:	59 59 59 59 59 59 59 59 59 59 59 59 59 59 59 59     YYYYYYYYYYYYYYYY
    4914:	59 59 59 59 59 59 59 59 59 59 59 59 59 59 59 59     YYYYYYYYYYYYYYYY
    4924:	59 59 59 59 59 59 59 59 59 59 59 59 59 59 59 59     YYYYYYYYYYYYYYYY
    4934:	59 59 59 59 59 59 59 59 59 59 59 59 59 59 59 59     YYYYYYYYYYYYYYYY
    4944:	59 59 59 59 59 59 59 59 59 59 59 59 59 59 59 59     YYYYYYYYYYYYYYYY
    4954:	59 59 59 59 59 59 59 59 59 59 59 59 59 59 59 59     YYYYYYYYYYYYYYYY
    4964:	59 59 59 59 59 59 59 59 59 59 59 59 59 59 59 59     YYYYYYYYYYYYYYYY
    4974:	59 59 59 59 59 59 59 59 59 59 59 59 59 59 59 59     YYYYYYYYYYYYYYYY
    4984:	59 59 59 59 59 59 59 59 59 59 59 59 59 59 59 59     YYYYYYYYYYYYYYYY
    4994:	59 59 59 59 59 59 59 59 59 59 59 59 59 59 59 59     YYYYYYYYYYYYYYYY
    49a4:	59 59 59 59 59 59 59 59 59 59 59 59 59 59 59 59     YYYYYYYYYYYYYYYY
    49b4:	59 59 59 59 59 59 59 59 59 59 59 59 59 59 59 59     YYYYYYYYYYYYYYYY
    49c4:	59 59 59 59 59 59 59 59 59 59 59 59 59 59 59 59     YYYYYYYYYYYYYYYY
    49d4:	59 59 59 59 59 59 59 59 59 59 59 59 59 59 59 59     YYYYYYYYYYYYYYYY
    49e4:	59 59 59 59 59 59 59 59 59 59 59 59 59 59 59 59     YYYYYYYYYYYYYYYY
    49f4:	59 59 59 59 59 59 59 59 59 59 59 59 59 59 59 59     YYYYYYYYYYYYYYYY
    4a04:	59 59 59 59 59 59 59 59 59 59 59 59 59 59 59 59     YYYYYYYYYYYYYYYY
    4a14:	59 59 59 59 59 59 59 59 59 59 59 59 59 59 59 59     YYYYYYYYYYYYYYYY
    4a24:	59 59 59 59 59 59 59 59 59 59 59 59 59 59 59 59     YYYYYYYYYYYYYYYY
    4a34:	59 59 59 59 59 59 59 59 59 59 59 59 59 59 59 59     YYYYYYYYYYYYYYYY
    4a44:	59 59 59 59 59 59 59 59 59 59 59 59 59 59 59 59     YYYYYYYYYYYYYYYY
    4a54:	59 59 59 59 59 59 59 59 59 59 59 59 59 59 59 59     YYYYYYYYYYYYYYYY
    4a64:	59 59 59 59 59 59 59 59 59 59 59 59 59 59 59 59     YYYYYYYYYYYYYYYY
    4a74:	59 59 59 59 59 59 59 59 59 59 59 59 59 59 59 59     YYYYYYYYYYYYYYYY
    4a84:	59 59 59 59 59 59 59 59 59 59 59 59 59 59 59 59     YYYYYYYYYYYYYYYY
    4a94:	59 59 59 59 59 59 59 59 59 59 59 59 59 59 59 59     YYYYYYYYYYYYYYYY
    4aa4:	59 59 59 59 59 59 59 59 59 59 59 59 59 59 59 59     YYYYYYYYYYYYYYYY
    4ab4:	59 59 59 59 59 59 59 59 59 59 59 59 59 59 59 59     YYYYYYYYYYYYYYYY
    4ac4:	59 59 59 59 59 59 59 59 59 59 59 59 59 59 59 59     YYYYYYYYYYYYYYYY
    4ad4:	59 59 59 59 59 59 59 59 59 59 59 59 59 59 59 59     YYYYYYYYYYYYYYYY
    4ae4:	59 59 59 59 59 59 59 59 59 59 59 59 59 59 59 59     YYYYYYYYYYYYYYYY
    4af4:	59 59 59 59 59 59 59 59 59 59 59 59 59 59 59 59     YYYYYYYYYYYYYYYY
    4b04:	59 59 59 59 59 59 59 59 59 59 59 59 59 59 59 59     YYYYYYYYYYYYYYYY
    4b14:	59 59 59 59 59 59 59 59 59 59 59 59 59 59 59 59     YYYYYYYYYYYYYYYY
    4b24:	59 59 59 59 59 59 59 59 59 59 59 59 59 59 59 59     YYYYYYYYYYYYYYYY
    4b34:	59 59 59 59 59 59 59 59 59 59 59 59 59 59 59 59     YYYYYYYYYYYYYYYY
    4b44:	59 59 59 59 59 59 59 59 59 59 59 59 59 59 59 59     YYYYYYYYYYYYYYYY
    4b54:	59 59 59 59 59 59 59 59 59 59 59 59 59 59 59 59     YYYYYYYYYYYYYYYY
    4b64:	59 59 59 59 59 59 59 59 59 59 59 59 59 59 59 59     YYYYYYYYYYYYYYYY
    4b74:	59 59 59 59 59 59 59 59 59 59 59 59 59 59 59 59     YYYYYYYYYYYYYYYY
    4b84:	59 59 59 59 59 59 59 59 59 59 59 59 59 59 59 59     YYYYYYYYYYYYYYYY
    4b94:	59 59 59 59 59 59 59 59 59 59 59 59 59 59 59 59     YYYYYYYYYYYYYYYY
    4ba4:	59 59 59 59 59 59 59 59 59 59 59 59 59 59 59 59     YYYYYYYYYYYYYYYY
    4bb4:	59 59 59 59 59 59 59 59 59 59 59 59 59 59 59 59     YYYYYYYYYYYYYYYY
    4bc4:	59 59 59 59 59 59 59 59 59 59 59 59 59 59 59 59     YYYYYYYYYYYYYYYY
    4bd4:	59 59 59 59 59 59 59 59 59 59 59 59 59 59 59 59     YYYYYYYYYYYYYYYY
    4be4:	59 59 59 59 59 59 59 59 59 59 59 59 59 59 59 59     YYYYYYYYYYYYYYYY
    4bf4:	59 59 59 59 59 59 59 59 59 59 59 59 59 59 59 59     YYYYYYYYYYYYYYYY
    4c04:	59 59 59 59 59 59 59 59 59 59 59 59 59 59 59 59     YYYYYYYYYYYYYYYY
    4c14:	59 59 59 59 59 59 59 59 59 59 59 59 59 59 59 59     YYYYYYYYYYYYYYYY
    4c24:	59 59 59 59 59 59 59 59 59 59 59 59 59 59 59 59     YYYYYYYYYYYYYYYY
    4c34:	59 59 59 59 59 59 59 59 59 59 59 59 59 59 59 59     YYYYYYYYYYYYYYYY
    4c44:	59 59 59 59 59 59 59 59 59 59 59 59 59 59 59 59     YYYYYYYYYYYYYYYY
    4c54:	59 59 59 59 59 59 59 59 59 59 59 59 59 59 59 59     YYYYYYYYYYYYYYYY
    4c64:	59 59 59 59 59 59 59 59 59 59 59 59 59 59 59 59     YYYYYYYYYYYYYYYY
    4c74:	59 59 59 59 59 59 59 59 59 59 59 59 59 59 59 59     YYYYYYYYYYYYYYYY
    4c84:	59 59 59 59 59 59 59 59 59 59 59 59 59 59 59 59     YYYYYYYYYYYYYYYY
    4c94:	59 59 59 59 59 59 59 59 59 59 59 59 59 59 59 59     YYYYYYYYYYYYYYYY
    4ca4:	59 59 59 59 59 59 59 59 59 59 59 59 59 59 59 59     YYYYYYYYYYYYYYYY
    4cb4:	59 59 59 59 59 59 59 59 59 59 59 59 59 59 59 59     YYYYYYYYYYYYYYYY
    4cc4:	59 59 59 59 59 59 59 59 59 59 59 59 59 59 59 59     YYYYYYYYYYYYYYYY
    4cd4:	59 59 59 59 59 59 59 59 59 59 59 59 59 59 59 59     YYYYYYYYYYYYYYYY
    4ce4:	59 59 59 59 59 59 59 59 59 59 59 59 59 59 59 59     YYYYYYYYYYYYYYYY
    4cf4:	59 59 59 59 59 59 59 59 59 59 59 59 59 59 59 59     YYYYYYYYYYYYYYYY
    4d04:	59 59 59 59 59 59 59 59 59 59 59 59 59 59 59 59     YYYYYYYYYYYYYYYY
    4d14:	59 59 59 59 59 59 59 59 59 59 59 59 59 59 59 59     YYYYYYYYYYYYYYYY
    4d24:	59 59 59 59 59 59 59 59 59 59 59 59 59 59 59 59     YYYYYYYYYYYYYYYY
    4d34:	59 59 59 59 59 59 59 59 59 59 59 59 59 59 59 59     YYYYYYYYYYYYYYYY
    4d44:	59 59 59 59 59 59 59 59 59 59 59 59 59 59 59 59     YYYYYYYYYYYYYYYY
    4d54:	59 59 59 59 59 59 59 59 59 59 59 59 59 59 59 59     YYYYYYYYYYYYYYYY
    4d64:	59 59 59 59 59 59 59 59 59 59 59 59 59 59 59 59     YYYYYYYYYYYYYYYY
    4d74:	59 59 59 59 59 59 59 59 59 59 59 59 59 59 59 59     YYYYYYYYYYYYYYYY
    4d84:	59 59 59 59 59 59 59 59 59 59 59 59 59 59 59 59     YYYYYYYYYYYYYYYY
    4d94:	59 59 59 59 59 59 59 59 59 59 59 59 59 59 59 59     YYYYYYYYYYYYYYYY
    4da4:	59 59 59 59 59 59 59 59 59 59 59 59 59 59 59 59     YYYYYYYYYYYYYYYY
    4db4:	59 59 59 59 59 59 59 59 59 59 59 59 59 59 59 59     YYYYYYYYYYYYYYYY
    4dc4:	59 59 59 59 59 59 59 59 59 59 59 59 59 59 59 59     YYYYYYYYYYYYYYYY
    4dd4:	59 59 59 59 59 59 59 59 59 59 59 59 59 59 59 59     YYYYYYYYYYYYYYYY
    4de4:	59 59 59 59 59 59 59 59 59 59 59 59 59 59 59 59     YYYYYYYYYYYYYYYY
    4df4:	59 59 59 59 59 59 59 59 59 59 59 59 59 59 59 59     YYYYYYYYYYYYYYYY
    4e04:	59 59 59 59 59 59 59 59 59 59 59 59 59 59 59 59     YYYYYYYYYYYYYYYY
    4e14:	59 59 59 59 59 59 59 59 59 59 59 59 59 59 59 59     YYYYYYYYYYYYYYYY
    4e24:	59 59 59 59 59 59 59 59 59 59 59 59 59 59 59 59     YYYYYYYYYYYYYYYY
    4e34:	59 59 59 59 59 59 59 59 59 59 59 59 59 59 59 59     YYYYYYYYYYYYYYYY
    4e44:	59 59 59 59 59 59 59 59 59 59 59 59 59 59 59 59     YYYYYYYYYYYYYYYY
    4e54:	59 59 59 59 59 59 59 59 59 59 59 59 59 59 59 59     YYYYYYYYYYYYYYYY
    4e64:	59 59 59 59 59 59 59 59 59 59 59 59 59 59 59 59     YYYYYYYYYYYYYYYY
    4e74:	59 59 59 59 59 59 59 59 59 59 59 59 59 59 59 59     YYYYYYYYYYYYYYYY
    4e84:	59 59 59 59 59 59 59 59 59 59 59 59 59 59 59 59     YYYYYYYYYYYYYYYY
    4e94:	59 59 59 59 59 59 59 59 59 59 59 59 59 59 59 59     YYYYYYYYYYYYYYYY
    4ea4:	59 59 59 59 59 59 59 59 59 59 59 59 59 59 59 59     YYYYYYYYYYYYYYYY
    4eb4:	59 59 59 59 59 59 59 59 59 59 59 59 59 59 59 59     YYYYYYYYYYYYYYYY
    4ec4:	59 59 59 59 59 59 59 59 59 59 59 59 59 59 59 59     YYYYYYYYYYYYYYYY
    4ed4:	59 59 59 59 59 59 59 59 59 59 59 59 59 59 59 59     YYYYYYYYYYYYYYYY
    4ee4:	59 59 59 59 59 59 59 59 59 59 59 59 59 59 59 59     YYYYYYYYYYYYYYYY
    4ef4:	59 59 59 59 59 59 59 59 59 59 59 59 59 59 59 59     YYYYYYYYYYYYYYYY
    4f04:	59 59 59 59 59 59 59 59 59 59 59 59 59 59 59 59     YYYYYYYYYYYYYYYY
    4f14:	59 59 59 59 59 59 59 59 59 59 59 59 59 59 59 59     YYYYYYYYYYYYYYYY
    4f24:	59 59 59 59 59 59 59 59 59 59 59 59 59 59 59 59     YYYYYYYYYYYYYYYY
    4f34:	59 59 59 59 59 59 59 59 59 59 59 59 59 59 59 59     YYYYYYYYYYYYYYYY
    4f44:	59 59 59 59 59 59 59 59 59 59 59 59 59 59 59 59     YYYYYYYYYYYYYYYY
    4f54:	59 59 59 59 59 59 59 59 59 59 59 59 59 59 59 59     YYYYYYYYYYYYYYYY
    4f64:	59 59 59 59 59 59 59 59 59 59 59 59 59 59 59 59     YYYYYYYYYYYYYYYY
    4f74:	59 59 59 59 59 59 59 59 59 59 59 59 59 59 59 59     YYYYYYYYYYYYYYYY
    4f84:	59 59 59 59 59 59 59 59 59 59 59 59 59 59 59 59     YYYYYYYYYYYYYYYY
    4f94:	59 59 59 59 59 59 59 59 59 59 59 59 59 59 59 59     YYYYYYYYYYYYYYYY
    4fa4:	59 59 59 59 59 59 59 59 59 59 59 59 59 59 59 59     YYYYYYYYYYYYYYYY
    4fb4:	59 59 59 59 59 59 59 59 59 59 59 59 59 59 59 59     YYYYYYYYYYYYYYYY
    4fc4:	59 59 59 59 59 59 59 59 59 59 59 59 59 59 59 59     YYYYYYYYYYYYYYYY
    4fd4:	59 59 59 59 59 59 59 59 59 59 59 59 59 59 59 59     YYYYYYYYYYYYYYYY
    4fe4:	59 59 59 59 59 59 59 59 59 59 59 59 59 59 59 59     YYYYYYYYYYYYYYYY
    4ff4:	59 59 59 59 59 59 59 59 59 59 59 59 59 59 59 59     YYYYYYYYYYYYYYYY
    5004:	59 59 59 59 59 59 59 59 59 59 59 59 59 59 59 59     YYYYYYYYYYYYYYYY
    5014:	59 59 59 59 59 59 59 59 59 59 59 59 59 59 59 59     YYYYYYYYYYYYYYYY
    5024:	59 59 59 59 59 59 59 59 59 59 59 59 59 59 59 59     YYYYYYYYYYYYYYYY
    5034:	59 59 59 59 59 59 59 59 59 59 59 59 59 59 59 59     YYYYYYYYYYYYYYYY
    5044:	59 59 59 59 59 59 59 59 59 59 59 59 59 59 59 59     YYYYYYYYYYYYYYYY
    5054:	59 59 59 59 59 59 59 59 59 59 59 59 59 59 59 59     YYYYYYYYYYYYYYYY
    5064:	59 59 59 59 59 59 59 59 59 59 59 59 59 59 59 59     YYYYYYYYYYYYYYYY
    5074:	59 59 59 59 59 59 59 59 59 59 59 59 59 59 59 59     YYYYYYYYYYYYYYYY
    5084:	59 59 59 59 59 59 59 59 59 59 59 59 59 59 59 59     YYYYYYYYYYYYYYYY
    5094:	59 59 59 59 59 59 59 59 59 59 59 59 59 59 59 59     YYYYYYYYYYYYYYYY
    50a4:	59 59 59 59 59 59 59 59 59 59 59 59 59 59 59 59     YYYYYYYYYYYYYYYY
    50b4:	59 59 59 59 59 59 59 59 59 59 59 59 59 59 59 59     YYYYYYYYYYYYYYYY
    50c4:	59 59 59 59 59 59 59 59 59 59 59 59 59 59 59 59     YYYYYYYYYYYYYYYY
    50d4:	59 59 59 59 59 59 59 59 59 59 59 59 59 59 59 59     YYYYYYYYYYYYYYYY
    50e4:	59 59 59 59 59 59 59 59 59 59 59 59 59 59 59 59     YYYYYYYYYYYYYYYY
    50f4:	59 59 59 59 59 59 59 59 59 59 59 59 59 59 59 59     YYYYYYYYYYYYYYYY
    5104:	59 59 59 59 59 59 59 59 59 59 59 59 59 59 59 59     YYYYYYYYYYYYYYYY
    5114:	59 59 59 59 59 59 59 59 59 59 59 59 59 59 59 59     YYYYYYYYYYYYYYYY
    5124:	59 59 59 59 59 59 59 59 59 59 59 59 59 59 59 59     YYYYYYYYYYYYYYYY
    5134:	59 59 59 59 59 59 59 59 59 59 59 59 59 59 59 59     YYYYYYYYYYYYYYYY
    5144:	59 59 59 59 59 59 59 59 59 59 59 59 59 59 59 59     YYYYYYYYYYYYYYYY
    5154:	59 59 59 59 59 59 59 59 59 59 59 59 59 59 59 59     YYYYYYYYYYYYYYYY
    5164:	59 59 59 59 59 59 59 59 59 59 59 59 59 59 59 59     YYYYYYYYYYYYYYYY
    5174:	59 59 59 59 59 59 59 59 59 59 59 59 59 59 59 59     YYYYYYYYYYYYYYYY
    5184:	59 59 59 59 59 59 59 59 59 59 59 59 59 59 59 59     YYYYYYYYYYYYYYYY
    5194:	59 59 59 59 59 59 59 59 59 59 59 59 59 59 59 59     YYYYYYYYYYYYYYYY
    51a4:	59 59 59 59 59 59 59 59 59 59 59 59 59 59 59 59     YYYYYYYYYYYYYYYY
    51b4:	59 59 59 59 59 59 59 59 59 59 59 59 59 59 59 59     YYYYYYYYYYYYYYYY
    51c4:	59 59 59 59 59 59 59 59 59 59 59 59 59 59 59 59     YYYYYYYYYYYYYYYY
    51d4:	59 59 59 59 59 59 59 59 59 59 59 59 59 59 59 59     YYYYYYYYYYYYYYYY
    51e4:	59 59 59 59 59 59 59 59 59 59 59 59 59 59 59 59     YYYYYYYYYYYYYYYY
    51f4:	59 59 59 59 59 59 59 59 59 59 59 59 59 59 59 59     YYYYYYYYYYYYYYYY
    5204:	59 59 59 59 59 59 59 59 59 59 59 59 59 59 59 59     YYYYYYYYYYYYYYYY
    5214:	59 59 59 59 59 59 59 59 59 59 59 59 59 59 59 59     YYYYYYYYYYYYYYYY
    5224:	59 59 59 59 59 59 59 59 59 59 59 59 59 59 59 59     YYYYYYYYYYYYYYYY
    5234:	59 59 59 59 59 59 59 59 59 59 59 59 59 59 59 59     YYYYYYYYYYYYYYYY
    5244:	59 59 59 59 59 59 59 59 59 59 59 59 59 59 59 59     YYYYYYYYYYYYYYYY
    5254:	59 59 59 59 59 59 59 59 59 59 59 59 59 59 59 59     YYYYYYYYYYYYYYYY
    5264:	59 59 59 59 59 59 59 59 59 59 59 59 59 59 59 59     YYYYYYYYYYYYYYYY
    5274:	59 59 59 59 59 59 59 59 59 59 59 59 59 59 59 59     YYYYYYYYYYYYYYYY
    5284:	59 59 59 59 59 59 59 59 59 59 59 59 59 59 59 59     YYYYYYYYYYYYYYYY
    5294:	59 59 59 59 59 59 59 59 59 59 59 59 59 59 59 59     YYYYYYYYYYYYYYYY
    52a4:	59 59 59 59 59 59 59 59 59 59 59 59 59 59 59 59     YYYYYYYYYYYYYYYY
    52b4:	59 59 59 59 59 59 59 59 59 59 59 59 59 59 59 59     YYYYYYYYYYYYYYYY
    52c4:	59 59 59 59 59 59 59 59 59 59 59 59 59 59 59 59     YYYYYYYYYYYYYYYY
    52d4:	59 59 59 59 59 59 59 59 59 59 59 59 59 59 59 59     YYYYYYYYYYYYYYYY
    52e4:	59 59 59 59 59 59 59 59 59 59 59 59 59 59 59 59     YYYYYYYYYYYYYYYY
    52f4:	59 59 59 59 59 59 59 59 59 59 59 59 59 59 59 59     YYYYYYYYYYYYYYYY
    5304:	59 59 59 59 59 59 59 59 59 59 59 59 59 59 59 59     YYYYYYYYYYYYYYYY
    5314:	59 59 59 59 59 59 59 59 59 59 59 59 59 59 59 59     YYYYYYYYYYYYYYYY
    5324:	59 59 59 59 59 59 59 59 59 59 59 59 59 59 59 59     YYYYYYYYYYYYYYYY
    5334:	59 59 59 59 59 59 59 59 59 59 59 59 59 59 59 59     YYYYYYYYYYYYYYYY
    5344:	59 59 59 59 59 59 59 59 59 59 59 59 59 59 59 59     YYYYYYYYYYYYYYYY
    5354:	59 59 59 59 59 59 59 59 59 59 59 59 59 59 59 59     YYYYYYYYYYYYYYYY
    5364:	59 59 59 59 59 59 59 59 59 59 59 59 59 59 59 59     YYYYYYYYYYYYYYYY
    5374:	59 59 59 59 59 59 59 59 59 59 59 59 59 59 59 59     YYYYYYYYYYYYYYYY
    5384:	59 59 59 59 59 59 59 59 59 59 59 59 59 59 59 59     YYYYYYYYYYYYYYYY
    5394:	59 59 59 59 59 59 59 59 59 59 59 59 59 59 59 59     YYYYYYYYYYYYYYYY
    53a4:	59 59 59 59 59 59 59 59 59 59 59 59 59 59 59 59     YYYYYYYYYYYYYYYY
    53b4:	59 59 59 59 59 59 59 59 59 59 59 59 59 59 59 59     YYYYYYYYYYYYYYYY
    53c4:	59 59 59 59 59 59 59 59 59 59 59 59 59 59 59 59     YYYYYYYYYYYYYYYY
    53d4:	59 59 59 59 59 59 59 59 59 59 59 59 59 59 59 59     YYYYYYYYYYYYYYYY
    53e4:	59 59 59 59 59 59 59 59 59 59 59 59 59 59 59 59     YYYYYYYYYYYYYYYY
    53f4:	59 59 59 59 59 59 59 59 59 59 59 59 59 59 59 59     YYYYYYYYYYYYYYYY
    5404:	59 59 59 59 59 59 59 59 59 59 59 59 59 59 59 59     YYYYYYYYYYYYYYYY
    5414:	59 59 59 59 59 59 59 59 59 59 59 59 59 59 59 59     YYYYYYYYYYYYYYYY
    5424:	59 59 59 59 59 59 59 59 59 59 59 59 59 59 59 59     YYYYYYYYYYYYYYYY
    5434:	59 59 59 59 59 59 59 59 59 59 59 59 59 59 59 59     YYYYYYYYYYYYYYYY
    5444:	59 59 59 59 59 59 59 59 59 59 59 59 59 59 59 59     YYYYYYYYYYYYYYYY
    5454:	59 59 59 59 59 59 59 59 59 59 59 59 59 59 59 59     YYYYYYYYYYYYYYYY
    5464:	59 59 59 59 59 59 59 59 59 59 59 59 59 59 59 59     YYYYYYYYYYYYYYYY
    5474:	59 59 59 59 59 59 59 59 59 59 59 59 59 59 59 59     YYYYYYYYYYYYYYYY
    5484:	59 59 59 59 59 59 59 59 59 59 59 59 59 59 59 59     YYYYYYYYYYYYYYYY
    5494:	59 59 59 59 59 59 59 59 59 59 59 59 59 59 59 59     YYYYYYYYYYYYYYYY
    54a4:	59 59 59 59 59 59 59 59 59 59 59 59 59 59 59 59     YYYYYYYYYYYYYYYY
    54b4:	59 59 59 59 59 59 59 59 59 59 59 59 59 59 59 59     YYYYYYYYYYYYYYYY
    54c4:	59 59 59 59 59 59 59 59 59 59 59 59 59 59 59 59     YYYYYYYYYYYYYYYY
    54d4:	59 59 59 59 59 59 59 59 59 59 59 59 59 59 59 59     YYYYYYYYYYYYYYYY
    54e4:	59 59 59 59 59 59 59 59 59 59 59 59 59 59 59 59     YYYYYYYYYYYYYYYY
    54f4:	59 59 59 59 59 59 59 59 59 59 59 59 59 59 59 59     YYYYYYYYYYYYYYYY
    5504:	59 59 59 59 59 59 59 59 59 59 59 59 59 59 59 59     YYYYYYYYYYYYYYYY
    5514:	59 59 59 59 59 59 59 59 59 59 59 59 59 59 59 59     YYYYYYYYYYYYYYYY
    5524:	59 59 59 59 59 59 59 59 59 59 59 59 59 59 59 59     YYYYYYYYYYYYYYYY
    5534:	59 59 59 59 59 59 59 59 59 59 59 59 59 59 59 59     YYYYYYYYYYYYYYYY
    5544:	59 59 59 59 59 59 59 59 59 59 59 59 59 59 59 59     YYYYYYYYYYYYYYYY
    5554:	59 59 59 59 59 59 59 59 59 59 59 59 59 59 59 59     YYYYYYYYYYYYYYYY
    5564:	59 59 59 59 59 59 59 59 59 59 59 59 59 59 59 59     YYYYYYYYYYYYYYYY
    5574:	59 59 59 59 59 59 59 59 59 59 59 59 59 59 59 59     YYYYYYYYYYYYYYYY
    5584:	59 59 59 59 59 59 59 59 59 59 59 59 59 59 59 59     YYYYYYYYYYYYYYYY
    5594:	59 59 59 59 59 59 59 59 59 59 59 59 59 59 59 59     YYYYYYYYYYYYYYYY
    55a4:	59 59 59 59 59 59 59 59 59 59 59 59 59 59 59 59     YYYYYYYYYYYYYYYY
    55b4:	59 59 59 59 59 59 59 59 59 59 59 59 59 59 59 59     YYYYYYYYYYYYYYYY
    55c4:	59 59 59 59 59 59 59 59 59 59 59 59 59 59 59 59     YYYYYYYYYYYYYYYY
    55d4:	59 59 59 59 59 59 59 59 59 59 59 59 59 59 59 59     YYYYYYYYYYYYYYYY
    55e4:	59 59 59 59 59 59 59 59 59 59 59 59 59 59 59 59     YYYYYYYYYYYYYYYY
    55f4:	59 59 59 59 59 59 59 59 59 59 59 59 59 59 59 59     YYYYYYYYYYYYYYYY
    5604:	59 59 59 59 59 59 59 59 59 59 59 59 59 59 59 59     YYYYYYYYYYYYYYYY
    5614:	59 59 59 59 59 59 59 59 59 59 59 59 59 59 59 59     YYYYYYYYYYYYYYYY
    5624:	59 59 59 59 59 59 59 59 59 59 59 59 59 59 59 59     YYYYYYYYYYYYYYYY
    5634:	59 59 59 59 59 59 59 59 59 59 59 59 59 59 59 59     YYYYYYYYYYYYYYYY
    5644:	59 59 59 59 59 59 59 59 59 59 59 59 59 59 59 59     YYYYYYYYYYYYYYYY
    5654:	59 59 59 59 59 59 59 59 59 59 59 59 59 59 59 59     YYYYYYYYYYYYYYYY
    5664:	59 59 59 59 59 59 59 59 59 59 59 59 59 59 59 59     YYYYYYYYYYYYYYYY
    5674:	59 59 59 59 59 59 59 59 59 59 59 59 59 59 59 59     YYYYYYYYYYYYYYYY
    5684:	59 59 59 59 59 59 59 59 59 59 59 59 59 59 59 59     YYYYYYYYYYYYYYYY
    5694:	59 59 59 59 59 59 59 59 59 59 59 59 59 59 59 59     YYYYYYYYYYYYYYYY
    56a4:	59 59 59 59 59 59 59 59 59 59 59 59 59 59 59 59     YYYYYYYYYYYYYYYY
    56b4:	59 59 59 59 59 59 59 59 59 59 59 59 59 59 59 59     YYYYYYYYYYYYYYYY
    56c4:	59 59 59 59 59 59 59 59 59 59 59 59 59 59 59 59     YYYYYYYYYYYYYYYY
    56d4:	59 59 59 59 59 59 59 59 59 59 59 59 59 59 59 59     YYYYYYYYYYYYYYYY
    56e4:	59 59 59 59 59 59 59 59 59 59 59 59 59 59 59 59     YYYYYYYYYYYYYYYY
    56f4:	59 59 59 59 59 59 59 59 59 59 59 59 59 59 59 59     YYYYYYYYYYYYYYYY
    5704:	59 59 59 59 59 59 59 59 59 59 59 59 59 59 59 59     YYYYYYYYYYYYYYYY
    5714:	59 59 59 59 59 59 59 59 59 59 59 59 59 59 59 59     YYYYYYYYYYYYYYYY
    5724:	59 59 59 59 59 59 59 59 59 59 59 59 59 59 59 59     YYYYYYYYYYYYYYYY
    5734:	59 59 59 59 59 59 59 59 59 59 59 59 59 59 59 59     YYYYYYYYYYYYYYYY
    5744:	59 59 59 59 59 59 59 59 59 59 59 59 59 59 59 59     YYYYYYYYYYYYYYYY
    5754:	59 59 59 59 59 59 59 59 59 59 59 59 59 59 59 59     YYYYYYYYYYYYYYYY
    5764:	59 59 59 59 59 59 59 59 59 59 59 59 59 59 59 59     YYYYYYYYYYYYYYYY
    5774:	59 59 59 59 59 59 59 59 59 59 59 59 59 59 59 59     YYYYYYYYYYYYYYYY
    5784:	59 59 59 59 59 59 59 59 59 59 59 59 59 59 59 59     YYYYYYYYYYYYYYYY
    5794:	59 59 59 59 59 59 59 59 59 59 59 59 59 59 59 59     YYYYYYYYYYYYYYYY
    57a4:	59 59 59 59 59 59 59 59 59 59 59 59 59 59 59 59     YYYYYYYYYYYYYYYY
    57b4:	59 59 59 59 59 59 59 59 59 59 59 59 59 59 59 59     YYYYYYYYYYYYYYYY
    57c4:	59 59 59 59 59 59 59 59 59 59 59 59 59 59 59 59     YYYYYYYYYYYYYYYY
    57d4:	59 59 59 59 59 59 59 59 59 59 59 59 59 59 59 59     YYYYYYYYYYYYYYYY
    57e4:	59 59 59 59 59 59 59 59 59 59 59 59 59 59 59 59     YYYYYYYYYYYYYYYY
    57f4:	59 59 59 59 59 59 59 59 59 59 59 59 59 59 59 59     YYYYYYYYYYYYYYYY
    5804:	59 59 59 59 59 59 59 59 59 59 59 59 59 59 59 59     YYYYYYYYYYYYYYYY
    5814:	59 59 59 59 59 59 59 59 59 59 59 59 59 59 59 59     YYYYYYYYYYYYYYYY
    5824:	59 59 59 59 59 59 59 59 59 59 59 59 59 59 59 59     YYYYYYYYYYYYYYYY
    5834:	59 59 59 59 59 59 59 59 59 59 59 59 59 59 59 59     YYYYYYYYYYYYYYYY
    5844:	59 59 59 59 59 59 59 59 59 59 59 59 59 59 59 59     YYYYYYYYYYYYYYYY
    5854:	59 59 59 59 59 59 59 59 59 59 59 59 59 59 59 59     YYYYYYYYYYYYYYYY
    5864:	59 59 59 59 59 59 59 59 59 59 59 59 59 59 59 59     YYYYYYYYYYYYYYYY
    5874:	59 59 59 59 59 59 59 59 59 59 59 59 59 59 59 59     YYYYYYYYYYYYYYYY
    5884:	59 59 59 59 59 59 59 59 59 59 59 59 59 59 59 59     YYYYYYYYYYYYYYYY
    5894:	59 59 59 59 59 59 59 59 59 59 59 59 59 59 59 59     YYYYYYYYYYYYYYYY
    58a4:	59 59 59 59 59 59 59 59 59 59 59 59 59 59 59 59     YYYYYYYYYYYYYYYY
    58b4:	59 59 59 59 59 59 59 59 59 59 59 59 59 59 59 59     YYYYYYYYYYYYYYYY
    58c4:	59 59 59 59 59 59 59 59 59 59 59 59 59 59 59 59     YYYYYYYYYYYYYYYY
    58d4:	59 59 59 59 59 59 59 59 59 59 59 59 59 59 59 59     YYYYYYYYYYYYYYYY
    58e4:	59 59 59 59 59 59 59 59 59 59 59 59 59 59 59 59     YYYYYYYYYYYYYYYY
    58f4:	59 59 59 59 59 59 59 59 59 59 59 59 59 59 59 59     YYYYYYYYYYYYYYYY
    5904:	59 59 59 59 59 59 59 59 59 59 59 59 59 59 59 59     YYYYYYYYYYYYYYYY
    5914:	59 59 59 59 59 59 59 59 59 59 59 59 59 59 59 59     YYYYYYYYYYYYYYYY
    5924:	59 59 59 59 59 59 59 59 59 59 59 59 59 59 59 59     YYYYYYYYYYYYYYYY
    5934:	59 59 59 59 59 59 59 59 59 59 59 59 59 59 59 59     YYYYYYYYYYYYYYYY
    5944:	59 59 59 59 59 59 59 59 59 59 59 59 59 59 59 59     YYYYYYYYYYYYYYYY
    5954:	59 59 59 59 59 59 59 59 59 59 59 59 59 59 59 59     YYYYYYYYYYYYYYYY
    5964:	59 59 59 59 59 59 59 59 59 59 59 59 59 59 59 59     YYYYYYYYYYYYYYYY
    5974:	59 59 59 59 59 59 59 59 59 59 59 59 59 59 59 59     YYYYYYYYYYYYYYYY
    5984:	59 59 59 59 59 59 59 59 59 59 59 59 59 59 59 59     YYYYYYYYYYYYYYYY
    5994:	59 59 59 59 59 59 59 59 59 59 59 59 59 59 59 59     YYYYYYYYYYYYYYYY
    59a4:	59 59 59 59 59 59 59 59 59 59 59 59 59 59 59 59     YYYYYYYYYYYYYYYY
    59b4:	59 59 59 59 59 59 59 59 59 59 59 59 59 59 59 59     YYYYYYYYYYYYYYYY
    59c4:	59 59 59 59 59 59 59 59 59 59 59 59 59 59 59 59     YYYYYYYYYYYYYYYY
    59d4:	59 59 59 59 59 59 59 59 59 59 59 59 59 59 59 59     YYYYYYYYYYYYYYYY
    59e4:	59 59 59 59 59 59 59 59 59 59 59 59 59 59 59 59     YYYYYYYYYYYYYYYY
    59f4:	59 59 59 59 59 59 59 59 59 59 59 59 59 59 59 59     YYYYYYYYYYYYYYYY
    5a04:	59 59 59 59 59 59 59 59 59 59 59 59 59 59 59 59     YYYYYYYYYYYYYYYY
    5a14:	59 59 59 59 59 59 59 59 59 59 59 59 59 59 59 59     YYYYYYYYYYYYYYYY
    5a24:	59 59 59 59 59 59 59 59 59 59 59 59 59 59 59 59     YYYYYYYYYYYYYYYY
    5a34:	59 59 59 59 59 59 59 59 59 59 59 59 59 59 59 59     YYYYYYYYYYYYYYYY
    5a44:	59 59 59 59 59 59 59 59 59 59 59 59 59 59 59 59     YYYYYYYYYYYYYYYY
    5a54:	59 59 59 59 59 59 59 59 59 59 59 59 59 59 59 59     YYYYYYYYYYYYYYYY
    5a64:	59 59 59 59 59 59 59 59 59 59 59 59 59 59 59 59     YYYYYYYYYYYYYYYY
    5a74:	59 59 59 59 59 59 59 59 59 59 59 59 59 59 59 59     YYYYYYYYYYYYYYYY
    5a84:	59 59 59 59 59 59 59 59 59 59 59 59 59 59 59 59     YYYYYYYYYYYYYYYY
    5a94:	59 59 59 59 59 59 59 59 59 59 59 59 59 59 59 59     YYYYYYYYYYYYYYYY
    5aa4:	59 59 59 59 59 59 59 59 59 59 59 59 59 59 59 59     YYYYYYYYYYYYYYYY
    5ab4:	59 59 59 59 59 59 59 59 59 59 59 59 59 59 59 59     YYYYYYYYYYYYYYYY
    5ac4:	59 59 59 59 59 59 59 59 59 59 59 59 59 59 59 59     YYYYYYYYYYYYYYYY
    5ad4:	59 59 59 59 59 59 59 59 59 59 59 59 59 59 59 59     YYYYYYYYYYYYYYYY
    5ae4:	59 59 59 59 59 59 59 59 59 59 59 59 59 59 59 59     YYYYYYYYYYYYYYYY
    5af4:	59 59 59 59 59 59 59 59 59 59 59 59 59 59 59 59     YYYYYYYYYYYYYYYY
    5b04:	59 59 59 59 59 59 59 59 59 59 59 59 59 59 59 59     YYYYYYYYYYYYYYYY
    5b14:	59 59 59 59 59 59 59 59 59 59 59 59 59 59 59 59     YYYYYYYYYYYYYYYY
    5b24:	59 59 59 59 59 59 59 59 59 59 59 59 59 59 59 59     YYYYYYYYYYYYYYYY
    5b34:	59 59 59 59 59 59 59 59 59 59 59 59 59 59 59 59     YYYYYYYYYYYYYYYY
    5b44:	59 59 59 59 59 59 59 59 59 59 59 59 59 59 59 59     YYYYYYYYYYYYYYYY
    5b54:	59 59 59 59 59 59 59 59 59 59 59 59 59 59 59 59     YYYYYYYYYYYYYYYY
    5b64:	59 59 59 59 59 59 59 59 59 59 59 59 59 59 59 59     YYYYYYYYYYYYYYYY
    5b74:	59 59 59 59 59 59 59 59 59 59 59 59 59 59 59 59     YYYYYYYYYYYYYYYY
    5b84:	59 59 59 59 59 59 59 59 59 59 59 59 59 59 59 59     YYYYYYYYYYYYYYYY
    5b94:	59 59 59 59 59 59 59 59 59 59 59 59 59 59 59 59     YYYYYYYYYYYYYYYY
    5ba4:	59 59 59 59 59 59 59 59 59 59 59 59 59 59 59 59     YYYYYYYYYYYYYYYY
    5bb4:	59 59 59 59 59 59 59 59 59 59 59 59 59 59 59 59     YYYYYYYYYYYYYYYY
    5bc4:	59 59 59 59 59 59 59 59 59 59 59 59 59 59 59 59     YYYYYYYYYYYYYYYY
    5bd4:	59 59 59 59 59 59 59 59 59 59 59 59 59 59 59 59     YYYYYYYYYYYYYYYY
    5be4:	59 59 59 59 59 59 59 59 59 59 59 59 59 59 59 59     YYYYYYYYYYYYYYYY
    5bf4:	59 59 59 59 59 59 59 59 59 59 59 59 59 59 59 59     YYYYYYYYYYYYYYYY
    5c04:	59 59 59 59 59 59 59 59 59 59 59 59 59 59 59 59     YYYYYYYYYYYYYYYY
    5c14:	59 59 59 59 59 59 59 59 59 59 59 59 59 59 59 59     YYYYYYYYYYYYYYYY
    5c24:	59 59 59 59 59 59 59 59 59 59 59 59 59 59 59 59     YYYYYYYYYYYYYYYY
    5c34:	59 59 59 59 59 59 59 59 59 59 59 59 59 59 59 59     YYYYYYYYYYYYYYYY
    5c44:	59 59 59 59 59 59 59 59 59 59 59 59 59 59 59 59     YYYYYYYYYYYYYYYY
    5c54:	59 59 59 59 59 59 59 59 59 59 59 59 59 59 59 59     YYYYYYYYYYYYYYYY
    5c64:	59 59 59 59 59 59 59 59 59 59 59 59 59 59 59 59     YYYYYYYYYYYYYYYY
    5c74:	59 59 59 59 59 59 59 59 59 59 59 59 59 59 59 59     YYYYYYYYYYYYYYYY
    5c84:	59 59 59 59 59 59 59 59 59 59 59 59 59 59 59 59     YYYYYYYYYYYYYYYY
    5c94:	59 59 59 59 59 59 59 59 59 59 59 59 59 59 59 59     YYYYYYYYYYYYYYYY
    5ca4:	59 59 59 59 59 59 59 59 59 59 59 59 59 59 59 59     YYYYYYYYYYYYYYYY
    5cb4:	59 59 59 59 59 59 59 59 59 59 59 59 59 59 59 59     YYYYYYYYYYYYYYYY
    5cc4:	59 59 59 59 59 59 59 59 59 59 59 59 59 59 59 59     YYYYYYYYYYYYYYYY
    5cd4:	59 59 59 59 59 59 59 59 59 59 59 59 59 59 59 59     YYYYYYYYYYYYYYYY
    5ce4:	59 59 59 59 59 59 59 59 59 59 59 59 59 59 59 59     YYYYYYYYYYYYYYYY
    5cf4:	59 59 59 59 59 59 59 59 59 59 59 59 59 59 59 59     YYYYYYYYYYYYYYYY
    5d04:	59 59 59 59 59 59 59 59 59 59 59 59 59 59 59 59     YYYYYYYYYYYYYYYY
    5d14:	59 59 59 59 59 59 59 59 59 59 59 59 59 59 59 59     YYYYYYYYYYYYYYYY

00005d24 <__ctors_end>:
    5d24:	11 24       	eor	r1, r1
    5d26:	1f be       	out	0x3f, r1	; 63
    5d28:	cf e5       	ldi	r28, 0x5F	; 95
    5d2a:	d8 e0       	ldi	r29, 0x08	; 8
    5d2c:	de bf       	out	0x3e, r29	; 62
    5d2e:	cd bf       	out	0x3d, r28	; 61

00005d30 <__do_copy_data>:
    5d30:	10 e0       	ldi	r17, 0x00	; 0
    5d32:	a0 e6       	ldi	r26, 0x60	; 96
    5d34:	b0 e0       	ldi	r27, 0x00	; 0
    5d36:	ec e7       	ldi	r30, 0x7C	; 124
    5d38:	fe e5       	ldi	r31, 0x5E	; 94
    5d3a:	02 c0       	rjmp	.+4      	; 0x5d40 <.do_copy_data_start>

00005d3c <.do_copy_data_loop>:
    5d3c:	05 90       	lpm	r0, Z+
    5d3e:	0d 92       	st	X+, r0

00005d40 <.do_copy_data_start>:
    5d40:	a4 36       	cpi	r26, 0x64	; 100
    5d42:	b1 07       	cpc	r27, r17
    5d44:	d9 f7       	brne	.-10     	; 0x5d3c <.do_copy_data_loop>

00005d46 <__do_clear_bss>:
    5d46:	10 e0       	ldi	r17, 0x00	; 0
    5d48:	a4 e6       	ldi	r26, 0x64	; 100
    5d4a:	b0 e0       	ldi	r27, 0x00	; 0
    5d4c:	01 c0       	rjmp	.+2      	; 0x5d50 <.do_clear_bss_start>

00005d4e <.do_clear_bss_loop>:
    5d4e:	1d 92       	st	X+, r1

00005d50 <.do_clear_bss_start>:
    5d50:	a7 36       	cpi	r26, 0x67	; 103
    5d52:	b1 07       	cpc	r27, r17
    5d54:	e1 f7       	brne	.-8      	; 0x5d4e <.do_clear_bss_loop>
    5d56:	0e 94 39 2f 	call	0x5e72	; 0x5e72 <main>
    5d5a:	0c 94 3c 2f 	jmp	0x5e78	; 0x5e78 <_exit>

00005d5e <__bad_interrupt>:
    5d5e:	0c 94 00 00 	jmp	0	; 0x0 <__vectors>

00005d62 <__vector_7>:
unsigned char lastSample;

 

// This is called at 8000 Hz to load the next sample.
ISR(TIMER1_COMPA_vect) {
    5d62:	1f 92       	push	r1
    5d64:	0f 92       	push	r0
    5d66:	0f b6       	in	r0, 0x3f	; 63
    5d68:	0f 92       	push	r0
    5d6a:	11 24       	eor	r1, r1
    5d6c:	2f 93       	push	r18
    5d6e:	3f 93       	push	r19
    5d70:	4f 93       	push	r20
    5d72:	8f 93       	push	r24
    5d74:	9f 93       	push	r25
    5d76:	ef 93       	push	r30
    5d78:	ff 93       	push	r31
    if (sample >= sounddata_length) {
    5d7a:	80 91 65 00 	lds	r24, 0x0065
    5d7e:	90 91 66 00 	lds	r25, 0x0066
    5d82:	80 5d       	subi	r24, 0xD0	; 208
    5d84:	9c 45       	sbci	r25, 0x5C	; 92
    5d86:	00 f1       	brcs	.+64     	; 0x5dc8 <__vector_7+0x66>
        if (sample == sounddata_length + lastSample) {
    5d88:	20 91 65 00 	lds	r18, 0x0065
    5d8c:	30 91 66 00 	lds	r19, 0x0066
    5d90:	40 91 64 00 	lds	r20, 0x0064
    5d94:	84 2f       	mov	r24, r20
    5d96:	90 e0       	ldi	r25, 0x00	; 0
    5d98:	80 53       	subi	r24, 0x30	; 48
    5d9a:	93 4a       	sbci	r25, 0xA3	; 163
    5d9c:	28 17       	cp	r18, r24
    5d9e:	39 07       	cpc	r19, r25
    5da0:	59 f4       	brne	.+22     	; 0x5db8 <__vector_7+0x56>
}

void stopPlayback()
{
    // Disable playback per-sample interrupt.
    TIMSK &= ~_BV(OCIE1A);
    5da2:	89 b7       	in	r24, 0x39	; 57
    5da4:	8f 7e       	andi	r24, 0xEF	; 239
    5da6:	89 bf       	out	0x39, r24	; 57

    // Disable the per-sample timer completely.
    TCCR1A &= ~_BV(CS10);
    5da8:	8f b5       	in	r24, 0x2f	; 47
    5daa:	8e 7f       	andi	r24, 0xFE	; 254
    5dac:	8f bd       	out	0x2f, r24	; 47

    // Disable the PWM timer.
    TCCR2 &= ~_BV(CS00);
    5dae:	85 b5       	in	r24, 0x25	; 37
    5db0:	8e 7f       	andi	r24, 0xFE	; 254
    5db2:	85 bd       	out	0x25, r24	; 37

    PORTD=0x00;
    5db4:	12 ba       	out	0x12, r1	; 18
    5db6:	10 c0       	rjmp	.+32     	; 0x5dd8 <__vector_7+0x76>
        if (sample == sounddata_length + lastSample) {
            stopPlayback();
        }
        else {
            // Ramp down to zero to reduce the click at the end of playback.
            OCR2 = sounddata_length + lastSample - sample;
    5db8:	80 91 65 00 	lds	r24, 0x0065
    5dbc:	90 91 66 00 	lds	r25, 0x0066
    5dc0:	40 53       	subi	r20, 0x30	; 48
    5dc2:	48 1b       	sub	r20, r24
    5dc4:	43 bd       	out	0x23, r20	; 35
    5dc6:	08 c0       	rjmp	.+16     	; 0x5dd8 <__vector_7+0x76>
        }
    }
    else {
        OCR2 = pgm_read_byte(&sounddata_data[sample]);
    5dc8:	e0 91 65 00 	lds	r30, 0x0065
    5dcc:	f0 91 66 00 	lds	r31, 0x0066
    5dd0:	ec 5a       	subi	r30, 0xAC	; 172
    5dd2:	ff 4f       	sbci	r31, 0xFF	; 255
    5dd4:	e4 91       	lpm	r30, Z+
    5dd6:	e3 bd       	out	0x23, r30	; 35
    }

    ++sample;
    5dd8:	80 91 65 00 	lds	r24, 0x0065
    5ddc:	90 91 66 00 	lds	r25, 0x0066
    5de0:	01 96       	adiw	r24, 0x01	; 1
    5de2:	90 93 66 00 	sts	0x0066, r25
    5de6:	80 93 65 00 	sts	0x0065, r24
}
    5dea:	ff 91       	pop	r31
    5dec:	ef 91       	pop	r30
    5dee:	9f 91       	pop	r25
    5df0:	8f 91       	pop	r24
    5df2:	4f 91       	pop	r20
    5df4:	3f 91       	pop	r19
    5df6:	2f 91       	pop	r18
    5df8:	0f 90       	pop	r0
    5dfa:	0f be       	out	0x3f, r0	; 63
    5dfc:	0f 90       	pop	r0
    5dfe:	1f 90       	pop	r1
    5e00:	18 95       	reti

00005e02 <startPlayback>:

void startPlayback()
{
    DDRD=0xFF;
    5e02:	8f ef       	ldi	r24, 0xFF	; 255
    5e04:	81 bb       	out	0x11, r24	; 17
 PORTD=0x00;
    5e06:	12 ba       	out	0x12, r1	; 18

    /*set timer counter initial value*/

TCNT2=0x00;
    5e08:	14 bc       	out	0x24, r1	; 36

/*Set timer output compare register*/

OCR2=0x80;
    5e0a:	80 e8       	ldi	r24, 0x80	; 128
    5e0c:	83 bd       	out	0x23, r24	; 35
without presscaler

Non inverted mode in OC2 pin;

FAST PWM*/
TCCR2=(1<<FOC2)|(1<<COM21)|(1<<COM20)|(1<<WGM20)|(1<<WGM21)|(1<<CS00);
    5e0e:	89 ef       	ldi	r24, 0xF9	; 249
    5e10:	85 bd       	out	0x25, r24	; 37

    // Set initial pulse width to the first sample.
    OCR2 = pgm_read_byte(&sounddata_data[0]);
    5e12:	e4 e5       	ldi	r30, 0x54	; 84
    5e14:	f0 e0       	ldi	r31, 0x00	; 0
    5e16:	e4 91       	lpm	r30, Z+
    5e18:	e3 bd       	out	0x23, r30	; 35


    // Set up Timer 1 to send a sample every interrupt.

    cli();
    5e1a:	f8 94       	cli

    // Set CTC mode (Clear Timer on Compare Match) (p.133)
    // Have to set OCR1A *after*, otherwise it gets reset to 0!
    TCCR1B = (TCCR1B & ~_BV(WGM13)) | _BV(WGM12);
    5e1c:	8e b5       	in	r24, 0x2e	; 46
    5e1e:	87 7e       	andi	r24, 0xE7	; 231
    5e20:	88 60       	ori	r24, 0x08	; 8
    5e22:	8e bd       	out	0x2e, r24	; 46
    TCCR1A = TCCR1A & ~(_BV(WGM11) | _BV(WGM10));
    5e24:	8f b5       	in	r24, 0x2f	; 47
    5e26:	8c 7f       	andi	r24, 0xFC	; 252
    5e28:	8f bd       	out	0x2f, r24	; 47

    // No prescaler (p.134)
    TCCR1B = (TCCR1B & ~(_BV(CS12) | _BV(CS11))) | _BV(CS10);
    5e2a:	8e b5       	in	r24, 0x2e	; 46
    5e2c:	88 7f       	andi	r24, 0xF8	; 248
    5e2e:	81 60       	ori	r24, 0x01	; 1
    5e30:	8e bd       	out	0x2e, r24	; 46

    // Set the compare register (OCR1A).
    // OCR1A is a 16-bit register, so we have to do this with
    // interrupts disabled to be safe.
    OCR1A = F_CPU / SAMPLE_RATE;    // 16e6 / 8000 = 2000
    5e32:	8e ea       	ldi	r24, 0xAE	; 174
    5e34:	95 e0       	ldi	r25, 0x05	; 5
    5e36:	9b bd       	out	0x2b, r25	; 43
    5e38:	8a bd       	out	0x2a, r24	; 42

    // Enable interrupt when TCNT1 == OCR1A (p.136)
    TIMSK |= _BV(OCIE1A);
    5e3a:	89 b7       	in	r24, 0x39	; 57
    5e3c:	80 61       	ori	r24, 0x10	; 16
    5e3e:	89 bf       	out	0x39, r24	; 57

    lastSample = pgm_read_byte(&sounddata_data[sounddata_length-1]);
    5e40:	e3 e2       	ldi	r30, 0x23	; 35
    5e42:	fd e5       	ldi	r31, 0x5D	; 93
    5e44:	e4 91       	lpm	r30, Z+
    5e46:	e0 93 64 00 	sts	0x0064, r30
    sample = 0;
    5e4a:	10 92 66 00 	sts	0x0066, r1
    5e4e:	10 92 65 00 	sts	0x0065, r1
    sei();
    5e52:	78 94       	sei
}
    5e54:	08 95       	ret

00005e56 <stopPlayback>:

void stopPlayback()
{
    // Disable playback per-sample interrupt.
    TIMSK &= ~_BV(OCIE1A);
    5e56:	89 b7       	in	r24, 0x39	; 57
    5e58:	8f 7e       	andi	r24, 0xEF	; 239
    5e5a:	89 bf       	out	0x39, r24	; 57

    // Disable the per-sample timer completely.
    TCCR1A &= ~_BV(CS10);
    5e5c:	8f b5       	in	r24, 0x2f	; 47
    5e5e:	8e 7f       	andi	r24, 0xFE	; 254
    5e60:	8f bd       	out	0x2f, r24	; 47

    // Disable the PWM timer.
    TCCR2 &= ~_BV(CS00);
    5e62:	85 b5       	in	r24, 0x25	; 37
    5e64:	8e 7f       	andi	r24, 0xFE	; 254
    5e66:	85 bd       	out	0x25, r24	; 37

    PORTD=0x00;
    5e68:	12 ba       	out	0x12, r1	; 18
}
    5e6a:	08 95       	ret

00005e6c <setup>:

void setup()
{
   startPlayback();
    5e6c:	0e 94 01 2f 	call	0x5e02	; 0x5e02 <startPlayback>
}
    5e70:	08 95       	ret

00005e72 <main>:
    PORTD=0x00;
}

void setup()
{
   startPlayback();
    5e72:	0e 94 01 2f 	call	0x5e02	; 0x5e02 <startPlayback>
    5e76:	ff cf       	rjmp	.-2      	; 0x5e76 <main+0x4>

00005e78 <_exit>:
    5e78:	f8 94       	cli

00005e7a <__stop_program>:
    5e7a:	ff cf       	rjmp	.-2      	; 0x5e7a <__stop_program>
